ARM GAS  /tmp/ccnCrYSN.s 			page 1


   1              		.arch armv6s-m
   2              		.fpu softvfp
   3              		.eabi_attribute 20, 1
   4              		.eabi_attribute 21, 1
   5              		.eabi_attribute 23, 3
   6              		.eabi_attribute 24, 1
   7              		.eabi_attribute 25, 1
   8              		.eabi_attribute 26, 1
   9              		.eabi_attribute 30, 6
  10              		.eabi_attribute 34, 0
  11              		.eabi_attribute 18, 4
  12              		.file	"stm32f0xx_hal_i2c.c"
  13              		.text
  14              		.section	.text.HAL_I2C_Init,"ax",%progbits
  15              		.align	1
  16              		.global	HAL_I2C_Init
  17              		.syntax unified
  18              		.code	16
  19              		.thumb_func
  21              	HAL_I2C_Init:
  22              		@ args = 0, pretend = 0, frame = 8
  23              		@ frame_needed = 1, uses_anonymous_args = 0
  24 0000 80B5     		push	{r7, lr}
  25 0002 82B0     		sub	sp, sp, #8
  26 0004 00AF     		add	r7, sp, #0
  27 0006 7860     		str	r0, [r7, #4]
  28 0008 7B68     		ldr	r3, [r7, #4]
  29 000a 002B     		cmp	r3, #0
  30 000c 01D1     		bne	.L2
  31 000e 0123     		movs	r3, #1
  32 0010 8FE0     		b	.L3
  33              	.L2:
  34 0012 7B68     		ldr	r3, [r7, #4]
  35 0014 4122     		movs	r2, #65
  36 0016 9B5C     		ldrb	r3, [r3, r2]
  37 0018 DBB2     		uxtb	r3, r3
  38 001a 002B     		cmp	r3, #0
  39 001c 07D1     		bne	.L4
  40 001e 7B68     		ldr	r3, [r7, #4]
  41 0020 4022     		movs	r2, #64
  42 0022 0021     		movs	r1, #0
  43 0024 9954     		strb	r1, [r3, r2]
  44 0026 7B68     		ldr	r3, [r7, #4]
  45 0028 1800     		movs	r0, r3
  46 002a FFF7FEFF 		bl	HAL_I2C_MspInit
  47              	.L4:
  48 002e 7B68     		ldr	r3, [r7, #4]
  49 0030 4122     		movs	r2, #65
  50 0032 2421     		movs	r1, #36
  51 0034 9954     		strb	r1, [r3, r2]
  52 0036 7B68     		ldr	r3, [r7, #4]
  53 0038 1B68     		ldr	r3, [r3]
  54 003a 1A68     		ldr	r2, [r3]
  55 003c 7B68     		ldr	r3, [r7, #4]
  56 003e 1B68     		ldr	r3, [r3]
  57 0040 0121     		movs	r1, #1
  58 0042 8A43     		bics	r2, r1
ARM GAS  /tmp/ccnCrYSN.s 			page 2


  59 0044 1A60     		str	r2, [r3]
  60 0046 7B68     		ldr	r3, [r7, #4]
  61 0048 5A68     		ldr	r2, [r3, #4]
  62 004a 7B68     		ldr	r3, [r7, #4]
  63 004c 1B68     		ldr	r3, [r3]
  64 004e 3B49     		ldr	r1, .L9
  65 0050 0A40     		ands	r2, r1
  66 0052 1A61     		str	r2, [r3, #16]
  67 0054 7B68     		ldr	r3, [r7, #4]
  68 0056 1B68     		ldr	r3, [r3]
  69 0058 9A68     		ldr	r2, [r3, #8]
  70 005a 7B68     		ldr	r3, [r7, #4]
  71 005c 1B68     		ldr	r3, [r3]
  72 005e 3849     		ldr	r1, .L9+4
  73 0060 0A40     		ands	r2, r1
  74 0062 9A60     		str	r2, [r3, #8]
  75 0064 7B68     		ldr	r3, [r7, #4]
  76 0066 DB68     		ldr	r3, [r3, #12]
  77 0068 012B     		cmp	r3, #1
  78 006a 08D1     		bne	.L5
  79 006c 7B68     		ldr	r3, [r7, #4]
  80 006e 9A68     		ldr	r2, [r3, #8]
  81 0070 7B68     		ldr	r3, [r7, #4]
  82 0072 1B68     		ldr	r3, [r3]
  83 0074 8021     		movs	r1, #128
  84 0076 0902     		lsls	r1, r1, #8
  85 0078 0A43     		orrs	r2, r1
  86 007a 9A60     		str	r2, [r3, #8]
  87 007c 07E0     		b	.L6
  88              	.L5:
  89 007e 7B68     		ldr	r3, [r7, #4]
  90 0080 9A68     		ldr	r2, [r3, #8]
  91 0082 7B68     		ldr	r3, [r7, #4]
  92 0084 1B68     		ldr	r3, [r3]
  93 0086 8421     		movs	r1, #132
  94 0088 0902     		lsls	r1, r1, #8
  95 008a 0A43     		orrs	r2, r1
  96 008c 9A60     		str	r2, [r3, #8]
  97              	.L6:
  98 008e 7B68     		ldr	r3, [r7, #4]
  99 0090 DB68     		ldr	r3, [r3, #12]
 100 0092 022B     		cmp	r3, #2
 101 0094 09D1     		bne	.L7
 102 0096 7B68     		ldr	r3, [r7, #4]
 103 0098 1B68     		ldr	r3, [r3]
 104 009a 5A68     		ldr	r2, [r3, #4]
 105 009c 7B68     		ldr	r3, [r7, #4]
 106 009e 1B68     		ldr	r3, [r3]
 107 00a0 8021     		movs	r1, #128
 108 00a2 0901     		lsls	r1, r1, #4
 109 00a4 0A43     		orrs	r2, r1
 110 00a6 5A60     		str	r2, [r3, #4]
 111 00a8 07E0     		b	.L8
 112              	.L7:
 113 00aa 7B68     		ldr	r3, [r7, #4]
 114 00ac 1B68     		ldr	r3, [r3]
 115 00ae 5A68     		ldr	r2, [r3, #4]
ARM GAS  /tmp/ccnCrYSN.s 			page 3


 116 00b0 7B68     		ldr	r3, [r7, #4]
 117 00b2 1B68     		ldr	r3, [r3]
 118 00b4 2349     		ldr	r1, .L9+8
 119 00b6 0A40     		ands	r2, r1
 120 00b8 5A60     		str	r2, [r3, #4]
 121              	.L8:
 122 00ba 7B68     		ldr	r3, [r7, #4]
 123 00bc 1B68     		ldr	r3, [r3]
 124 00be 5A68     		ldr	r2, [r3, #4]
 125 00c0 7B68     		ldr	r3, [r7, #4]
 126 00c2 1B68     		ldr	r3, [r3]
 127 00c4 2049     		ldr	r1, .L9+12
 128 00c6 0A43     		orrs	r2, r1
 129 00c8 5A60     		str	r2, [r3, #4]
 130 00ca 7B68     		ldr	r3, [r7, #4]
 131 00cc 1B68     		ldr	r3, [r3]
 132 00ce DA68     		ldr	r2, [r3, #12]
 133 00d0 7B68     		ldr	r3, [r7, #4]
 134 00d2 1B68     		ldr	r3, [r3]
 135 00d4 1A49     		ldr	r1, .L9+4
 136 00d6 0A40     		ands	r2, r1
 137 00d8 DA60     		str	r2, [r3, #12]
 138 00da 7B68     		ldr	r3, [r7, #4]
 139 00dc 1A69     		ldr	r2, [r3, #16]
 140 00de 7B68     		ldr	r3, [r7, #4]
 141 00e0 5B69     		ldr	r3, [r3, #20]
 142 00e2 1A43     		orrs	r2, r3
 143 00e4 1100     		movs	r1, r2
 144 00e6 7B68     		ldr	r3, [r7, #4]
 145 00e8 9B69     		ldr	r3, [r3, #24]
 146 00ea 1A02     		lsls	r2, r3, #8
 147 00ec 7B68     		ldr	r3, [r7, #4]
 148 00ee 1B68     		ldr	r3, [r3]
 149 00f0 0A43     		orrs	r2, r1
 150 00f2 DA60     		str	r2, [r3, #12]
 151 00f4 7B68     		ldr	r3, [r7, #4]
 152 00f6 D969     		ldr	r1, [r3, #28]
 153 00f8 7B68     		ldr	r3, [r7, #4]
 154 00fa 1A6A     		ldr	r2, [r3, #32]
 155 00fc 7B68     		ldr	r3, [r7, #4]
 156 00fe 1B68     		ldr	r3, [r3]
 157 0100 0A43     		orrs	r2, r1
 158 0102 1A60     		str	r2, [r3]
 159 0104 7B68     		ldr	r3, [r7, #4]
 160 0106 1B68     		ldr	r3, [r3]
 161 0108 1A68     		ldr	r2, [r3]
 162 010a 7B68     		ldr	r3, [r7, #4]
 163 010c 1B68     		ldr	r3, [r3]
 164 010e 0121     		movs	r1, #1
 165 0110 0A43     		orrs	r2, r1
 166 0112 1A60     		str	r2, [r3]
 167 0114 7B68     		ldr	r3, [r7, #4]
 168 0116 0022     		movs	r2, #0
 169 0118 5A64     		str	r2, [r3, #68]
 170 011a 7B68     		ldr	r3, [r7, #4]
 171 011c 4122     		movs	r2, #65
 172 011e 2021     		movs	r1, #32
ARM GAS  /tmp/ccnCrYSN.s 			page 4


 173 0120 9954     		strb	r1, [r3, r2]
 174 0122 7B68     		ldr	r3, [r7, #4]
 175 0124 0022     		movs	r2, #0
 176 0126 1A63     		str	r2, [r3, #48]
 177 0128 7B68     		ldr	r3, [r7, #4]
 178 012a 4222     		movs	r2, #66
 179 012c 0021     		movs	r1, #0
 180 012e 9954     		strb	r1, [r3, r2]
 181 0130 0023     		movs	r3, #0
 182              	.L3:
 183 0132 1800     		movs	r0, r3
 184 0134 BD46     		mov	sp, r7
 185 0136 02B0     		add	sp, sp, #8
 186              		@ sp needed
 187 0138 80BD     		pop	{r7, pc}
 188              	.L10:
 189 013a C046     		.align	2
 190              	.L9:
 191 013c FFFFFFF0 		.word	-251658241
 192 0140 FF7FFFFF 		.word	-32769
 193 0144 FFF7FFFF 		.word	-2049
 194 0148 00800002 		.word	33587200
 196              		.section	.text.HAL_I2C_DeInit,"ax",%progbits
 197              		.align	1
 198              		.global	HAL_I2C_DeInit
 199              		.syntax unified
 200              		.code	16
 201              		.thumb_func
 203              	HAL_I2C_DeInit:
 204              		@ args = 0, pretend = 0, frame = 8
 205              		@ frame_needed = 1, uses_anonymous_args = 0
 206 0000 80B5     		push	{r7, lr}
 207 0002 82B0     		sub	sp, sp, #8
 208 0004 00AF     		add	r7, sp, #0
 209 0006 7860     		str	r0, [r7, #4]
 210 0008 7B68     		ldr	r3, [r7, #4]
 211 000a 002B     		cmp	r3, #0
 212 000c 01D1     		bne	.L12
 213 000e 0123     		movs	r3, #1
 214 0010 22E0     		b	.L13
 215              	.L12:
 216 0012 7B68     		ldr	r3, [r7, #4]
 217 0014 4122     		movs	r2, #65
 218 0016 2421     		movs	r1, #36
 219 0018 9954     		strb	r1, [r3, r2]
 220 001a 7B68     		ldr	r3, [r7, #4]
 221 001c 1B68     		ldr	r3, [r3]
 222 001e 1A68     		ldr	r2, [r3]
 223 0020 7B68     		ldr	r3, [r7, #4]
 224 0022 1B68     		ldr	r3, [r3]
 225 0024 0121     		movs	r1, #1
 226 0026 8A43     		bics	r2, r1
 227 0028 1A60     		str	r2, [r3]
 228 002a 7B68     		ldr	r3, [r7, #4]
 229 002c 1800     		movs	r0, r3
 230 002e FFF7FEFF 		bl	HAL_I2C_MspDeInit
 231 0032 7B68     		ldr	r3, [r7, #4]
ARM GAS  /tmp/ccnCrYSN.s 			page 5


 232 0034 0022     		movs	r2, #0
 233 0036 5A64     		str	r2, [r3, #68]
 234 0038 7B68     		ldr	r3, [r7, #4]
 235 003a 4122     		movs	r2, #65
 236 003c 0021     		movs	r1, #0
 237 003e 9954     		strb	r1, [r3, r2]
 238 0040 7B68     		ldr	r3, [r7, #4]
 239 0042 0022     		movs	r2, #0
 240 0044 1A63     		str	r2, [r3, #48]
 241 0046 7B68     		ldr	r3, [r7, #4]
 242 0048 4222     		movs	r2, #66
 243 004a 0021     		movs	r1, #0
 244 004c 9954     		strb	r1, [r3, r2]
 245 004e 7B68     		ldr	r3, [r7, #4]
 246 0050 4022     		movs	r2, #64
 247 0052 0021     		movs	r1, #0
 248 0054 9954     		strb	r1, [r3, r2]
 249 0056 0023     		movs	r3, #0
 250              	.L13:
 251 0058 1800     		movs	r0, r3
 252 005a BD46     		mov	sp, r7
 253 005c 02B0     		add	sp, sp, #8
 254              		@ sp needed
 255 005e 80BD     		pop	{r7, pc}
 257              		.section	.text.HAL_I2C_MspInit,"ax",%progbits
 258              		.align	1
 259              		.weak	HAL_I2C_MspInit
 260              		.syntax unified
 261              		.code	16
 262              		.thumb_func
 264              	HAL_I2C_MspInit:
 265              		@ args = 0, pretend = 0, frame = 8
 266              		@ frame_needed = 1, uses_anonymous_args = 0
 267 0000 80B5     		push	{r7, lr}
 268 0002 82B0     		sub	sp, sp, #8
 269 0004 00AF     		add	r7, sp, #0
 270 0006 7860     		str	r0, [r7, #4]
 271 0008 C046     		nop
 272 000a BD46     		mov	sp, r7
 273 000c 02B0     		add	sp, sp, #8
 274              		@ sp needed
 275 000e 80BD     		pop	{r7, pc}
 277              		.section	.text.HAL_I2C_MspDeInit,"ax",%progbits
 278              		.align	1
 279              		.weak	HAL_I2C_MspDeInit
 280              		.syntax unified
 281              		.code	16
 282              		.thumb_func
 284              	HAL_I2C_MspDeInit:
 285              		@ args = 0, pretend = 0, frame = 8
 286              		@ frame_needed = 1, uses_anonymous_args = 0
 287 0000 80B5     		push	{r7, lr}
 288 0002 82B0     		sub	sp, sp, #8
 289 0004 00AF     		add	r7, sp, #0
 290 0006 7860     		str	r0, [r7, #4]
 291 0008 C046     		nop
 292 000a BD46     		mov	sp, r7
ARM GAS  /tmp/ccnCrYSN.s 			page 6


 293 000c 02B0     		add	sp, sp, #8
 294              		@ sp needed
 295 000e 80BD     		pop	{r7, pc}
 297              		.section	.text.HAL_I2C_Master_Transmit,"ax",%progbits
 298              		.align	1
 299              		.global	HAL_I2C_Master_Transmit
 300              		.syntax unified
 301              		.code	16
 302              		.thumb_func
 304              	HAL_I2C_Master_Transmit:
 305              		@ args = 4, pretend = 0, frame = 24
 306              		@ frame_needed = 1, uses_anonymous_args = 0
 307 0000 90B5     		push	{r4, r7, lr}
 308 0002 89B0     		sub	sp, sp, #36
 309 0004 02AF     		add	r7, sp, #8
 310 0006 F860     		str	r0, [r7, #12]
 311 0008 0800     		movs	r0, r1
 312 000a 7A60     		str	r2, [r7, #4]
 313 000c 1900     		movs	r1, r3
 314 000e 0A23     		movs	r3, #10
 315 0010 FB18     		adds	r3, r7, r3
 316 0012 021C     		adds	r2, r0, #0
 317 0014 1A80     		strh	r2, [r3]
 318 0016 0823     		movs	r3, #8
 319 0018 FB18     		adds	r3, r7, r3
 320 001a 0A1C     		adds	r2, r1, #0
 321 001c 1A80     		strh	r2, [r3]
 322 001e FB68     		ldr	r3, [r7, #12]
 323 0020 4122     		movs	r2, #65
 324 0022 9B5C     		ldrb	r3, [r3, r2]
 325 0024 DBB2     		uxtb	r3, r3
 326 0026 202B     		cmp	r3, #32
 327 0028 00D0     		beq	.LCB318
 328 002a 0AE1     		b	.L17	@long jump
 329              	.LCB318:
 330 002c FB68     		ldr	r3, [r7, #12]
 331 002e 4022     		movs	r2, #64
 332 0030 9B5C     		ldrb	r3, [r3, r2]
 333 0032 012B     		cmp	r3, #1
 334 0034 01D1     		bne	.L18
 335 0036 0223     		movs	r3, #2
 336 0038 04E1     		b	.L19
 337              	.L18:
 338 003a FB68     		ldr	r3, [r7, #12]
 339 003c 4022     		movs	r2, #64
 340 003e 0121     		movs	r1, #1
 341 0040 9954     		strb	r1, [r3, r2]
 342 0042 FFF7FEFF 		bl	HAL_GetTick
 343 0046 0300     		movs	r3, r0
 344 0048 3B61     		str	r3, [r7, #16]
 345 004a 8023     		movs	r3, #128
 346 004c 1902     		lsls	r1, r3, #8
 347 004e F868     		ldr	r0, [r7, #12]
 348 0050 3B69     		ldr	r3, [r7, #16]
 349 0052 0093     		str	r3, [sp]
 350 0054 1923     		movs	r3, #25
 351 0056 0122     		movs	r2, #1
ARM GAS  /tmp/ccnCrYSN.s 			page 7


 352 0058 FFF7FEFF 		bl	I2C_WaitOnFlagUntilTimeout
 353 005c 031E     		subs	r3, r0, #0
 354 005e 01D0     		beq	.L20
 355 0060 0123     		movs	r3, #1
 356 0062 EFE0     		b	.L19
 357              	.L20:
 358 0064 FB68     		ldr	r3, [r7, #12]
 359 0066 4122     		movs	r2, #65
 360 0068 2121     		movs	r1, #33
 361 006a 9954     		strb	r1, [r3, r2]
 362 006c FB68     		ldr	r3, [r7, #12]
 363 006e 4222     		movs	r2, #66
 364 0070 1021     		movs	r1, #16
 365 0072 9954     		strb	r1, [r3, r2]
 366 0074 FB68     		ldr	r3, [r7, #12]
 367 0076 0022     		movs	r2, #0
 368 0078 5A64     		str	r2, [r3, #68]
 369 007a FB68     		ldr	r3, [r7, #12]
 370 007c 7A68     		ldr	r2, [r7, #4]
 371 007e 5A62     		str	r2, [r3, #36]
 372 0080 FB68     		ldr	r3, [r7, #12]
 373 0082 0822     		movs	r2, #8
 374 0084 BA18     		adds	r2, r7, r2
 375 0086 1288     		ldrh	r2, [r2]
 376 0088 5A85     		strh	r2, [r3, #42]
 377 008a FB68     		ldr	r3, [r7, #12]
 378 008c 0022     		movs	r2, #0
 379 008e 5A63     		str	r2, [r3, #52]
 380 0090 FB68     		ldr	r3, [r7, #12]
 381 0092 5B8D     		ldrh	r3, [r3, #42]
 382 0094 9BB2     		uxth	r3, r3
 383 0096 FF2B     		cmp	r3, #255
 384 0098 06D9     		bls	.L21
 385 009a FB68     		ldr	r3, [r7, #12]
 386 009c FF22     		movs	r2, #255
 387 009e 1A85     		strh	r2, [r3, #40]
 388 00a0 8023     		movs	r3, #128
 389 00a2 5B04     		lsls	r3, r3, #17
 390 00a4 7B61     		str	r3, [r7, #20]
 391 00a6 07E0     		b	.L22
 392              	.L21:
 393 00a8 FB68     		ldr	r3, [r7, #12]
 394 00aa 5B8D     		ldrh	r3, [r3, #42]
 395 00ac 9AB2     		uxth	r2, r3
 396 00ae FB68     		ldr	r3, [r7, #12]
 397 00b0 1A85     		strh	r2, [r3, #40]
 398 00b2 8023     		movs	r3, #128
 399 00b4 9B04     		lsls	r3, r3, #18
 400 00b6 7B61     		str	r3, [r7, #20]
 401              	.L22:
 402 00b8 FB68     		ldr	r3, [r7, #12]
 403 00ba 1B8D     		ldrh	r3, [r3, #40]
 404 00bc 002B     		cmp	r3, #0
 405 00be 27D0     		beq	.L23
 406 00c0 FB68     		ldr	r3, [r7, #12]
 407 00c2 5B6A     		ldr	r3, [r3, #36]
 408 00c4 1A78     		ldrb	r2, [r3]
ARM GAS  /tmp/ccnCrYSN.s 			page 8


 409 00c6 FB68     		ldr	r3, [r7, #12]
 410 00c8 1B68     		ldr	r3, [r3]
 411 00ca 9A62     		str	r2, [r3, #40]
 412 00cc FB68     		ldr	r3, [r7, #12]
 413 00ce 5B6A     		ldr	r3, [r3, #36]
 414 00d0 5A1C     		adds	r2, r3, #1
 415 00d2 FB68     		ldr	r3, [r7, #12]
 416 00d4 5A62     		str	r2, [r3, #36]
 417 00d6 FB68     		ldr	r3, [r7, #12]
 418 00d8 5B8D     		ldrh	r3, [r3, #42]
 419 00da 9BB2     		uxth	r3, r3
 420 00dc 013B     		subs	r3, r3, #1
 421 00de 9AB2     		uxth	r2, r3
 422 00e0 FB68     		ldr	r3, [r7, #12]
 423 00e2 5A85     		strh	r2, [r3, #42]
 424 00e4 FB68     		ldr	r3, [r7, #12]
 425 00e6 1B8D     		ldrh	r3, [r3, #40]
 426 00e8 013B     		subs	r3, r3, #1
 427 00ea 9AB2     		uxth	r2, r3
 428 00ec FB68     		ldr	r3, [r7, #12]
 429 00ee 1A85     		strh	r2, [r3, #40]
 430 00f0 FB68     		ldr	r3, [r7, #12]
 431 00f2 1B8D     		ldrh	r3, [r3, #40]
 432 00f4 DBB2     		uxtb	r3, r3
 433 00f6 0133     		adds	r3, r3, #1
 434 00f8 DAB2     		uxtb	r2, r3
 435 00fa 7C69     		ldr	r4, [r7, #20]
 436 00fc 0A23     		movs	r3, #10
 437 00fe FB18     		adds	r3, r7, r3
 438 0100 1988     		ldrh	r1, [r3]
 439 0102 F868     		ldr	r0, [r7, #12]
 440 0104 514B     		ldr	r3, .L32
 441 0106 0093     		str	r3, [sp]
 442 0108 2300     		movs	r3, r4
 443 010a FFF7FEFF 		bl	I2C_TransferConfig
 444 010e 6FE0     		b	.L25
 445              	.L23:
 446 0110 FB68     		ldr	r3, [r7, #12]
 447 0112 1B8D     		ldrh	r3, [r3, #40]
 448 0114 DAB2     		uxtb	r2, r3
 449 0116 7C69     		ldr	r4, [r7, #20]
 450 0118 0A23     		movs	r3, #10
 451 011a FB18     		adds	r3, r7, r3
 452 011c 1988     		ldrh	r1, [r3]
 453 011e F868     		ldr	r0, [r7, #12]
 454 0120 4A4B     		ldr	r3, .L32
 455 0122 0093     		str	r3, [sp]
 456 0124 2300     		movs	r3, r4
 457 0126 FFF7FEFF 		bl	I2C_TransferConfig
 458 012a 61E0     		b	.L25
 459              	.L30:
 460 012c 3A69     		ldr	r2, [r7, #16]
 461 012e B96A     		ldr	r1, [r7, #40]
 462 0130 FB68     		ldr	r3, [r7, #12]
 463 0132 1800     		movs	r0, r3
 464 0134 FFF7FEFF 		bl	I2C_WaitOnTXISFlagUntilTimeout
 465 0138 031E     		subs	r3, r0, #0
ARM GAS  /tmp/ccnCrYSN.s 			page 9


 466 013a 01D0     		beq	.L26
 467 013c 0123     		movs	r3, #1
 468 013e 81E0     		b	.L19
 469              	.L26:
 470 0140 FB68     		ldr	r3, [r7, #12]
 471 0142 5B6A     		ldr	r3, [r3, #36]
 472 0144 1A78     		ldrb	r2, [r3]
 473 0146 FB68     		ldr	r3, [r7, #12]
 474 0148 1B68     		ldr	r3, [r3]
 475 014a 9A62     		str	r2, [r3, #40]
 476 014c FB68     		ldr	r3, [r7, #12]
 477 014e 5B6A     		ldr	r3, [r3, #36]
 478 0150 5A1C     		adds	r2, r3, #1
 479 0152 FB68     		ldr	r3, [r7, #12]
 480 0154 5A62     		str	r2, [r3, #36]
 481 0156 FB68     		ldr	r3, [r7, #12]
 482 0158 5B8D     		ldrh	r3, [r3, #42]
 483 015a 9BB2     		uxth	r3, r3
 484 015c 013B     		subs	r3, r3, #1
 485 015e 9AB2     		uxth	r2, r3
 486 0160 FB68     		ldr	r3, [r7, #12]
 487 0162 5A85     		strh	r2, [r3, #42]
 488 0164 FB68     		ldr	r3, [r7, #12]
 489 0166 1B8D     		ldrh	r3, [r3, #40]
 490 0168 013B     		subs	r3, r3, #1
 491 016a 9AB2     		uxth	r2, r3
 492 016c FB68     		ldr	r3, [r7, #12]
 493 016e 1A85     		strh	r2, [r3, #40]
 494 0170 FB68     		ldr	r3, [r7, #12]
 495 0172 5B8D     		ldrh	r3, [r3, #42]
 496 0174 9BB2     		uxth	r3, r3
 497 0176 002B     		cmp	r3, #0
 498 0178 3AD0     		beq	.L25
 499 017a FB68     		ldr	r3, [r7, #12]
 500 017c 1B8D     		ldrh	r3, [r3, #40]
 501 017e 002B     		cmp	r3, #0
 502 0180 36D1     		bne	.L25
 503 0182 BA6A     		ldr	r2, [r7, #40]
 504 0184 F868     		ldr	r0, [r7, #12]
 505 0186 3B69     		ldr	r3, [r7, #16]
 506 0188 0093     		str	r3, [sp]
 507 018a 1300     		movs	r3, r2
 508 018c 0022     		movs	r2, #0
 509 018e 8021     		movs	r1, #128
 510 0190 FFF7FEFF 		bl	I2C_WaitOnFlagUntilTimeout
 511 0194 031E     		subs	r3, r0, #0
 512 0196 01D0     		beq	.L28
 513 0198 0123     		movs	r3, #1
 514 019a 53E0     		b	.L19
 515              	.L28:
 516 019c FB68     		ldr	r3, [r7, #12]
 517 019e 5B8D     		ldrh	r3, [r3, #42]
 518 01a0 9BB2     		uxth	r3, r3
 519 01a2 FF2B     		cmp	r3, #255
 520 01a4 11D9     		bls	.L29
 521 01a6 FB68     		ldr	r3, [r7, #12]
 522 01a8 FF22     		movs	r2, #255
ARM GAS  /tmp/ccnCrYSN.s 			page 10


 523 01aa 1A85     		strh	r2, [r3, #40]
 524 01ac FB68     		ldr	r3, [r7, #12]
 525 01ae 1B8D     		ldrh	r3, [r3, #40]
 526 01b0 DAB2     		uxtb	r2, r3
 527 01b2 8023     		movs	r3, #128
 528 01b4 5C04     		lsls	r4, r3, #17
 529 01b6 0A23     		movs	r3, #10
 530 01b8 FB18     		adds	r3, r7, r3
 531 01ba 1988     		ldrh	r1, [r3]
 532 01bc F868     		ldr	r0, [r7, #12]
 533 01be 0023     		movs	r3, #0
 534 01c0 0093     		str	r3, [sp]
 535 01c2 2300     		movs	r3, r4
 536 01c4 FFF7FEFF 		bl	I2C_TransferConfig
 537 01c8 12E0     		b	.L25
 538              	.L29:
 539 01ca FB68     		ldr	r3, [r7, #12]
 540 01cc 5B8D     		ldrh	r3, [r3, #42]
 541 01ce 9AB2     		uxth	r2, r3
 542 01d0 FB68     		ldr	r3, [r7, #12]
 543 01d2 1A85     		strh	r2, [r3, #40]
 544 01d4 FB68     		ldr	r3, [r7, #12]
 545 01d6 1B8D     		ldrh	r3, [r3, #40]
 546 01d8 DAB2     		uxtb	r2, r3
 547 01da 8023     		movs	r3, #128
 548 01dc 9C04     		lsls	r4, r3, #18
 549 01de 0A23     		movs	r3, #10
 550 01e0 FB18     		adds	r3, r7, r3
 551 01e2 1988     		ldrh	r1, [r3]
 552 01e4 F868     		ldr	r0, [r7, #12]
 553 01e6 0023     		movs	r3, #0
 554 01e8 0093     		str	r3, [sp]
 555 01ea 2300     		movs	r3, r4
 556 01ec FFF7FEFF 		bl	I2C_TransferConfig
 557              	.L25:
 558 01f0 FB68     		ldr	r3, [r7, #12]
 559 01f2 5B8D     		ldrh	r3, [r3, #42]
 560 01f4 9BB2     		uxth	r3, r3
 561 01f6 002B     		cmp	r3, #0
 562 01f8 98D1     		bne	.L30
 563 01fa 3A69     		ldr	r2, [r7, #16]
 564 01fc B96A     		ldr	r1, [r7, #40]
 565 01fe FB68     		ldr	r3, [r7, #12]
 566 0200 1800     		movs	r0, r3
 567 0202 FFF7FEFF 		bl	I2C_WaitOnSTOPFlagUntilTimeout
 568 0206 031E     		subs	r3, r0, #0
 569 0208 01D0     		beq	.L31
 570 020a 0123     		movs	r3, #1
 571 020c 1AE0     		b	.L19
 572              	.L31:
 573 020e FB68     		ldr	r3, [r7, #12]
 574 0210 1B68     		ldr	r3, [r3]
 575 0212 2022     		movs	r2, #32
 576 0214 DA61     		str	r2, [r3, #28]
 577 0216 FB68     		ldr	r3, [r7, #12]
 578 0218 1B68     		ldr	r3, [r3]
 579 021a 5A68     		ldr	r2, [r3, #4]
ARM GAS  /tmp/ccnCrYSN.s 			page 11


 580 021c FB68     		ldr	r3, [r7, #12]
 581 021e 1B68     		ldr	r3, [r3]
 582 0220 0B49     		ldr	r1, .L32+4
 583 0222 0A40     		ands	r2, r1
 584 0224 5A60     		str	r2, [r3, #4]
 585 0226 FB68     		ldr	r3, [r7, #12]
 586 0228 4122     		movs	r2, #65
 587 022a 2021     		movs	r1, #32
 588 022c 9954     		strb	r1, [r3, r2]
 589 022e FB68     		ldr	r3, [r7, #12]
 590 0230 4222     		movs	r2, #66
 591 0232 0021     		movs	r1, #0
 592 0234 9954     		strb	r1, [r3, r2]
 593 0236 FB68     		ldr	r3, [r7, #12]
 594 0238 4022     		movs	r2, #64
 595 023a 0021     		movs	r1, #0
 596 023c 9954     		strb	r1, [r3, r2]
 597 023e 0023     		movs	r3, #0
 598 0240 00E0     		b	.L19
 599              	.L17:
 600 0242 0223     		movs	r3, #2
 601              	.L19:
 602 0244 1800     		movs	r0, r3
 603 0246 BD46     		mov	sp, r7
 604 0248 07B0     		add	sp, sp, #28
 605              		@ sp needed
 606 024a 90BD     		pop	{r4, r7, pc}
 607              	.L33:
 608              		.align	2
 609              	.L32:
 610 024c 00200080 		.word	-2147475456
 611 0250 00E800FE 		.word	-33495040
 613              		.section	.text.HAL_I2C_Master_Receive,"ax",%progbits
 614              		.align	1
 615              		.global	HAL_I2C_Master_Receive
 616              		.syntax unified
 617              		.code	16
 618              		.thumb_func
 620              	HAL_I2C_Master_Receive:
 621              		@ args = 4, pretend = 0, frame = 24
 622              		@ frame_needed = 1, uses_anonymous_args = 0
 623 0000 90B5     		push	{r4, r7, lr}
 624 0002 89B0     		sub	sp, sp, #36
 625 0004 02AF     		add	r7, sp, #8
 626 0006 F860     		str	r0, [r7, #12]
 627 0008 0800     		movs	r0, r1
 628 000a 7A60     		str	r2, [r7, #4]
 629 000c 1900     		movs	r1, r3
 630 000e 0A23     		movs	r3, #10
 631 0010 FB18     		adds	r3, r7, r3
 632 0012 021C     		adds	r2, r0, #0
 633 0014 1A80     		strh	r2, [r3]
 634 0016 0823     		movs	r3, #8
 635 0018 FB18     		adds	r3, r7, r3
 636 001a 0A1C     		adds	r2, r1, #0
 637 001c 1A80     		strh	r2, [r3]
 638 001e FB68     		ldr	r3, [r7, #12]
ARM GAS  /tmp/ccnCrYSN.s 			page 12


 639 0020 4122     		movs	r2, #65
 640 0022 9B5C     		ldrb	r3, [r3, r2]
 641 0024 DBB2     		uxtb	r3, r3
 642 0026 202B     		cmp	r3, #32
 643 0028 00D0     		beq	.LCB661
 644 002a E8E0     		b	.L35	@long jump
 645              	.LCB661:
 646 002c FB68     		ldr	r3, [r7, #12]
 647 002e 4022     		movs	r2, #64
 648 0030 9B5C     		ldrb	r3, [r3, r2]
 649 0032 012B     		cmp	r3, #1
 650 0034 01D1     		bne	.L36
 651 0036 0223     		movs	r3, #2
 652 0038 E2E0     		b	.L37
 653              	.L36:
 654 003a FB68     		ldr	r3, [r7, #12]
 655 003c 4022     		movs	r2, #64
 656 003e 0121     		movs	r1, #1
 657 0040 9954     		strb	r1, [r3, r2]
 658 0042 FFF7FEFF 		bl	HAL_GetTick
 659 0046 0300     		movs	r3, r0
 660 0048 7B61     		str	r3, [r7, #20]
 661 004a 8023     		movs	r3, #128
 662 004c 1902     		lsls	r1, r3, #8
 663 004e F868     		ldr	r0, [r7, #12]
 664 0050 7B69     		ldr	r3, [r7, #20]
 665 0052 0093     		str	r3, [sp]
 666 0054 1923     		movs	r3, #25
 667 0056 0122     		movs	r2, #1
 668 0058 FFF7FEFF 		bl	I2C_WaitOnFlagUntilTimeout
 669 005c 031E     		subs	r3, r0, #0
 670 005e 01D0     		beq	.L38
 671 0060 0123     		movs	r3, #1
 672 0062 CDE0     		b	.L37
 673              	.L38:
 674 0064 FB68     		ldr	r3, [r7, #12]
 675 0066 4122     		movs	r2, #65
 676 0068 2221     		movs	r1, #34
 677 006a 9954     		strb	r1, [r3, r2]
 678 006c FB68     		ldr	r3, [r7, #12]
 679 006e 4222     		movs	r2, #66
 680 0070 1021     		movs	r1, #16
 681 0072 9954     		strb	r1, [r3, r2]
 682 0074 FB68     		ldr	r3, [r7, #12]
 683 0076 0022     		movs	r2, #0
 684 0078 5A64     		str	r2, [r3, #68]
 685 007a FB68     		ldr	r3, [r7, #12]
 686 007c 7A68     		ldr	r2, [r7, #4]
 687 007e 5A62     		str	r2, [r3, #36]
 688 0080 FB68     		ldr	r3, [r7, #12]
 689 0082 0822     		movs	r2, #8
 690 0084 BA18     		adds	r2, r7, r2
 691 0086 1288     		ldrh	r2, [r2]
 692 0088 5A85     		strh	r2, [r3, #42]
 693 008a FB68     		ldr	r3, [r7, #12]
 694 008c 0022     		movs	r2, #0
 695 008e 5A63     		str	r2, [r3, #52]
ARM GAS  /tmp/ccnCrYSN.s 			page 13


 696 0090 FB68     		ldr	r3, [r7, #12]
 697 0092 5B8D     		ldrh	r3, [r3, #42]
 698 0094 9BB2     		uxth	r3, r3
 699 0096 FF2B     		cmp	r3, #255
 700 0098 11D9     		bls	.L39
 701 009a FB68     		ldr	r3, [r7, #12]
 702 009c 0122     		movs	r2, #1
 703 009e 1A85     		strh	r2, [r3, #40]
 704 00a0 FB68     		ldr	r3, [r7, #12]
 705 00a2 1B8D     		ldrh	r3, [r3, #40]
 706 00a4 DAB2     		uxtb	r2, r3
 707 00a6 8023     		movs	r3, #128
 708 00a8 5C04     		lsls	r4, r3, #17
 709 00aa 0A23     		movs	r3, #10
 710 00ac FB18     		adds	r3, r7, r3
 711 00ae 1988     		ldrh	r1, [r3]
 712 00b0 F868     		ldr	r0, [r7, #12]
 713 00b2 554B     		ldr	r3, .L48
 714 00b4 0093     		str	r3, [sp]
 715 00b6 2300     		movs	r3, r4
 716 00b8 FFF7FEFF 		bl	I2C_TransferConfig
 717 00bc 76E0     		b	.L41
 718              	.L39:
 719 00be FB68     		ldr	r3, [r7, #12]
 720 00c0 5B8D     		ldrh	r3, [r3, #42]
 721 00c2 9AB2     		uxth	r2, r3
 722 00c4 FB68     		ldr	r3, [r7, #12]
 723 00c6 1A85     		strh	r2, [r3, #40]
 724 00c8 FB68     		ldr	r3, [r7, #12]
 725 00ca 1B8D     		ldrh	r3, [r3, #40]
 726 00cc DAB2     		uxtb	r2, r3
 727 00ce 8023     		movs	r3, #128
 728 00d0 9C04     		lsls	r4, r3, #18
 729 00d2 0A23     		movs	r3, #10
 730 00d4 FB18     		adds	r3, r7, r3
 731 00d6 1988     		ldrh	r1, [r3]
 732 00d8 F868     		ldr	r0, [r7, #12]
 733 00da 4B4B     		ldr	r3, .L48
 734 00dc 0093     		str	r3, [sp]
 735 00de 2300     		movs	r3, r4
 736 00e0 FFF7FEFF 		bl	I2C_TransferConfig
 737 00e4 62E0     		b	.L41
 738              	.L46:
 739 00e6 7A69     		ldr	r2, [r7, #20]
 740 00e8 B96A     		ldr	r1, [r7, #40]
 741 00ea FB68     		ldr	r3, [r7, #12]
 742 00ec 1800     		movs	r0, r3
 743 00ee FFF7FEFF 		bl	I2C_WaitOnRXNEFlagUntilTimeout
 744 00f2 031E     		subs	r3, r0, #0
 745 00f4 01D0     		beq	.L42
 746 00f6 0123     		movs	r3, #1
 747 00f8 82E0     		b	.L37
 748              	.L42:
 749 00fa FB68     		ldr	r3, [r7, #12]
 750 00fc 1B68     		ldr	r3, [r3]
 751 00fe 5A6A     		ldr	r2, [r3, #36]
 752 0100 FB68     		ldr	r3, [r7, #12]
ARM GAS  /tmp/ccnCrYSN.s 			page 14


 753 0102 5B6A     		ldr	r3, [r3, #36]
 754 0104 D2B2     		uxtb	r2, r2
 755 0106 1A70     		strb	r2, [r3]
 756 0108 FB68     		ldr	r3, [r7, #12]
 757 010a 5B6A     		ldr	r3, [r3, #36]
 758 010c 5A1C     		adds	r2, r3, #1
 759 010e FB68     		ldr	r3, [r7, #12]
 760 0110 5A62     		str	r2, [r3, #36]
 761 0112 FB68     		ldr	r3, [r7, #12]
 762 0114 1B8D     		ldrh	r3, [r3, #40]
 763 0116 013B     		subs	r3, r3, #1
 764 0118 9AB2     		uxth	r2, r3
 765 011a FB68     		ldr	r3, [r7, #12]
 766 011c 1A85     		strh	r2, [r3, #40]
 767 011e FB68     		ldr	r3, [r7, #12]
 768 0120 5B8D     		ldrh	r3, [r3, #42]
 769 0122 9BB2     		uxth	r3, r3
 770 0124 013B     		subs	r3, r3, #1
 771 0126 9AB2     		uxth	r2, r3
 772 0128 FB68     		ldr	r3, [r7, #12]
 773 012a 5A85     		strh	r2, [r3, #42]
 774 012c FB68     		ldr	r3, [r7, #12]
 775 012e 5B8D     		ldrh	r3, [r3, #42]
 776 0130 9BB2     		uxth	r3, r3
 777 0132 002B     		cmp	r3, #0
 778 0134 3AD0     		beq	.L41
 779 0136 FB68     		ldr	r3, [r7, #12]
 780 0138 1B8D     		ldrh	r3, [r3, #40]
 781 013a 002B     		cmp	r3, #0
 782 013c 36D1     		bne	.L41
 783 013e BA6A     		ldr	r2, [r7, #40]
 784 0140 F868     		ldr	r0, [r7, #12]
 785 0142 7B69     		ldr	r3, [r7, #20]
 786 0144 0093     		str	r3, [sp]
 787 0146 1300     		movs	r3, r2
 788 0148 0022     		movs	r2, #0
 789 014a 8021     		movs	r1, #128
 790 014c FFF7FEFF 		bl	I2C_WaitOnFlagUntilTimeout
 791 0150 031E     		subs	r3, r0, #0
 792 0152 01D0     		beq	.L44
 793 0154 0123     		movs	r3, #1
 794 0156 53E0     		b	.L37
 795              	.L44:
 796 0158 FB68     		ldr	r3, [r7, #12]
 797 015a 5B8D     		ldrh	r3, [r3, #42]
 798 015c 9BB2     		uxth	r3, r3
 799 015e FF2B     		cmp	r3, #255
 800 0160 11D9     		bls	.L45
 801 0162 FB68     		ldr	r3, [r7, #12]
 802 0164 FF22     		movs	r2, #255
 803 0166 1A85     		strh	r2, [r3, #40]
 804 0168 FB68     		ldr	r3, [r7, #12]
 805 016a 1B8D     		ldrh	r3, [r3, #40]
 806 016c DAB2     		uxtb	r2, r3
 807 016e 8023     		movs	r3, #128
 808 0170 5C04     		lsls	r4, r3, #17
 809 0172 0A23     		movs	r3, #10
ARM GAS  /tmp/ccnCrYSN.s 			page 15


 810 0174 FB18     		adds	r3, r7, r3
 811 0176 1988     		ldrh	r1, [r3]
 812 0178 F868     		ldr	r0, [r7, #12]
 813 017a 0023     		movs	r3, #0
 814 017c 0093     		str	r3, [sp]
 815 017e 2300     		movs	r3, r4
 816 0180 FFF7FEFF 		bl	I2C_TransferConfig
 817 0184 12E0     		b	.L41
 818              	.L45:
 819 0186 FB68     		ldr	r3, [r7, #12]
 820 0188 5B8D     		ldrh	r3, [r3, #42]
 821 018a 9AB2     		uxth	r2, r3
 822 018c FB68     		ldr	r3, [r7, #12]
 823 018e 1A85     		strh	r2, [r3, #40]
 824 0190 FB68     		ldr	r3, [r7, #12]
 825 0192 1B8D     		ldrh	r3, [r3, #40]
 826 0194 DAB2     		uxtb	r2, r3
 827 0196 8023     		movs	r3, #128
 828 0198 9C04     		lsls	r4, r3, #18
 829 019a 0A23     		movs	r3, #10
 830 019c FB18     		adds	r3, r7, r3
 831 019e 1988     		ldrh	r1, [r3]
 832 01a0 F868     		ldr	r0, [r7, #12]
 833 01a2 0023     		movs	r3, #0
 834 01a4 0093     		str	r3, [sp]
 835 01a6 2300     		movs	r3, r4
 836 01a8 FFF7FEFF 		bl	I2C_TransferConfig
 837              	.L41:
 838 01ac FB68     		ldr	r3, [r7, #12]
 839 01ae 5B8D     		ldrh	r3, [r3, #42]
 840 01b0 9BB2     		uxth	r3, r3
 841 01b2 002B     		cmp	r3, #0
 842 01b4 97D1     		bne	.L46
 843 01b6 7A69     		ldr	r2, [r7, #20]
 844 01b8 B96A     		ldr	r1, [r7, #40]
 845 01ba FB68     		ldr	r3, [r7, #12]
 846 01bc 1800     		movs	r0, r3
 847 01be FFF7FEFF 		bl	I2C_WaitOnSTOPFlagUntilTimeout
 848 01c2 031E     		subs	r3, r0, #0
 849 01c4 01D0     		beq	.L47
 850 01c6 0123     		movs	r3, #1
 851 01c8 1AE0     		b	.L37
 852              	.L47:
 853 01ca FB68     		ldr	r3, [r7, #12]
 854 01cc 1B68     		ldr	r3, [r3]
 855 01ce 2022     		movs	r2, #32
 856 01d0 DA61     		str	r2, [r3, #28]
 857 01d2 FB68     		ldr	r3, [r7, #12]
 858 01d4 1B68     		ldr	r3, [r3]
 859 01d6 5A68     		ldr	r2, [r3, #4]
 860 01d8 FB68     		ldr	r3, [r7, #12]
 861 01da 1B68     		ldr	r3, [r3]
 862 01dc 0B49     		ldr	r1, .L48+4
 863 01de 0A40     		ands	r2, r1
 864 01e0 5A60     		str	r2, [r3, #4]
 865 01e2 FB68     		ldr	r3, [r7, #12]
 866 01e4 4122     		movs	r2, #65
ARM GAS  /tmp/ccnCrYSN.s 			page 16


 867 01e6 2021     		movs	r1, #32
 868 01e8 9954     		strb	r1, [r3, r2]
 869 01ea FB68     		ldr	r3, [r7, #12]
 870 01ec 4222     		movs	r2, #66
 871 01ee 0021     		movs	r1, #0
 872 01f0 9954     		strb	r1, [r3, r2]
 873 01f2 FB68     		ldr	r3, [r7, #12]
 874 01f4 4022     		movs	r2, #64
 875 01f6 0021     		movs	r1, #0
 876 01f8 9954     		strb	r1, [r3, r2]
 877 01fa 0023     		movs	r3, #0
 878 01fc 00E0     		b	.L37
 879              	.L35:
 880 01fe 0223     		movs	r3, #2
 881              	.L37:
 882 0200 1800     		movs	r0, r3
 883 0202 BD46     		mov	sp, r7
 884 0204 07B0     		add	sp, sp, #28
 885              		@ sp needed
 886 0206 90BD     		pop	{r4, r7, pc}
 887              	.L49:
 888              		.align	2
 889              	.L48:
 890 0208 00240080 		.word	-2147474432
 891 020c 00E800FE 		.word	-33495040
 893              		.section	.text.HAL_I2C_Slave_Transmit,"ax",%progbits
 894              		.align	1
 895              		.global	HAL_I2C_Slave_Transmit
 896              		.syntax unified
 897              		.code	16
 898              		.thumb_func
 900              	HAL_I2C_Slave_Transmit:
 901              		@ args = 0, pretend = 0, frame = 24
 902              		@ frame_needed = 1, uses_anonymous_args = 0
 903 0000 B0B5     		push	{r4, r5, r7, lr}
 904 0002 88B0     		sub	sp, sp, #32
 905 0004 02AF     		add	r7, sp, #8
 906 0006 F860     		str	r0, [r7, #12]
 907 0008 B960     		str	r1, [r7, #8]
 908 000a 3B60     		str	r3, [r7]
 909 000c BB1D     		adds	r3, r7, #6
 910 000e 1A80     		strh	r2, [r3]
 911 0010 FB68     		ldr	r3, [r7, #12]
 912 0012 4122     		movs	r2, #65
 913 0014 9B5C     		ldrb	r3, [r3, r2]
 914 0016 DBB2     		uxtb	r3, r3
 915 0018 202B     		cmp	r3, #32
 916 001a 00D0     		beq	.LCB958
 917 001c 4FE1     		b	.L51	@long jump
 918              	.LCB958:
 919 001e BB68     		ldr	r3, [r7, #8]
 920 0020 002B     		cmp	r3, #0
 921 0022 03D0     		beq	.L52
 922 0024 BB1D     		adds	r3, r7, #6
 923 0026 1B88     		ldrh	r3, [r3]
 924 0028 002B     		cmp	r3, #0
 925 002a 05D1     		bne	.L53
ARM GAS  /tmp/ccnCrYSN.s 			page 17


 926              	.L52:
 927 002c FB68     		ldr	r3, [r7, #12]
 928 002e 8022     		movs	r2, #128
 929 0030 9200     		lsls	r2, r2, #2
 930 0032 5A64     		str	r2, [r3, #68]
 931 0034 0123     		movs	r3, #1
 932 0036 43E1     		b	.L54
 933              	.L53:
 934 0038 FB68     		ldr	r3, [r7, #12]
 935 003a 4022     		movs	r2, #64
 936 003c 9B5C     		ldrb	r3, [r3, r2]
 937 003e 012B     		cmp	r3, #1
 938 0040 01D1     		bne	.L55
 939 0042 0223     		movs	r3, #2
 940 0044 3CE1     		b	.L54
 941              	.L55:
 942 0046 FB68     		ldr	r3, [r7, #12]
 943 0048 4022     		movs	r2, #64
 944 004a 0121     		movs	r1, #1
 945 004c 9954     		strb	r1, [r3, r2]
 946 004e FFF7FEFF 		bl	HAL_GetTick
 947 0052 0300     		movs	r3, r0
 948 0054 7B61     		str	r3, [r7, #20]
 949 0056 FB68     		ldr	r3, [r7, #12]
 950 0058 4122     		movs	r2, #65
 951 005a 2121     		movs	r1, #33
 952 005c 9954     		strb	r1, [r3, r2]
 953 005e FB68     		ldr	r3, [r7, #12]
 954 0060 4222     		movs	r2, #66
 955 0062 2021     		movs	r1, #32
 956 0064 9954     		strb	r1, [r3, r2]
 957 0066 FB68     		ldr	r3, [r7, #12]
 958 0068 0022     		movs	r2, #0
 959 006a 5A64     		str	r2, [r3, #68]
 960 006c FB68     		ldr	r3, [r7, #12]
 961 006e BA68     		ldr	r2, [r7, #8]
 962 0070 5A62     		str	r2, [r3, #36]
 963 0072 FB68     		ldr	r3, [r7, #12]
 964 0074 BA1D     		adds	r2, r7, #6
 965 0076 1288     		ldrh	r2, [r2]
 966 0078 5A85     		strh	r2, [r3, #42]
 967 007a FB68     		ldr	r3, [r7, #12]
 968 007c 0022     		movs	r2, #0
 969 007e 5A63     		str	r2, [r3, #52]
 970 0080 FB68     		ldr	r3, [r7, #12]
 971 0082 1B68     		ldr	r3, [r3]
 972 0084 5A68     		ldr	r2, [r3, #4]
 973 0086 FB68     		ldr	r3, [r7, #12]
 974 0088 1B68     		ldr	r3, [r3]
 975 008a 8F49     		ldr	r1, .L69
 976 008c 0A40     		ands	r2, r1
 977 008e 5A60     		str	r2, [r3, #4]
 978 0090 FB68     		ldr	r3, [r7, #12]
 979 0092 1A6A     		ldr	r2, [r3, #32]
 980 0094 8023     		movs	r3, #128
 981 0096 9B02     		lsls	r3, r3, #10
 982 0098 9A42     		cmp	r2, r3
ARM GAS  /tmp/ccnCrYSN.s 			page 18


 983 009a 11D1     		bne	.L56
 984 009c FB68     		ldr	r3, [r7, #12]
 985 009e 5B6A     		ldr	r3, [r3, #36]
 986 00a0 1A78     		ldrb	r2, [r3]
 987 00a2 FB68     		ldr	r3, [r7, #12]
 988 00a4 1B68     		ldr	r3, [r3]
 989 00a6 9A62     		str	r2, [r3, #40]
 990 00a8 FB68     		ldr	r3, [r7, #12]
 991 00aa 5B6A     		ldr	r3, [r3, #36]
 992 00ac 5A1C     		adds	r2, r3, #1
 993 00ae FB68     		ldr	r3, [r7, #12]
 994 00b0 5A62     		str	r2, [r3, #36]
 995 00b2 FB68     		ldr	r3, [r7, #12]
 996 00b4 5B8D     		ldrh	r3, [r3, #42]
 997 00b6 9BB2     		uxth	r3, r3
 998 00b8 013B     		subs	r3, r3, #1
 999 00ba 9AB2     		uxth	r2, r3
 1000 00bc FB68     		ldr	r3, [r7, #12]
 1001 00be 5A85     		strh	r2, [r3, #42]
 1002              	.L56:
 1003 00c0 3A68     		ldr	r2, [r7]
 1004 00c2 F868     		ldr	r0, [r7, #12]
 1005 00c4 7B69     		ldr	r3, [r7, #20]
 1006 00c6 0093     		str	r3, [sp]
 1007 00c8 1300     		movs	r3, r2
 1008 00ca 0022     		movs	r2, #0
 1009 00cc 0821     		movs	r1, #8
 1010 00ce FFF7FEFF 		bl	I2C_WaitOnFlagUntilTimeout
 1011 00d2 031E     		subs	r3, r0, #0
 1012 00d4 0ED0     		beq	.L57
 1013 00d6 FB68     		ldr	r3, [r7, #12]
 1014 00d8 1B68     		ldr	r3, [r3]
 1015 00da 5A68     		ldr	r2, [r3, #4]
 1016 00dc FB68     		ldr	r3, [r7, #12]
 1017 00de 1B68     		ldr	r3, [r3]
 1018 00e0 8021     		movs	r1, #128
 1019 00e2 0902     		lsls	r1, r1, #8
 1020 00e4 0A43     		orrs	r2, r1
 1021 00e6 5A60     		str	r2, [r3, #4]
 1022 00e8 FB68     		ldr	r3, [r7, #12]
 1023 00ea 1800     		movs	r0, r3
 1024 00ec FFF7FEFF 		bl	I2C_Flush_TXDR
 1025 00f0 0123     		movs	r3, #1
 1026 00f2 E5E0     		b	.L54
 1027              	.L57:
 1028 00f4 FB68     		ldr	r3, [r7, #12]
 1029 00f6 1B68     		ldr	r3, [r3]
 1030 00f8 0822     		movs	r2, #8
 1031 00fa DA61     		str	r2, [r3, #28]
 1032 00fc FB68     		ldr	r3, [r7, #12]
 1033 00fe DB68     		ldr	r3, [r3, #12]
 1034 0100 022B     		cmp	r3, #2
 1035 0102 1DD1     		bne	.L58
 1036 0104 3A68     		ldr	r2, [r7]
 1037 0106 F868     		ldr	r0, [r7, #12]
 1038 0108 7B69     		ldr	r3, [r7, #20]
 1039 010a 0093     		str	r3, [sp]
ARM GAS  /tmp/ccnCrYSN.s 			page 19


 1040 010c 1300     		movs	r3, r2
 1041 010e 0022     		movs	r2, #0
 1042 0110 0821     		movs	r1, #8
 1043 0112 FFF7FEFF 		bl	I2C_WaitOnFlagUntilTimeout
 1044 0116 031E     		subs	r3, r0, #0
 1045 0118 0ED0     		beq	.L59
 1046 011a FB68     		ldr	r3, [r7, #12]
 1047 011c 1B68     		ldr	r3, [r3]
 1048 011e 5A68     		ldr	r2, [r3, #4]
 1049 0120 FB68     		ldr	r3, [r7, #12]
 1050 0122 1B68     		ldr	r3, [r3]
 1051 0124 8021     		movs	r1, #128
 1052 0126 0902     		lsls	r1, r1, #8
 1053 0128 0A43     		orrs	r2, r1
 1054 012a 5A60     		str	r2, [r3, #4]
 1055 012c FB68     		ldr	r3, [r7, #12]
 1056 012e 1800     		movs	r0, r3
 1057 0130 FFF7FEFF 		bl	I2C_Flush_TXDR
 1058 0134 0123     		movs	r3, #1
 1059 0136 C3E0     		b	.L54
 1060              	.L59:
 1061 0138 FB68     		ldr	r3, [r7, #12]
 1062 013a 1B68     		ldr	r3, [r3]
 1063 013c 0822     		movs	r2, #8
 1064 013e DA61     		str	r2, [r3, #28]
 1065              	.L58:
 1066 0140 3A68     		ldr	r2, [r7]
 1067 0142 8023     		movs	r3, #128
 1068 0144 5902     		lsls	r1, r3, #9
 1069 0146 F868     		ldr	r0, [r7, #12]
 1070 0148 7B69     		ldr	r3, [r7, #20]
 1071 014a 0093     		str	r3, [sp]
 1072 014c 1300     		movs	r3, r2
 1073 014e 0022     		movs	r2, #0
 1074 0150 FFF7FEFF 		bl	I2C_WaitOnFlagUntilTimeout
 1075 0154 031E     		subs	r3, r0, #0
 1076 0156 33D0     		beq	.L61
 1077 0158 FB68     		ldr	r3, [r7, #12]
 1078 015a 1B68     		ldr	r3, [r3]
 1079 015c 5A68     		ldr	r2, [r3, #4]
 1080 015e FB68     		ldr	r3, [r7, #12]
 1081 0160 1B68     		ldr	r3, [r3]
 1082 0162 8021     		movs	r1, #128
 1083 0164 0902     		lsls	r1, r1, #8
 1084 0166 0A43     		orrs	r2, r1
 1085 0168 5A60     		str	r2, [r3, #4]
 1086 016a FB68     		ldr	r3, [r7, #12]
 1087 016c 1800     		movs	r0, r3
 1088 016e FFF7FEFF 		bl	I2C_Flush_TXDR
 1089 0172 0123     		movs	r3, #1
 1090 0174 A4E0     		b	.L54
 1091              	.L63:
 1092 0176 7A69     		ldr	r2, [r7, #20]
 1093 0178 3968     		ldr	r1, [r7]
 1094 017a FB68     		ldr	r3, [r7, #12]
 1095 017c 1800     		movs	r0, r3
 1096 017e FFF7FEFF 		bl	I2C_WaitOnTXISFlagUntilTimeout
ARM GAS  /tmp/ccnCrYSN.s 			page 20


 1097 0182 031E     		subs	r3, r0, #0
 1098 0184 0AD0     		beq	.L62
 1099 0186 FB68     		ldr	r3, [r7, #12]
 1100 0188 1B68     		ldr	r3, [r3]
 1101 018a 5A68     		ldr	r2, [r3, #4]
 1102 018c FB68     		ldr	r3, [r7, #12]
 1103 018e 1B68     		ldr	r3, [r3]
 1104 0190 8021     		movs	r1, #128
 1105 0192 0902     		lsls	r1, r1, #8
 1106 0194 0A43     		orrs	r2, r1
 1107 0196 5A60     		str	r2, [r3, #4]
 1108 0198 0123     		movs	r3, #1
 1109 019a 91E0     		b	.L54
 1110              	.L62:
 1111 019c FB68     		ldr	r3, [r7, #12]
 1112 019e 5B6A     		ldr	r3, [r3, #36]
 1113 01a0 1A78     		ldrb	r2, [r3]
 1114 01a2 FB68     		ldr	r3, [r7, #12]
 1115 01a4 1B68     		ldr	r3, [r3]
 1116 01a6 9A62     		str	r2, [r3, #40]
 1117 01a8 FB68     		ldr	r3, [r7, #12]
 1118 01aa 5B6A     		ldr	r3, [r3, #36]
 1119 01ac 5A1C     		adds	r2, r3, #1
 1120 01ae FB68     		ldr	r3, [r7, #12]
 1121 01b0 5A62     		str	r2, [r3, #36]
 1122 01b2 FB68     		ldr	r3, [r7, #12]
 1123 01b4 5B8D     		ldrh	r3, [r3, #42]
 1124 01b6 9BB2     		uxth	r3, r3
 1125 01b8 013B     		subs	r3, r3, #1
 1126 01ba 9AB2     		uxth	r2, r3
 1127 01bc FB68     		ldr	r3, [r7, #12]
 1128 01be 5A85     		strh	r2, [r3, #42]
 1129              	.L61:
 1130 01c0 FB68     		ldr	r3, [r7, #12]
 1131 01c2 5B8D     		ldrh	r3, [r3, #42]
 1132 01c4 9BB2     		uxth	r3, r3
 1133 01c6 002B     		cmp	r3, #0
 1134 01c8 D5D1     		bne	.L63
 1135 01ca 1325     		movs	r5, #19
 1136 01cc 7C19     		adds	r4, r7, r5
 1137 01ce 3A68     		ldr	r2, [r7]
 1138 01d0 F868     		ldr	r0, [r7, #12]
 1139 01d2 7B69     		ldr	r3, [r7, #20]
 1140 01d4 0093     		str	r3, [sp]
 1141 01d6 1300     		movs	r3, r2
 1142 01d8 0022     		movs	r2, #0
 1143 01da 1021     		movs	r1, #16
 1144 01dc FFF7FEFF 		bl	I2C_WaitOnFlagUntilTimeout
 1145 01e0 0300     		movs	r3, r0
 1146 01e2 2370     		strb	r3, [r4]
 1147 01e4 7B19     		adds	r3, r7, r5
 1148 01e6 1B78     		ldrb	r3, [r3]
 1149 01e8 002B     		cmp	r3, #0
 1150 01ea 1BD0     		beq	.L64
 1151 01ec 1021     		movs	r1, #16
 1152 01ee 7B18     		adds	r3, r7, r1
 1153 01f0 FA68     		ldr	r2, [r7, #12]
ARM GAS  /tmp/ccnCrYSN.s 			page 21


 1154 01f2 528D     		ldrh	r2, [r2, #42]
 1155 01f4 1A80     		strh	r2, [r3]
 1156 01f6 FB68     		ldr	r3, [r7, #12]
 1157 01f8 5B6C     		ldr	r3, [r3, #68]
 1158 01fa 042B     		cmp	r3, #4
 1159 01fc 07D1     		bne	.L65
 1160 01fe 7B18     		adds	r3, r7, r1
 1161 0200 1B88     		ldrh	r3, [r3]
 1162 0202 002B     		cmp	r3, #0
 1163 0204 03D1     		bne	.L65
 1164 0206 FB68     		ldr	r3, [r7, #12]
 1165 0208 0022     		movs	r2, #0
 1166 020a 5A64     		str	r2, [r3, #68]
 1167 020c 29E0     		b	.L66
 1168              	.L65:
 1169 020e FB68     		ldr	r3, [r7, #12]
 1170 0210 1B68     		ldr	r3, [r3]
 1171 0212 5A68     		ldr	r2, [r3, #4]
 1172 0214 FB68     		ldr	r3, [r7, #12]
 1173 0216 1B68     		ldr	r3, [r3]
 1174 0218 8021     		movs	r1, #128
 1175 021a 0902     		lsls	r1, r1, #8
 1176 021c 0A43     		orrs	r2, r1
 1177 021e 5A60     		str	r2, [r3, #4]
 1178 0220 0123     		movs	r3, #1
 1179 0222 4DE0     		b	.L54
 1180              	.L64:
 1181 0224 FB68     		ldr	r3, [r7, #12]
 1182 0226 1800     		movs	r0, r3
 1183 0228 FFF7FEFF 		bl	I2C_Flush_TXDR
 1184 022c FB68     		ldr	r3, [r7, #12]
 1185 022e 1B68     		ldr	r3, [r3]
 1186 0230 1022     		movs	r2, #16
 1187 0232 DA61     		str	r2, [r3, #28]
 1188 0234 7A69     		ldr	r2, [r7, #20]
 1189 0236 3968     		ldr	r1, [r7]
 1190 0238 FB68     		ldr	r3, [r7, #12]
 1191 023a 1800     		movs	r0, r3
 1192 023c FFF7FEFF 		bl	I2C_WaitOnSTOPFlagUntilTimeout
 1193 0240 031E     		subs	r3, r0, #0
 1194 0242 0AD0     		beq	.L67
 1195 0244 FB68     		ldr	r3, [r7, #12]
 1196 0246 1B68     		ldr	r3, [r3]
 1197 0248 5A68     		ldr	r2, [r3, #4]
 1198 024a FB68     		ldr	r3, [r7, #12]
 1199 024c 1B68     		ldr	r3, [r3]
 1200 024e 8021     		movs	r1, #128
 1201 0250 0902     		lsls	r1, r1, #8
 1202 0252 0A43     		orrs	r2, r1
 1203 0254 5A60     		str	r2, [r3, #4]
 1204 0256 0123     		movs	r3, #1
 1205 0258 32E0     		b	.L54
 1206              	.L67:
 1207 025a FB68     		ldr	r3, [r7, #12]
 1208 025c 1B68     		ldr	r3, [r3]
 1209 025e 2022     		movs	r2, #32
 1210 0260 DA61     		str	r2, [r3, #28]
ARM GAS  /tmp/ccnCrYSN.s 			page 22


 1211              	.L66:
 1212 0262 3A68     		ldr	r2, [r7]
 1213 0264 8023     		movs	r3, #128
 1214 0266 1902     		lsls	r1, r3, #8
 1215 0268 F868     		ldr	r0, [r7, #12]
 1216 026a 7B69     		ldr	r3, [r7, #20]
 1217 026c 0093     		str	r3, [sp]
 1218 026e 1300     		movs	r3, r2
 1219 0270 0122     		movs	r2, #1
 1220 0272 FFF7FEFF 		bl	I2C_WaitOnFlagUntilTimeout
 1221 0276 031E     		subs	r3, r0, #0
 1222 0278 0AD0     		beq	.L68
 1223 027a FB68     		ldr	r3, [r7, #12]
 1224 027c 1B68     		ldr	r3, [r3]
 1225 027e 5A68     		ldr	r2, [r3, #4]
 1226 0280 FB68     		ldr	r3, [r7, #12]
 1227 0282 1B68     		ldr	r3, [r3]
 1228 0284 8021     		movs	r1, #128
 1229 0286 0902     		lsls	r1, r1, #8
 1230 0288 0A43     		orrs	r2, r1
 1231 028a 5A60     		str	r2, [r3, #4]
 1232 028c 0123     		movs	r3, #1
 1233 028e 17E0     		b	.L54
 1234              	.L68:
 1235 0290 FB68     		ldr	r3, [r7, #12]
 1236 0292 1B68     		ldr	r3, [r3]
 1237 0294 5A68     		ldr	r2, [r3, #4]
 1238 0296 FB68     		ldr	r3, [r7, #12]
 1239 0298 1B68     		ldr	r3, [r3]
 1240 029a 8021     		movs	r1, #128
 1241 029c 0902     		lsls	r1, r1, #8
 1242 029e 0A43     		orrs	r2, r1
 1243 02a0 5A60     		str	r2, [r3, #4]
 1244 02a2 FB68     		ldr	r3, [r7, #12]
 1245 02a4 4122     		movs	r2, #65
 1246 02a6 2021     		movs	r1, #32
 1247 02a8 9954     		strb	r1, [r3, r2]
 1248 02aa FB68     		ldr	r3, [r7, #12]
 1249 02ac 4222     		movs	r2, #66
 1250 02ae 0021     		movs	r1, #0
 1251 02b0 9954     		strb	r1, [r3, r2]
 1252 02b2 FB68     		ldr	r3, [r7, #12]
 1253 02b4 4022     		movs	r2, #64
 1254 02b6 0021     		movs	r1, #0
 1255 02b8 9954     		strb	r1, [r3, r2]
 1256 02ba 0023     		movs	r3, #0
 1257 02bc 00E0     		b	.L54
 1258              	.L51:
 1259 02be 0223     		movs	r3, #2
 1260              	.L54:
 1261 02c0 1800     		movs	r0, r3
 1262 02c2 BD46     		mov	sp, r7
 1263 02c4 06B0     		add	sp, sp, #24
 1264              		@ sp needed
 1265 02c6 B0BD     		pop	{r4, r5, r7, pc}
 1266              	.L70:
 1267              		.align	2
ARM GAS  /tmp/ccnCrYSN.s 			page 23


 1268              	.L69:
 1269 02c8 FF7FFFFF 		.word	-32769
 1271              		.section	.text.HAL_I2C_Slave_Receive,"ax",%progbits
 1272              		.align	1
 1273              		.global	HAL_I2C_Slave_Receive
 1274              		.syntax unified
 1275              		.code	16
 1276              		.thumb_func
 1278              	HAL_I2C_Slave_Receive:
 1279              		@ args = 0, pretend = 0, frame = 24
 1280              		@ frame_needed = 1, uses_anonymous_args = 0
 1281 0000 80B5     		push	{r7, lr}
 1282 0002 88B0     		sub	sp, sp, #32
 1283 0004 02AF     		add	r7, sp, #8
 1284 0006 F860     		str	r0, [r7, #12]
 1285 0008 B960     		str	r1, [r7, #8]
 1286 000a 3B60     		str	r3, [r7]
 1287 000c BB1D     		adds	r3, r7, #6
 1288 000e 1A80     		strh	r2, [r3]
 1289 0010 FB68     		ldr	r3, [r7, #12]
 1290 0012 4122     		movs	r2, #65
 1291 0014 9B5C     		ldrb	r3, [r3, r2]
 1292 0016 DBB2     		uxtb	r3, r3
 1293 0018 202B     		cmp	r3, #32
 1294 001a 00D0     		beq	.LCB1372
 1295 001c 04E1     		b	.L72	@long jump
 1296              	.LCB1372:
 1297 001e BB68     		ldr	r3, [r7, #8]
 1298 0020 002B     		cmp	r3, #0
 1299 0022 03D0     		beq	.L73
 1300 0024 BB1D     		adds	r3, r7, #6
 1301 0026 1B88     		ldrh	r3, [r3]
 1302 0028 002B     		cmp	r3, #0
 1303 002a 05D1     		bne	.L74
 1304              	.L73:
 1305 002c FB68     		ldr	r3, [r7, #12]
 1306 002e 8022     		movs	r2, #128
 1307 0030 9200     		lsls	r2, r2, #2
 1308 0032 5A64     		str	r2, [r3, #68]
 1309 0034 0123     		movs	r3, #1
 1310 0036 F8E0     		b	.L75
 1311              	.L74:
 1312 0038 FB68     		ldr	r3, [r7, #12]
 1313 003a 4022     		movs	r2, #64
 1314 003c 9B5C     		ldrb	r3, [r3, r2]
 1315 003e 012B     		cmp	r3, #1
 1316 0040 01D1     		bne	.L76
 1317 0042 0223     		movs	r3, #2
 1318 0044 F1E0     		b	.L75
 1319              	.L76:
 1320 0046 FB68     		ldr	r3, [r7, #12]
 1321 0048 4022     		movs	r2, #64
 1322 004a 0121     		movs	r1, #1
 1323 004c 9954     		strb	r1, [r3, r2]
 1324 004e FFF7FEFF 		bl	HAL_GetTick
 1325 0052 0300     		movs	r3, r0
 1326 0054 7B61     		str	r3, [r7, #20]
ARM GAS  /tmp/ccnCrYSN.s 			page 24


 1327 0056 FB68     		ldr	r3, [r7, #12]
 1328 0058 4122     		movs	r2, #65
 1329 005a 2221     		movs	r1, #34
 1330 005c 9954     		strb	r1, [r3, r2]
 1331 005e FB68     		ldr	r3, [r7, #12]
 1332 0060 4222     		movs	r2, #66
 1333 0062 2021     		movs	r1, #32
 1334 0064 9954     		strb	r1, [r3, r2]
 1335 0066 FB68     		ldr	r3, [r7, #12]
 1336 0068 0022     		movs	r2, #0
 1337 006a 5A64     		str	r2, [r3, #68]
 1338 006c FB68     		ldr	r3, [r7, #12]
 1339 006e BA68     		ldr	r2, [r7, #8]
 1340 0070 5A62     		str	r2, [r3, #36]
 1341 0072 FB68     		ldr	r3, [r7, #12]
 1342 0074 BA1D     		adds	r2, r7, #6
 1343 0076 1288     		ldrh	r2, [r2]
 1344 0078 5A85     		strh	r2, [r3, #42]
 1345 007a FB68     		ldr	r3, [r7, #12]
 1346 007c 5B8D     		ldrh	r3, [r3, #42]
 1347 007e 9AB2     		uxth	r2, r3
 1348 0080 FB68     		ldr	r3, [r7, #12]
 1349 0082 1A85     		strh	r2, [r3, #40]
 1350 0084 FB68     		ldr	r3, [r7, #12]
 1351 0086 0022     		movs	r2, #0
 1352 0088 5A63     		str	r2, [r3, #52]
 1353 008a FB68     		ldr	r3, [r7, #12]
 1354 008c 1B68     		ldr	r3, [r3]
 1355 008e 5A68     		ldr	r2, [r3, #4]
 1356 0090 FB68     		ldr	r3, [r7, #12]
 1357 0092 1B68     		ldr	r3, [r3]
 1358 0094 6749     		ldr	r1, .L85
 1359 0096 0A40     		ands	r2, r1
 1360 0098 5A60     		str	r2, [r3, #4]
 1361 009a 3A68     		ldr	r2, [r7]
 1362 009c F868     		ldr	r0, [r7, #12]
 1363 009e 7B69     		ldr	r3, [r7, #20]
 1364 00a0 0093     		str	r3, [sp]
 1365 00a2 1300     		movs	r3, r2
 1366 00a4 0022     		movs	r2, #0
 1367 00a6 0821     		movs	r1, #8
 1368 00a8 FFF7FEFF 		bl	I2C_WaitOnFlagUntilTimeout
 1369 00ac 031E     		subs	r3, r0, #0
 1370 00ae 0AD0     		beq	.L77
 1371 00b0 FB68     		ldr	r3, [r7, #12]
 1372 00b2 1B68     		ldr	r3, [r3]
 1373 00b4 5A68     		ldr	r2, [r3, #4]
 1374 00b6 FB68     		ldr	r3, [r7, #12]
 1375 00b8 1B68     		ldr	r3, [r3]
 1376 00ba 8021     		movs	r1, #128
 1377 00bc 0902     		lsls	r1, r1, #8
 1378 00be 0A43     		orrs	r2, r1
 1379 00c0 5A60     		str	r2, [r3, #4]
 1380 00c2 0123     		movs	r3, #1
 1381 00c4 B1E0     		b	.L75
 1382              	.L77:
 1383 00c6 FB68     		ldr	r3, [r7, #12]
ARM GAS  /tmp/ccnCrYSN.s 			page 25


 1384 00c8 1B68     		ldr	r3, [r3]
 1385 00ca 0822     		movs	r2, #8
 1386 00cc DA61     		str	r2, [r3, #28]
 1387 00ce 3A68     		ldr	r2, [r7]
 1388 00d0 8023     		movs	r3, #128
 1389 00d2 5902     		lsls	r1, r3, #9
 1390 00d4 F868     		ldr	r0, [r7, #12]
 1391 00d6 7B69     		ldr	r3, [r7, #20]
 1392 00d8 0093     		str	r3, [sp]
 1393 00da 1300     		movs	r3, r2
 1394 00dc 0122     		movs	r2, #1
 1395 00de FFF7FEFF 		bl	I2C_WaitOnFlagUntilTimeout
 1396 00e2 031E     		subs	r3, r0, #0
 1397 00e4 56D0     		beq	.L79
 1398 00e6 FB68     		ldr	r3, [r7, #12]
 1399 00e8 1B68     		ldr	r3, [r3]
 1400 00ea 5A68     		ldr	r2, [r3, #4]
 1401 00ec FB68     		ldr	r3, [r7, #12]
 1402 00ee 1B68     		ldr	r3, [r3]
 1403 00f0 8021     		movs	r1, #128
 1404 00f2 0902     		lsls	r1, r1, #8
 1405 00f4 0A43     		orrs	r2, r1
 1406 00f6 5A60     		str	r2, [r3, #4]
 1407 00f8 0123     		movs	r3, #1
 1408 00fa 96E0     		b	.L75
 1409              	.L82:
 1410 00fc 7A69     		ldr	r2, [r7, #20]
 1411 00fe 3968     		ldr	r1, [r7]
 1412 0100 FB68     		ldr	r3, [r7, #12]
 1413 0102 1800     		movs	r0, r3
 1414 0104 FFF7FEFF 		bl	I2C_WaitOnRXNEFlagUntilTimeout
 1415 0108 031E     		subs	r3, r0, #0
 1416 010a 2AD0     		beq	.L80
 1417 010c FB68     		ldr	r3, [r7, #12]
 1418 010e 1B68     		ldr	r3, [r3]
 1419 0110 5A68     		ldr	r2, [r3, #4]
 1420 0112 FB68     		ldr	r3, [r7, #12]
 1421 0114 1B68     		ldr	r3, [r3]
 1422 0116 8021     		movs	r1, #128
 1423 0118 0902     		lsls	r1, r1, #8
 1424 011a 0A43     		orrs	r2, r1
 1425 011c 5A60     		str	r2, [r3, #4]
 1426 011e FB68     		ldr	r3, [r7, #12]
 1427 0120 1B68     		ldr	r3, [r3]
 1428 0122 9B69     		ldr	r3, [r3, #24]
 1429 0124 0422     		movs	r2, #4
 1430 0126 1340     		ands	r3, r2
 1431 0128 042B     		cmp	r3, #4
 1432 012a 18D1     		bne	.L81
 1433 012c FB68     		ldr	r3, [r7, #12]
 1434 012e 1B68     		ldr	r3, [r3]
 1435 0130 5A6A     		ldr	r2, [r3, #36]
 1436 0132 FB68     		ldr	r3, [r7, #12]
 1437 0134 5B6A     		ldr	r3, [r3, #36]
 1438 0136 D2B2     		uxtb	r2, r2
 1439 0138 1A70     		strb	r2, [r3]
 1440 013a FB68     		ldr	r3, [r7, #12]
ARM GAS  /tmp/ccnCrYSN.s 			page 26


 1441 013c 5B6A     		ldr	r3, [r3, #36]
 1442 013e 5A1C     		adds	r2, r3, #1
 1443 0140 FB68     		ldr	r3, [r7, #12]
 1444 0142 5A62     		str	r2, [r3, #36]
 1445 0144 FB68     		ldr	r3, [r7, #12]
 1446 0146 5B8D     		ldrh	r3, [r3, #42]
 1447 0148 9BB2     		uxth	r3, r3
 1448 014a 013B     		subs	r3, r3, #1
 1449 014c 9AB2     		uxth	r2, r3
 1450 014e FB68     		ldr	r3, [r7, #12]
 1451 0150 5A85     		strh	r2, [r3, #42]
 1452 0152 FB68     		ldr	r3, [r7, #12]
 1453 0154 1B8D     		ldrh	r3, [r3, #40]
 1454 0156 013B     		subs	r3, r3, #1
 1455 0158 9AB2     		uxth	r2, r3
 1456 015a FB68     		ldr	r3, [r7, #12]
 1457 015c 1A85     		strh	r2, [r3, #40]
 1458              	.L81:
 1459 015e 0123     		movs	r3, #1
 1460 0160 63E0     		b	.L75
 1461              	.L80:
 1462 0162 FB68     		ldr	r3, [r7, #12]
 1463 0164 1B68     		ldr	r3, [r3]
 1464 0166 5A6A     		ldr	r2, [r3, #36]
 1465 0168 FB68     		ldr	r3, [r7, #12]
 1466 016a 5B6A     		ldr	r3, [r3, #36]
 1467 016c D2B2     		uxtb	r2, r2
 1468 016e 1A70     		strb	r2, [r3]
 1469 0170 FB68     		ldr	r3, [r7, #12]
 1470 0172 5B6A     		ldr	r3, [r3, #36]
 1471 0174 5A1C     		adds	r2, r3, #1
 1472 0176 FB68     		ldr	r3, [r7, #12]
 1473 0178 5A62     		str	r2, [r3, #36]
 1474 017a FB68     		ldr	r3, [r7, #12]
 1475 017c 5B8D     		ldrh	r3, [r3, #42]
 1476 017e 9BB2     		uxth	r3, r3
 1477 0180 013B     		subs	r3, r3, #1
 1478 0182 9AB2     		uxth	r2, r3
 1479 0184 FB68     		ldr	r3, [r7, #12]
 1480 0186 5A85     		strh	r2, [r3, #42]
 1481 0188 FB68     		ldr	r3, [r7, #12]
 1482 018a 1B8D     		ldrh	r3, [r3, #40]
 1483 018c 013B     		subs	r3, r3, #1
 1484 018e 9AB2     		uxth	r2, r3
 1485 0190 FB68     		ldr	r3, [r7, #12]
 1486 0192 1A85     		strh	r2, [r3, #40]
 1487              	.L79:
 1488 0194 FB68     		ldr	r3, [r7, #12]
 1489 0196 5B8D     		ldrh	r3, [r3, #42]
 1490 0198 9BB2     		uxth	r3, r3
 1491 019a 002B     		cmp	r3, #0
 1492 019c AED1     		bne	.L82
 1493 019e 7A69     		ldr	r2, [r7, #20]
 1494 01a0 3968     		ldr	r1, [r7]
 1495 01a2 FB68     		ldr	r3, [r7, #12]
 1496 01a4 1800     		movs	r0, r3
 1497 01a6 FFF7FEFF 		bl	I2C_WaitOnSTOPFlagUntilTimeout
ARM GAS  /tmp/ccnCrYSN.s 			page 27


 1498 01aa 031E     		subs	r3, r0, #0
 1499 01ac 0AD0     		beq	.L83
 1500 01ae FB68     		ldr	r3, [r7, #12]
 1501 01b0 1B68     		ldr	r3, [r3]
 1502 01b2 5A68     		ldr	r2, [r3, #4]
 1503 01b4 FB68     		ldr	r3, [r7, #12]
 1504 01b6 1B68     		ldr	r3, [r3]
 1505 01b8 8021     		movs	r1, #128
 1506 01ba 0902     		lsls	r1, r1, #8
 1507 01bc 0A43     		orrs	r2, r1
 1508 01be 5A60     		str	r2, [r3, #4]
 1509 01c0 0123     		movs	r3, #1
 1510 01c2 32E0     		b	.L75
 1511              	.L83:
 1512 01c4 FB68     		ldr	r3, [r7, #12]
 1513 01c6 1B68     		ldr	r3, [r3]
 1514 01c8 2022     		movs	r2, #32
 1515 01ca DA61     		str	r2, [r3, #28]
 1516 01cc 3A68     		ldr	r2, [r7]
 1517 01ce 8023     		movs	r3, #128
 1518 01d0 1902     		lsls	r1, r3, #8
 1519 01d2 F868     		ldr	r0, [r7, #12]
 1520 01d4 7B69     		ldr	r3, [r7, #20]
 1521 01d6 0093     		str	r3, [sp]
 1522 01d8 1300     		movs	r3, r2
 1523 01da 0122     		movs	r2, #1
 1524 01dc FFF7FEFF 		bl	I2C_WaitOnFlagUntilTimeout
 1525 01e0 031E     		subs	r3, r0, #0
 1526 01e2 0AD0     		beq	.L84
 1527 01e4 FB68     		ldr	r3, [r7, #12]
 1528 01e6 1B68     		ldr	r3, [r3]
 1529 01e8 5A68     		ldr	r2, [r3, #4]
 1530 01ea FB68     		ldr	r3, [r7, #12]
 1531 01ec 1B68     		ldr	r3, [r3]
 1532 01ee 8021     		movs	r1, #128
 1533 01f0 0902     		lsls	r1, r1, #8
 1534 01f2 0A43     		orrs	r2, r1
 1535 01f4 5A60     		str	r2, [r3, #4]
 1536 01f6 0123     		movs	r3, #1
 1537 01f8 17E0     		b	.L75
 1538              	.L84:
 1539 01fa FB68     		ldr	r3, [r7, #12]
 1540 01fc 1B68     		ldr	r3, [r3]
 1541 01fe 5A68     		ldr	r2, [r3, #4]
 1542 0200 FB68     		ldr	r3, [r7, #12]
 1543 0202 1B68     		ldr	r3, [r3]
 1544 0204 8021     		movs	r1, #128
 1545 0206 0902     		lsls	r1, r1, #8
 1546 0208 0A43     		orrs	r2, r1
 1547 020a 5A60     		str	r2, [r3, #4]
 1548 020c FB68     		ldr	r3, [r7, #12]
 1549 020e 4122     		movs	r2, #65
 1550 0210 2021     		movs	r1, #32
 1551 0212 9954     		strb	r1, [r3, r2]
 1552 0214 FB68     		ldr	r3, [r7, #12]
 1553 0216 4222     		movs	r2, #66
 1554 0218 0021     		movs	r1, #0
ARM GAS  /tmp/ccnCrYSN.s 			page 28


 1555 021a 9954     		strb	r1, [r3, r2]
 1556 021c FB68     		ldr	r3, [r7, #12]
 1557 021e 4022     		movs	r2, #64
 1558 0220 0021     		movs	r1, #0
 1559 0222 9954     		strb	r1, [r3, r2]
 1560 0224 0023     		movs	r3, #0
 1561 0226 00E0     		b	.L75
 1562              	.L72:
 1563 0228 0223     		movs	r3, #2
 1564              	.L75:
 1565 022a 1800     		movs	r0, r3
 1566 022c BD46     		mov	sp, r7
 1567 022e 06B0     		add	sp, sp, #24
 1568              		@ sp needed
 1569 0230 80BD     		pop	{r7, pc}
 1570              	.L86:
 1571 0232 C046     		.align	2
 1572              	.L85:
 1573 0234 FF7FFFFF 		.word	-32769
 1575              		.section	.text.HAL_I2C_Master_Transmit_IT,"ax",%progbits
 1576              		.align	1
 1577              		.global	HAL_I2C_Master_Transmit_IT
 1578              		.syntax unified
 1579              		.code	16
 1580              		.thumb_func
 1582              	HAL_I2C_Master_Transmit_IT:
 1583              		@ args = 0, pretend = 0, frame = 24
 1584              		@ frame_needed = 1, uses_anonymous_args = 0
 1585 0000 90B5     		push	{r4, r7, lr}
 1586 0002 89B0     		sub	sp, sp, #36
 1587 0004 02AF     		add	r7, sp, #8
 1588 0006 F860     		str	r0, [r7, #12]
 1589 0008 0800     		movs	r0, r1
 1590 000a 7A60     		str	r2, [r7, #4]
 1591 000c 1900     		movs	r1, r3
 1592 000e 0A23     		movs	r3, #10
 1593 0010 FB18     		adds	r3, r7, r3
 1594 0012 021C     		adds	r2, r0, #0
 1595 0014 1A80     		strh	r2, [r3]
 1596 0016 0823     		movs	r3, #8
 1597 0018 FB18     		adds	r3, r7, r3
 1598 001a 0A1C     		adds	r2, r1, #0
 1599 001c 1A80     		strh	r2, [r3]
 1600 001e FB68     		ldr	r3, [r7, #12]
 1601 0020 4122     		movs	r2, #65
 1602 0022 9B5C     		ldrb	r3, [r3, r2]
 1603 0024 DBB2     		uxtb	r3, r3
 1604 0026 202B     		cmp	r3, #32
 1605 0028 00D0     		beq	.LCB1706
 1606 002a 87E0     		b	.L88	@long jump
 1607              	.LCB1706:
 1608 002c FB68     		ldr	r3, [r7, #12]
 1609 002e 1B68     		ldr	r3, [r3]
 1610 0030 9A69     		ldr	r2, [r3, #24]
 1611 0032 8023     		movs	r3, #128
 1612 0034 1B02     		lsls	r3, r3, #8
 1613 0036 1A40     		ands	r2, r3
ARM GAS  /tmp/ccnCrYSN.s 			page 29


 1614 0038 8023     		movs	r3, #128
 1615 003a 1B02     		lsls	r3, r3, #8
 1616 003c 9A42     		cmp	r2, r3
 1617 003e 01D1     		bne	.L89
 1618 0040 0223     		movs	r3, #2
 1619 0042 7CE0     		b	.L90
 1620              	.L89:
 1621 0044 FB68     		ldr	r3, [r7, #12]
 1622 0046 4022     		movs	r2, #64
 1623 0048 9B5C     		ldrb	r3, [r3, r2]
 1624 004a 012B     		cmp	r3, #1
 1625 004c 01D1     		bne	.L91
 1626 004e 0223     		movs	r3, #2
 1627 0050 75E0     		b	.L90
 1628              	.L91:
 1629 0052 FB68     		ldr	r3, [r7, #12]
 1630 0054 4022     		movs	r2, #64
 1631 0056 0121     		movs	r1, #1
 1632 0058 9954     		strb	r1, [r3, r2]
 1633 005a FB68     		ldr	r3, [r7, #12]
 1634 005c 4122     		movs	r2, #65
 1635 005e 2121     		movs	r1, #33
 1636 0060 9954     		strb	r1, [r3, r2]
 1637 0062 FB68     		ldr	r3, [r7, #12]
 1638 0064 4222     		movs	r2, #66
 1639 0066 1021     		movs	r1, #16
 1640 0068 9954     		strb	r1, [r3, r2]
 1641 006a FB68     		ldr	r3, [r7, #12]
 1642 006c 0022     		movs	r2, #0
 1643 006e 5A64     		str	r2, [r3, #68]
 1644 0070 FB68     		ldr	r3, [r7, #12]
 1645 0072 7A68     		ldr	r2, [r7, #4]
 1646 0074 5A62     		str	r2, [r3, #36]
 1647 0076 FB68     		ldr	r3, [r7, #12]
 1648 0078 0822     		movs	r2, #8
 1649 007a BA18     		adds	r2, r7, r2
 1650 007c 1288     		ldrh	r2, [r2]
 1651 007e 5A85     		strh	r2, [r3, #42]
 1652 0080 FB68     		ldr	r3, [r7, #12]
 1653 0082 314A     		ldr	r2, .L96
 1654 0084 DA62     		str	r2, [r3, #44]
 1655 0086 FB68     		ldr	r3, [r7, #12]
 1656 0088 304A     		ldr	r2, .L96+4
 1657 008a 5A63     		str	r2, [r3, #52]
 1658 008c FB68     		ldr	r3, [r7, #12]
 1659 008e 5B8D     		ldrh	r3, [r3, #42]
 1660 0090 9BB2     		uxth	r3, r3
 1661 0092 FF2B     		cmp	r3, #255
 1662 0094 06D9     		bls	.L92
 1663 0096 FB68     		ldr	r3, [r7, #12]
 1664 0098 FF22     		movs	r2, #255
 1665 009a 1A85     		strh	r2, [r3, #40]
 1666 009c 8023     		movs	r3, #128
 1667 009e 5B04     		lsls	r3, r3, #17
 1668 00a0 7B61     		str	r3, [r7, #20]
 1669 00a2 07E0     		b	.L93
 1670              	.L92:
ARM GAS  /tmp/ccnCrYSN.s 			page 30


 1671 00a4 FB68     		ldr	r3, [r7, #12]
 1672 00a6 5B8D     		ldrh	r3, [r3, #42]
 1673 00a8 9AB2     		uxth	r2, r3
 1674 00aa FB68     		ldr	r3, [r7, #12]
 1675 00ac 1A85     		strh	r2, [r3, #40]
 1676 00ae 8023     		movs	r3, #128
 1677 00b0 9B04     		lsls	r3, r3, #18
 1678 00b2 7B61     		str	r3, [r7, #20]
 1679              	.L93:
 1680 00b4 FB68     		ldr	r3, [r7, #12]
 1681 00b6 1B8D     		ldrh	r3, [r3, #40]
 1682 00b8 002B     		cmp	r3, #0
 1683 00ba 27D0     		beq	.L94
 1684 00bc FB68     		ldr	r3, [r7, #12]
 1685 00be 5B6A     		ldr	r3, [r3, #36]
 1686 00c0 1A78     		ldrb	r2, [r3]
 1687 00c2 FB68     		ldr	r3, [r7, #12]
 1688 00c4 1B68     		ldr	r3, [r3]
 1689 00c6 9A62     		str	r2, [r3, #40]
 1690 00c8 FB68     		ldr	r3, [r7, #12]
 1691 00ca 5B6A     		ldr	r3, [r3, #36]
 1692 00cc 5A1C     		adds	r2, r3, #1
 1693 00ce FB68     		ldr	r3, [r7, #12]
 1694 00d0 5A62     		str	r2, [r3, #36]
 1695 00d2 FB68     		ldr	r3, [r7, #12]
 1696 00d4 5B8D     		ldrh	r3, [r3, #42]
 1697 00d6 9BB2     		uxth	r3, r3
 1698 00d8 013B     		subs	r3, r3, #1
 1699 00da 9AB2     		uxth	r2, r3
 1700 00dc FB68     		ldr	r3, [r7, #12]
 1701 00de 5A85     		strh	r2, [r3, #42]
 1702 00e0 FB68     		ldr	r3, [r7, #12]
 1703 00e2 1B8D     		ldrh	r3, [r3, #40]
 1704 00e4 013B     		subs	r3, r3, #1
 1705 00e6 9AB2     		uxth	r2, r3
 1706 00e8 FB68     		ldr	r3, [r7, #12]
 1707 00ea 1A85     		strh	r2, [r3, #40]
 1708 00ec FB68     		ldr	r3, [r7, #12]
 1709 00ee 1B8D     		ldrh	r3, [r3, #40]
 1710 00f0 DBB2     		uxtb	r3, r3
 1711 00f2 0133     		adds	r3, r3, #1
 1712 00f4 DAB2     		uxtb	r2, r3
 1713 00f6 7C69     		ldr	r4, [r7, #20]
 1714 00f8 0A23     		movs	r3, #10
 1715 00fa FB18     		adds	r3, r7, r3
 1716 00fc 1988     		ldrh	r1, [r3]
 1717 00fe F868     		ldr	r0, [r7, #12]
 1718 0100 134B     		ldr	r3, .L96+8
 1719 0102 0093     		str	r3, [sp]
 1720 0104 2300     		movs	r3, r4
 1721 0106 FFF7FEFF 		bl	I2C_TransferConfig
 1722 010a 0CE0     		b	.L95
 1723              	.L94:
 1724 010c FB68     		ldr	r3, [r7, #12]
 1725 010e 1B8D     		ldrh	r3, [r3, #40]
 1726 0110 DAB2     		uxtb	r2, r3
 1727 0112 7C69     		ldr	r4, [r7, #20]
ARM GAS  /tmp/ccnCrYSN.s 			page 31


 1728 0114 0A23     		movs	r3, #10
 1729 0116 FB18     		adds	r3, r7, r3
 1730 0118 1988     		ldrh	r1, [r3]
 1731 011a F868     		ldr	r0, [r7, #12]
 1732 011c 0C4B     		ldr	r3, .L96+8
 1733 011e 0093     		str	r3, [sp]
 1734 0120 2300     		movs	r3, r4
 1735 0122 FFF7FEFF 		bl	I2C_TransferConfig
 1736              	.L95:
 1737 0126 FB68     		ldr	r3, [r7, #12]
 1738 0128 4022     		movs	r2, #64
 1739 012a 0021     		movs	r1, #0
 1740 012c 9954     		strb	r1, [r3, r2]
 1741 012e FB68     		ldr	r3, [r7, #12]
 1742 0130 0121     		movs	r1, #1
 1743 0132 1800     		movs	r0, r3
 1744 0134 FFF7FEFF 		bl	I2C_Enable_IRQ
 1745 0138 0023     		movs	r3, #0
 1746 013a 00E0     		b	.L90
 1747              	.L88:
 1748 013c 0223     		movs	r3, #2
 1749              	.L90:
 1750 013e 1800     		movs	r0, r3
 1751 0140 BD46     		mov	sp, r7
 1752 0142 07B0     		add	sp, sp, #28
 1753              		@ sp needed
 1754 0144 90BD     		pop	{r4, r7, pc}
 1755              	.L97:
 1756 0146 C046     		.align	2
 1757              	.L96:
 1758 0148 0000FFFF 		.word	-65536
 1759 014c 00000000 		.word	I2C_Master_ISR_IT
 1760 0150 00200080 		.word	-2147475456
 1762              		.section	.text.HAL_I2C_Master_Receive_IT,"ax",%progbits
 1763              		.align	1
 1764              		.global	HAL_I2C_Master_Receive_IT
 1765              		.syntax unified
 1766              		.code	16
 1767              		.thumb_func
 1769              	HAL_I2C_Master_Receive_IT:
 1770              		@ args = 0, pretend = 0, frame = 24
 1771              		@ frame_needed = 1, uses_anonymous_args = 0
 1772 0000 90B5     		push	{r4, r7, lr}
 1773 0002 89B0     		sub	sp, sp, #36
 1774 0004 02AF     		add	r7, sp, #8
 1775 0006 F860     		str	r0, [r7, #12]
 1776 0008 0800     		movs	r0, r1
 1777 000a 7A60     		str	r2, [r7, #4]
 1778 000c 1900     		movs	r1, r3
 1779 000e 0A23     		movs	r3, #10
 1780 0010 FB18     		adds	r3, r7, r3
 1781 0012 021C     		adds	r2, r0, #0
 1782 0014 1A80     		strh	r2, [r3]
 1783 0016 0823     		movs	r3, #8
 1784 0018 FB18     		adds	r3, r7, r3
 1785 001a 0A1C     		adds	r2, r1, #0
 1786 001c 1A80     		strh	r2, [r3]
ARM GAS  /tmp/ccnCrYSN.s 			page 32


 1787 001e FB68     		ldr	r3, [r7, #12]
 1788 0020 4122     		movs	r2, #65
 1789 0022 9B5C     		ldrb	r3, [r3, r2]
 1790 0024 DBB2     		uxtb	r3, r3
 1791 0026 202B     		cmp	r3, #32
 1792 0028 5BD1     		bne	.L99
 1793 002a FB68     		ldr	r3, [r7, #12]
 1794 002c 1B68     		ldr	r3, [r3]
 1795 002e 9A69     		ldr	r2, [r3, #24]
 1796 0030 8023     		movs	r3, #128
 1797 0032 1B02     		lsls	r3, r3, #8
 1798 0034 1A40     		ands	r2, r3
 1799 0036 8023     		movs	r3, #128
 1800 0038 1B02     		lsls	r3, r3, #8
 1801 003a 9A42     		cmp	r2, r3
 1802 003c 01D1     		bne	.L100
 1803 003e 0223     		movs	r3, #2
 1804 0040 50E0     		b	.L101
 1805              	.L100:
 1806 0042 FB68     		ldr	r3, [r7, #12]
 1807 0044 4022     		movs	r2, #64
 1808 0046 9B5C     		ldrb	r3, [r3, r2]
 1809 0048 012B     		cmp	r3, #1
 1810 004a 01D1     		bne	.L102
 1811 004c 0223     		movs	r3, #2
 1812 004e 49E0     		b	.L101
 1813              	.L102:
 1814 0050 FB68     		ldr	r3, [r7, #12]
 1815 0052 4022     		movs	r2, #64
 1816 0054 0121     		movs	r1, #1
 1817 0056 9954     		strb	r1, [r3, r2]
 1818 0058 FB68     		ldr	r3, [r7, #12]
 1819 005a 4122     		movs	r2, #65
 1820 005c 2221     		movs	r1, #34
 1821 005e 9954     		strb	r1, [r3, r2]
 1822 0060 FB68     		ldr	r3, [r7, #12]
 1823 0062 4222     		movs	r2, #66
 1824 0064 1021     		movs	r1, #16
 1825 0066 9954     		strb	r1, [r3, r2]
 1826 0068 FB68     		ldr	r3, [r7, #12]
 1827 006a 0022     		movs	r2, #0
 1828 006c 5A64     		str	r2, [r3, #68]
 1829 006e FB68     		ldr	r3, [r7, #12]
 1830 0070 7A68     		ldr	r2, [r7, #4]
 1831 0072 5A62     		str	r2, [r3, #36]
 1832 0074 FB68     		ldr	r3, [r7, #12]
 1833 0076 0822     		movs	r2, #8
 1834 0078 BA18     		adds	r2, r7, r2
 1835 007a 1288     		ldrh	r2, [r2]
 1836 007c 5A85     		strh	r2, [r3, #42]
 1837 007e FB68     		ldr	r3, [r7, #12]
 1838 0080 1A4A     		ldr	r2, .L105
 1839 0082 DA62     		str	r2, [r3, #44]
 1840 0084 FB68     		ldr	r3, [r7, #12]
 1841 0086 1A4A     		ldr	r2, .L105+4
 1842 0088 5A63     		str	r2, [r3, #52]
 1843 008a FB68     		ldr	r3, [r7, #12]
ARM GAS  /tmp/ccnCrYSN.s 			page 33


 1844 008c 5B8D     		ldrh	r3, [r3, #42]
 1845 008e 9BB2     		uxth	r3, r3
 1846 0090 FF2B     		cmp	r3, #255
 1847 0092 06D9     		bls	.L103
 1848 0094 FB68     		ldr	r3, [r7, #12]
 1849 0096 0122     		movs	r2, #1
 1850 0098 1A85     		strh	r2, [r3, #40]
 1851 009a 8023     		movs	r3, #128
 1852 009c 5B04     		lsls	r3, r3, #17
 1853 009e 7B61     		str	r3, [r7, #20]
 1854 00a0 07E0     		b	.L104
 1855              	.L103:
 1856 00a2 FB68     		ldr	r3, [r7, #12]
 1857 00a4 5B8D     		ldrh	r3, [r3, #42]
 1858 00a6 9AB2     		uxth	r2, r3
 1859 00a8 FB68     		ldr	r3, [r7, #12]
 1860 00aa 1A85     		strh	r2, [r3, #40]
 1861 00ac 8023     		movs	r3, #128
 1862 00ae 9B04     		lsls	r3, r3, #18
 1863 00b0 7B61     		str	r3, [r7, #20]
 1864              	.L104:
 1865 00b2 FB68     		ldr	r3, [r7, #12]
 1866 00b4 1B8D     		ldrh	r3, [r3, #40]
 1867 00b6 DAB2     		uxtb	r2, r3
 1868 00b8 7C69     		ldr	r4, [r7, #20]
 1869 00ba 0A23     		movs	r3, #10
 1870 00bc FB18     		adds	r3, r7, r3
 1871 00be 1988     		ldrh	r1, [r3]
 1872 00c0 F868     		ldr	r0, [r7, #12]
 1873 00c2 0C4B     		ldr	r3, .L105+8
 1874 00c4 0093     		str	r3, [sp]
 1875 00c6 2300     		movs	r3, r4
 1876 00c8 FFF7FEFF 		bl	I2C_TransferConfig
 1877 00cc FB68     		ldr	r3, [r7, #12]
 1878 00ce 4022     		movs	r2, #64
 1879 00d0 0021     		movs	r1, #0
 1880 00d2 9954     		strb	r1, [r3, r2]
 1881 00d4 FB68     		ldr	r3, [r7, #12]
 1882 00d6 0221     		movs	r1, #2
 1883 00d8 1800     		movs	r0, r3
 1884 00da FFF7FEFF 		bl	I2C_Enable_IRQ
 1885 00de 0023     		movs	r3, #0
 1886 00e0 00E0     		b	.L101
 1887              	.L99:
 1888 00e2 0223     		movs	r3, #2
 1889              	.L101:
 1890 00e4 1800     		movs	r0, r3
 1891 00e6 BD46     		mov	sp, r7
 1892 00e8 07B0     		add	sp, sp, #28
 1893              		@ sp needed
 1894 00ea 90BD     		pop	{r4, r7, pc}
 1895              	.L106:
 1896              		.align	2
 1897              	.L105:
 1898 00ec 0000FFFF 		.word	-65536
 1899 00f0 00000000 		.word	I2C_Master_ISR_IT
 1900 00f4 00240080 		.word	-2147474432
ARM GAS  /tmp/ccnCrYSN.s 			page 34


 1902              		.section	.text.HAL_I2C_Slave_Transmit_IT,"ax",%progbits
 1903              		.align	1
 1904              		.global	HAL_I2C_Slave_Transmit_IT
 1905              		.syntax unified
 1906              		.code	16
 1907              		.thumb_func
 1909              	HAL_I2C_Slave_Transmit_IT:
 1910              		@ args = 0, pretend = 0, frame = 16
 1911              		@ frame_needed = 1, uses_anonymous_args = 0
 1912 0000 80B5     		push	{r7, lr}
 1913 0002 84B0     		sub	sp, sp, #16
 1914 0004 00AF     		add	r7, sp, #0
 1915 0006 F860     		str	r0, [r7, #12]
 1916 0008 B960     		str	r1, [r7, #8]
 1917 000a BB1D     		adds	r3, r7, #6
 1918 000c 1A80     		strh	r2, [r3]
 1919 000e FB68     		ldr	r3, [r7, #12]
 1920 0010 4122     		movs	r2, #65
 1921 0012 9B5C     		ldrb	r3, [r3, r2]
 1922 0014 DBB2     		uxtb	r3, r3
 1923 0016 202B     		cmp	r3, #32
 1924 0018 59D1     		bne	.L108
 1925 001a FB68     		ldr	r3, [r7, #12]
 1926 001c 4022     		movs	r2, #64
 1927 001e 9B5C     		ldrb	r3, [r3, r2]
 1928 0020 012B     		cmp	r3, #1
 1929 0022 01D1     		bne	.L109
 1930 0024 0223     		movs	r3, #2
 1931 0026 53E0     		b	.L110
 1932              	.L109:
 1933 0028 FB68     		ldr	r3, [r7, #12]
 1934 002a 4022     		movs	r2, #64
 1935 002c 0121     		movs	r1, #1
 1936 002e 9954     		strb	r1, [r3, r2]
 1937 0030 FB68     		ldr	r3, [r7, #12]
 1938 0032 4122     		movs	r2, #65
 1939 0034 2121     		movs	r1, #33
 1940 0036 9954     		strb	r1, [r3, r2]
 1941 0038 FB68     		ldr	r3, [r7, #12]
 1942 003a 4222     		movs	r2, #66
 1943 003c 2021     		movs	r1, #32
 1944 003e 9954     		strb	r1, [r3, r2]
 1945 0040 FB68     		ldr	r3, [r7, #12]
 1946 0042 0022     		movs	r2, #0
 1947 0044 5A64     		str	r2, [r3, #68]
 1948 0046 FB68     		ldr	r3, [r7, #12]
 1949 0048 1B68     		ldr	r3, [r3]
 1950 004a 5A68     		ldr	r2, [r3, #4]
 1951 004c FB68     		ldr	r3, [r7, #12]
 1952 004e 1B68     		ldr	r3, [r3]
 1953 0050 2149     		ldr	r1, .L112
 1954 0052 0A40     		ands	r2, r1
 1955 0054 5A60     		str	r2, [r3, #4]
 1956 0056 FB68     		ldr	r3, [r7, #12]
 1957 0058 BA68     		ldr	r2, [r7, #8]
 1958 005a 5A62     		str	r2, [r3, #36]
 1959 005c FB68     		ldr	r3, [r7, #12]
ARM GAS  /tmp/ccnCrYSN.s 			page 35


 1960 005e BA1D     		adds	r2, r7, #6
 1961 0060 1288     		ldrh	r2, [r2]
 1962 0062 5A85     		strh	r2, [r3, #42]
 1963 0064 FB68     		ldr	r3, [r7, #12]
 1964 0066 5B8D     		ldrh	r3, [r3, #42]
 1965 0068 9AB2     		uxth	r2, r3
 1966 006a FB68     		ldr	r3, [r7, #12]
 1967 006c 1A85     		strh	r2, [r3, #40]
 1968 006e FB68     		ldr	r3, [r7, #12]
 1969 0070 1A4A     		ldr	r2, .L112+4
 1970 0072 DA62     		str	r2, [r3, #44]
 1971 0074 FB68     		ldr	r3, [r7, #12]
 1972 0076 1A4A     		ldr	r2, .L112+8
 1973 0078 5A63     		str	r2, [r3, #52]
 1974 007a FB68     		ldr	r3, [r7, #12]
 1975 007c 1A6A     		ldr	r2, [r3, #32]
 1976 007e 8023     		movs	r3, #128
 1977 0080 9B02     		lsls	r3, r3, #10
 1978 0082 9A42     		cmp	r2, r3
 1979 0084 17D1     		bne	.L111
 1980 0086 FB68     		ldr	r3, [r7, #12]
 1981 0088 5B6A     		ldr	r3, [r3, #36]
 1982 008a 1A78     		ldrb	r2, [r3]
 1983 008c FB68     		ldr	r3, [r7, #12]
 1984 008e 1B68     		ldr	r3, [r3]
 1985 0090 9A62     		str	r2, [r3, #40]
 1986 0092 FB68     		ldr	r3, [r7, #12]
 1987 0094 5B6A     		ldr	r3, [r3, #36]
 1988 0096 5A1C     		adds	r2, r3, #1
 1989 0098 FB68     		ldr	r3, [r7, #12]
 1990 009a 5A62     		str	r2, [r3, #36]
 1991 009c FB68     		ldr	r3, [r7, #12]
 1992 009e 5B8D     		ldrh	r3, [r3, #42]
 1993 00a0 9BB2     		uxth	r3, r3
 1994 00a2 013B     		subs	r3, r3, #1
 1995 00a4 9AB2     		uxth	r2, r3
 1996 00a6 FB68     		ldr	r3, [r7, #12]
 1997 00a8 5A85     		strh	r2, [r3, #42]
 1998 00aa FB68     		ldr	r3, [r7, #12]
 1999 00ac 1B8D     		ldrh	r3, [r3, #40]
 2000 00ae 013B     		subs	r3, r3, #1
 2001 00b0 9AB2     		uxth	r2, r3
 2002 00b2 FB68     		ldr	r3, [r7, #12]
 2003 00b4 1A85     		strh	r2, [r3, #40]
 2004              	.L111:
 2005 00b6 FB68     		ldr	r3, [r7, #12]
 2006 00b8 4022     		movs	r2, #64
 2007 00ba 0021     		movs	r1, #0
 2008 00bc 9954     		strb	r1, [r3, r2]
 2009 00be 094A     		ldr	r2, .L112+12
 2010 00c0 FB68     		ldr	r3, [r7, #12]
 2011 00c2 1100     		movs	r1, r2
 2012 00c4 1800     		movs	r0, r3
 2013 00c6 FFF7FEFF 		bl	I2C_Enable_IRQ
 2014 00ca 0023     		movs	r3, #0
 2015 00cc 00E0     		b	.L110
 2016              	.L108:
ARM GAS  /tmp/ccnCrYSN.s 			page 36


 2017 00ce 0223     		movs	r3, #2
 2018              	.L110:
 2019 00d0 1800     		movs	r0, r3
 2020 00d2 BD46     		mov	sp, r7
 2021 00d4 04B0     		add	sp, sp, #16
 2022              		@ sp needed
 2023 00d6 80BD     		pop	{r7, pc}
 2024              	.L113:
 2025              		.align	2
 2026              	.L112:
 2027 00d8 FF7FFFFF 		.word	-32769
 2028 00dc 0000FFFF 		.word	-65536
 2029 00e0 00000000 		.word	I2C_Slave_ISR_IT
 2030 00e4 01800000 		.word	32769
 2032              		.section	.text.HAL_I2C_Slave_Receive_IT,"ax",%progbits
 2033              		.align	1
 2034              		.global	HAL_I2C_Slave_Receive_IT
 2035              		.syntax unified
 2036              		.code	16
 2037              		.thumb_func
 2039              	HAL_I2C_Slave_Receive_IT:
 2040              		@ args = 0, pretend = 0, frame = 16
 2041              		@ frame_needed = 1, uses_anonymous_args = 0
 2042 0000 80B5     		push	{r7, lr}
 2043 0002 84B0     		sub	sp, sp, #16
 2044 0004 00AF     		add	r7, sp, #0
 2045 0006 F860     		str	r0, [r7, #12]
 2046 0008 B960     		str	r1, [r7, #8]
 2047 000a BB1D     		adds	r3, r7, #6
 2048 000c 1A80     		strh	r2, [r3]
 2049 000e FB68     		ldr	r3, [r7, #12]
 2050 0010 4122     		movs	r2, #65
 2051 0012 9B5C     		ldrb	r3, [r3, r2]
 2052 0014 DBB2     		uxtb	r3, r3
 2053 0016 202B     		cmp	r3, #32
 2054 0018 3BD1     		bne	.L115
 2055 001a FB68     		ldr	r3, [r7, #12]
 2056 001c 4022     		movs	r2, #64
 2057 001e 9B5C     		ldrb	r3, [r3, r2]
 2058 0020 012B     		cmp	r3, #1
 2059 0022 01D1     		bne	.L116
 2060 0024 0223     		movs	r3, #2
 2061 0026 35E0     		b	.L117
 2062              	.L116:
 2063 0028 FB68     		ldr	r3, [r7, #12]
 2064 002a 4022     		movs	r2, #64
 2065 002c 0121     		movs	r1, #1
 2066 002e 9954     		strb	r1, [r3, r2]
 2067 0030 FB68     		ldr	r3, [r7, #12]
 2068 0032 4122     		movs	r2, #65
 2069 0034 2221     		movs	r1, #34
 2070 0036 9954     		strb	r1, [r3, r2]
 2071 0038 FB68     		ldr	r3, [r7, #12]
 2072 003a 4222     		movs	r2, #66
 2073 003c 2021     		movs	r1, #32
 2074 003e 9954     		strb	r1, [r3, r2]
 2075 0040 FB68     		ldr	r3, [r7, #12]
ARM GAS  /tmp/ccnCrYSN.s 			page 37


 2076 0042 0022     		movs	r2, #0
 2077 0044 5A64     		str	r2, [r3, #68]
 2078 0046 FB68     		ldr	r3, [r7, #12]
 2079 0048 1B68     		ldr	r3, [r3]
 2080 004a 5A68     		ldr	r2, [r3, #4]
 2081 004c FB68     		ldr	r3, [r7, #12]
 2082 004e 1B68     		ldr	r3, [r3]
 2083 0050 1249     		ldr	r1, .L118
 2084 0052 0A40     		ands	r2, r1
 2085 0054 5A60     		str	r2, [r3, #4]
 2086 0056 FB68     		ldr	r3, [r7, #12]
 2087 0058 BA68     		ldr	r2, [r7, #8]
 2088 005a 5A62     		str	r2, [r3, #36]
 2089 005c FB68     		ldr	r3, [r7, #12]
 2090 005e BA1D     		adds	r2, r7, #6
 2091 0060 1288     		ldrh	r2, [r2]
 2092 0062 5A85     		strh	r2, [r3, #42]
 2093 0064 FB68     		ldr	r3, [r7, #12]
 2094 0066 5B8D     		ldrh	r3, [r3, #42]
 2095 0068 9AB2     		uxth	r2, r3
 2096 006a FB68     		ldr	r3, [r7, #12]
 2097 006c 1A85     		strh	r2, [r3, #40]
 2098 006e FB68     		ldr	r3, [r7, #12]
 2099 0070 0B4A     		ldr	r2, .L118+4
 2100 0072 DA62     		str	r2, [r3, #44]
 2101 0074 FB68     		ldr	r3, [r7, #12]
 2102 0076 0B4A     		ldr	r2, .L118+8
 2103 0078 5A63     		str	r2, [r3, #52]
 2104 007a FB68     		ldr	r3, [r7, #12]
 2105 007c 4022     		movs	r2, #64
 2106 007e 0021     		movs	r1, #0
 2107 0080 9954     		strb	r1, [r3, r2]
 2108 0082 094A     		ldr	r2, .L118+12
 2109 0084 FB68     		ldr	r3, [r7, #12]
 2110 0086 1100     		movs	r1, r2
 2111 0088 1800     		movs	r0, r3
 2112 008a FFF7FEFF 		bl	I2C_Enable_IRQ
 2113 008e 0023     		movs	r3, #0
 2114 0090 00E0     		b	.L117
 2115              	.L115:
 2116 0092 0223     		movs	r3, #2
 2117              	.L117:
 2118 0094 1800     		movs	r0, r3
 2119 0096 BD46     		mov	sp, r7
 2120 0098 04B0     		add	sp, sp, #16
 2121              		@ sp needed
 2122 009a 80BD     		pop	{r7, pc}
 2123              	.L119:
 2124              		.align	2
 2125              	.L118:
 2126 009c FF7FFFFF 		.word	-32769
 2127 00a0 0000FFFF 		.word	-65536
 2128 00a4 00000000 		.word	I2C_Slave_ISR_IT
 2129 00a8 02800000 		.word	32770
 2131              		.section	.text.HAL_I2C_Master_Transmit_DMA,"ax",%progbits
 2132              		.align	1
 2133              		.global	HAL_I2C_Master_Transmit_DMA
ARM GAS  /tmp/ccnCrYSN.s 			page 38


 2134              		.syntax unified
 2135              		.code	16
 2136              		.thumb_func
 2138              	HAL_I2C_Master_Transmit_DMA:
 2139              		@ args = 0, pretend = 0, frame = 32
 2140              		@ frame_needed = 1, uses_anonymous_args = 0
 2141 0000 B0B5     		push	{r4, r5, r7, lr}
 2142 0002 8AB0     		sub	sp, sp, #40
 2143 0004 02AF     		add	r7, sp, #8
 2144 0006 F860     		str	r0, [r7, #12]
 2145 0008 0800     		movs	r0, r1
 2146 000a 7A60     		str	r2, [r7, #4]
 2147 000c 1900     		movs	r1, r3
 2148 000e 0A23     		movs	r3, #10
 2149 0010 FB18     		adds	r3, r7, r3
 2150 0012 021C     		adds	r2, r0, #0
 2151 0014 1A80     		strh	r2, [r3]
 2152 0016 0823     		movs	r3, #8
 2153 0018 FB18     		adds	r3, r7, r3
 2154 001a 0A1C     		adds	r2, r1, #0
 2155 001c 1A80     		strh	r2, [r3]
 2156 001e 0023     		movs	r3, #0
 2157 0020 BB61     		str	r3, [r7, #24]
 2158 0022 FB68     		ldr	r3, [r7, #12]
 2159 0024 4122     		movs	r2, #65
 2160 0026 9B5C     		ldrb	r3, [r3, r2]
 2161 0028 DBB2     		uxtb	r3, r3
 2162 002a 202B     		cmp	r3, #32
 2163 002c 00D0     		beq	.LCB2302
 2164 002e FFE0     		b	.L121	@long jump
 2165              	.LCB2302:
 2166 0030 FB68     		ldr	r3, [r7, #12]
 2167 0032 1B68     		ldr	r3, [r3]
 2168 0034 9A69     		ldr	r2, [r3, #24]
 2169 0036 8023     		movs	r3, #128
 2170 0038 1B02     		lsls	r3, r3, #8
 2171 003a 1A40     		ands	r2, r3
 2172 003c 8023     		movs	r3, #128
 2173 003e 1B02     		lsls	r3, r3, #8
 2174 0040 9A42     		cmp	r2, r3
 2175 0042 01D1     		bne	.L122
 2176 0044 0223     		movs	r3, #2
 2177 0046 F4E0     		b	.L123
 2178              	.L122:
 2179 0048 FB68     		ldr	r3, [r7, #12]
 2180 004a 4022     		movs	r2, #64
 2181 004c 9B5C     		ldrb	r3, [r3, r2]
 2182 004e 012B     		cmp	r3, #1
 2183 0050 01D1     		bne	.L124
 2184 0052 0223     		movs	r3, #2
 2185 0054 EDE0     		b	.L123
 2186              	.L124:
 2187 0056 FB68     		ldr	r3, [r7, #12]
 2188 0058 4022     		movs	r2, #64
 2189 005a 0121     		movs	r1, #1
 2190 005c 9954     		strb	r1, [r3, r2]
 2191 005e FB68     		ldr	r3, [r7, #12]
ARM GAS  /tmp/ccnCrYSN.s 			page 39


 2192 0060 4122     		movs	r2, #65
 2193 0062 2121     		movs	r1, #33
 2194 0064 9954     		strb	r1, [r3, r2]
 2195 0066 FB68     		ldr	r3, [r7, #12]
 2196 0068 4222     		movs	r2, #66
 2197 006a 1021     		movs	r1, #16
 2198 006c 9954     		strb	r1, [r3, r2]
 2199 006e FB68     		ldr	r3, [r7, #12]
 2200 0070 0022     		movs	r2, #0
 2201 0072 5A64     		str	r2, [r3, #68]
 2202 0074 FB68     		ldr	r3, [r7, #12]
 2203 0076 7A68     		ldr	r2, [r7, #4]
 2204 0078 5A62     		str	r2, [r3, #36]
 2205 007a FB68     		ldr	r3, [r7, #12]
 2206 007c 0822     		movs	r2, #8
 2207 007e BA18     		adds	r2, r7, r2
 2208 0080 1288     		ldrh	r2, [r2]
 2209 0082 5A85     		strh	r2, [r3, #42]
 2210 0084 FB68     		ldr	r3, [r7, #12]
 2211 0086 6D4A     		ldr	r2, .L134
 2212 0088 DA62     		str	r2, [r3, #44]
 2213 008a FB68     		ldr	r3, [r7, #12]
 2214 008c 6C4A     		ldr	r2, .L134+4
 2215 008e 5A63     		str	r2, [r3, #52]
 2216 0090 FB68     		ldr	r3, [r7, #12]
 2217 0092 5B8D     		ldrh	r3, [r3, #42]
 2218 0094 9BB2     		uxth	r3, r3
 2219 0096 FF2B     		cmp	r3, #255
 2220 0098 06D9     		bls	.L125
 2221 009a FB68     		ldr	r3, [r7, #12]
 2222 009c FF22     		movs	r2, #255
 2223 009e 1A85     		strh	r2, [r3, #40]
 2224 00a0 8023     		movs	r3, #128
 2225 00a2 5B04     		lsls	r3, r3, #17
 2226 00a4 FB61     		str	r3, [r7, #28]
 2227 00a6 07E0     		b	.L126
 2228              	.L125:
 2229 00a8 FB68     		ldr	r3, [r7, #12]
 2230 00aa 5B8D     		ldrh	r3, [r3, #42]
 2231 00ac 9AB2     		uxth	r2, r3
 2232 00ae FB68     		ldr	r3, [r7, #12]
 2233 00b0 1A85     		strh	r2, [r3, #40]
 2234 00b2 8023     		movs	r3, #128
 2235 00b4 9B04     		lsls	r3, r3, #18
 2236 00b6 FB61     		str	r3, [r7, #28]
 2237              	.L126:
 2238 00b8 FB68     		ldr	r3, [r7, #12]
 2239 00ba 1B8D     		ldrh	r3, [r3, #40]
 2240 00bc 002B     		cmp	r3, #0
 2241 00be 1AD0     		beq	.L127
 2242 00c0 FB68     		ldr	r3, [r7, #12]
 2243 00c2 5B6A     		ldr	r3, [r3, #36]
 2244 00c4 1A78     		ldrb	r2, [r3]
 2245 00c6 FB68     		ldr	r3, [r7, #12]
 2246 00c8 1B68     		ldr	r3, [r3]
 2247 00ca 9A62     		str	r2, [r3, #40]
 2248 00cc FB68     		ldr	r3, [r7, #12]
ARM GAS  /tmp/ccnCrYSN.s 			page 40


 2249 00ce 5B6A     		ldr	r3, [r3, #36]
 2250 00d0 5A1C     		adds	r2, r3, #1
 2251 00d2 FB68     		ldr	r3, [r7, #12]
 2252 00d4 5A62     		str	r2, [r3, #36]
 2253 00d6 FB68     		ldr	r3, [r7, #12]
 2254 00d8 1B8D     		ldrh	r3, [r3, #40]
 2255 00da BB61     		str	r3, [r7, #24]
 2256 00dc FB68     		ldr	r3, [r7, #12]
 2257 00de 5B8D     		ldrh	r3, [r3, #42]
 2258 00e0 9BB2     		uxth	r3, r3
 2259 00e2 013B     		subs	r3, r3, #1
 2260 00e4 9AB2     		uxth	r2, r3
 2261 00e6 FB68     		ldr	r3, [r7, #12]
 2262 00e8 5A85     		strh	r2, [r3, #42]
 2263 00ea FB68     		ldr	r3, [r7, #12]
 2264 00ec 1B8D     		ldrh	r3, [r3, #40]
 2265 00ee 013B     		subs	r3, r3, #1
 2266 00f0 9AB2     		uxth	r2, r3
 2267 00f2 FB68     		ldr	r3, [r7, #12]
 2268 00f4 1A85     		strh	r2, [r3, #40]
 2269              	.L127:
 2270 00f6 FB68     		ldr	r3, [r7, #12]
 2271 00f8 1B8D     		ldrh	r3, [r3, #40]
 2272 00fa 002B     		cmp	r3, #0
 2273 00fc 00D1     		bne	.LCB2418
 2274 00fe 7CE0     		b	.L128	@long jump
 2275              	.LCB2418:
 2276 0100 FB68     		ldr	r3, [r7, #12]
 2277 0102 9B6B     		ldr	r3, [r3, #56]
 2278 0104 002B     		cmp	r3, #0
 2279 0106 25D0     		beq	.L129
 2280 0108 FB68     		ldr	r3, [r7, #12]
 2281 010a 9B6B     		ldr	r3, [r3, #56]
 2282 010c 4D4A     		ldr	r2, .L134+8
 2283 010e 9A62     		str	r2, [r3, #40]
 2284 0110 FB68     		ldr	r3, [r7, #12]
 2285 0112 9B6B     		ldr	r3, [r3, #56]
 2286 0114 4C4A     		ldr	r2, .L134+12
 2287 0116 1A63     		str	r2, [r3, #48]
 2288 0118 FB68     		ldr	r3, [r7, #12]
 2289 011a 9B6B     		ldr	r3, [r3, #56]
 2290 011c 0022     		movs	r2, #0
 2291 011e DA62     		str	r2, [r3, #44]
 2292 0120 FB68     		ldr	r3, [r7, #12]
 2293 0122 9B6B     		ldr	r3, [r3, #56]
 2294 0124 0022     		movs	r2, #0
 2295 0126 5A63     		str	r2, [r3, #52]
 2296 0128 FB68     		ldr	r3, [r7, #12]
 2297 012a 986B     		ldr	r0, [r3, #56]
 2298 012c FB68     		ldr	r3, [r7, #12]
 2299 012e 5B6A     		ldr	r3, [r3, #36]
 2300 0130 1900     		movs	r1, r3
 2301 0132 FB68     		ldr	r3, [r7, #12]
 2302 0134 1B68     		ldr	r3, [r3]
 2303 0136 2833     		adds	r3, r3, #40
 2304 0138 1A00     		movs	r2, r3
 2305 013a FB68     		ldr	r3, [r7, #12]
ARM GAS  /tmp/ccnCrYSN.s 			page 41


 2306 013c 1B8D     		ldrh	r3, [r3, #40]
 2307 013e 1725     		movs	r5, #23
 2308 0140 7C19     		adds	r4, r7, r5
 2309 0142 FFF7FEFF 		bl	HAL_DMA_Start_IT
 2310 0146 0300     		movs	r3, r0
 2311 0148 2370     		strb	r3, [r4]
 2312 014a 7B19     		adds	r3, r7, r5
 2313 014c 1B78     		ldrb	r3, [r3]
 2314 014e 002B     		cmp	r3, #0
 2315 0150 3FD1     		bne	.L131
 2316 0152 13E0     		b	.L133
 2317              	.L129:
 2318 0154 FB68     		ldr	r3, [r7, #12]
 2319 0156 4122     		movs	r2, #65
 2320 0158 2021     		movs	r1, #32
 2321 015a 9954     		strb	r1, [r3, r2]
 2322 015c FB68     		ldr	r3, [r7, #12]
 2323 015e 4222     		movs	r2, #66
 2324 0160 0021     		movs	r1, #0
 2325 0162 9954     		strb	r1, [r3, r2]
 2326 0164 FB68     		ldr	r3, [r7, #12]
 2327 0166 5B6C     		ldr	r3, [r3, #68]
 2328 0168 8022     		movs	r2, #128
 2329 016a 1A43     		orrs	r2, r3
 2330 016c FB68     		ldr	r3, [r7, #12]
 2331 016e 5A64     		str	r2, [r3, #68]
 2332 0170 FB68     		ldr	r3, [r7, #12]
 2333 0172 4022     		movs	r2, #64
 2334 0174 0021     		movs	r1, #0
 2335 0176 9954     		strb	r1, [r3, r2]
 2336 0178 0123     		movs	r3, #1
 2337 017a 5AE0     		b	.L123
 2338              	.L133:
 2339 017c FB68     		ldr	r3, [r7, #12]
 2340 017e 1B8D     		ldrh	r3, [r3, #40]
 2341 0180 DBB2     		uxtb	r3, r3
 2342 0182 0133     		adds	r3, r3, #1
 2343 0184 DAB2     		uxtb	r2, r3
 2344 0186 FC69     		ldr	r4, [r7, #28]
 2345 0188 0A23     		movs	r3, #10
 2346 018a FB18     		adds	r3, r7, r3
 2347 018c 1988     		ldrh	r1, [r3]
 2348 018e F868     		ldr	r0, [r7, #12]
 2349 0190 2E4B     		ldr	r3, .L134+16
 2350 0192 0093     		str	r3, [sp]
 2351 0194 2300     		movs	r3, r4
 2352 0196 FFF7FEFF 		bl	I2C_TransferConfig
 2353 019a FB68     		ldr	r3, [r7, #12]
 2354 019c 5B8D     		ldrh	r3, [r3, #42]
 2355 019e 9AB2     		uxth	r2, r3
 2356 01a0 FB68     		ldr	r3, [r7, #12]
 2357 01a2 1B8D     		ldrh	r3, [r3, #40]
 2358 01a4 D31A     		subs	r3, r2, r3
 2359 01a6 9AB2     		uxth	r2, r3
 2360 01a8 FB68     		ldr	r3, [r7, #12]
 2361 01aa 5A85     		strh	r2, [r3, #42]
 2362 01ac FB68     		ldr	r3, [r7, #12]
ARM GAS  /tmp/ccnCrYSN.s 			page 42


 2363 01ae 4022     		movs	r2, #64
 2364 01b0 0021     		movs	r1, #0
 2365 01b2 9954     		strb	r1, [r3, r2]
 2366 01b4 FB68     		ldr	r3, [r7, #12]
 2367 01b6 1021     		movs	r1, #16
 2368 01b8 1800     		movs	r0, r3
 2369 01ba FFF7FEFF 		bl	I2C_Enable_IRQ
 2370 01be FB68     		ldr	r3, [r7, #12]
 2371 01c0 1B68     		ldr	r3, [r3]
 2372 01c2 1A68     		ldr	r2, [r3]
 2373 01c4 FB68     		ldr	r3, [r7, #12]
 2374 01c6 1B68     		ldr	r3, [r3]
 2375 01c8 8021     		movs	r1, #128
 2376 01ca C901     		lsls	r1, r1, #7
 2377 01cc 0A43     		orrs	r2, r1
 2378 01ce 1A60     		str	r2, [r3]
 2379 01d0 2CE0     		b	.L132
 2380              	.L131:
 2381 01d2 FB68     		ldr	r3, [r7, #12]
 2382 01d4 4122     		movs	r2, #65
 2383 01d6 2021     		movs	r1, #32
 2384 01d8 9954     		strb	r1, [r3, r2]
 2385 01da FB68     		ldr	r3, [r7, #12]
 2386 01dc 4222     		movs	r2, #66
 2387 01de 0021     		movs	r1, #0
 2388 01e0 9954     		strb	r1, [r3, r2]
 2389 01e2 FB68     		ldr	r3, [r7, #12]
 2390 01e4 5B6C     		ldr	r3, [r3, #68]
 2391 01e6 1022     		movs	r2, #16
 2392 01e8 1A43     		orrs	r2, r3
 2393 01ea FB68     		ldr	r3, [r7, #12]
 2394 01ec 5A64     		str	r2, [r3, #68]
 2395 01ee FB68     		ldr	r3, [r7, #12]
 2396 01f0 4022     		movs	r2, #64
 2397 01f2 0021     		movs	r1, #0
 2398 01f4 9954     		strb	r1, [r3, r2]
 2399 01f6 0123     		movs	r3, #1
 2400 01f8 1BE0     		b	.L123
 2401              	.L128:
 2402 01fa FB68     		ldr	r3, [r7, #12]
 2403 01fc 144A     		ldr	r2, .L134+20
 2404 01fe 5A63     		str	r2, [r3, #52]
 2405 0200 BB69     		ldr	r3, [r7, #24]
 2406 0202 DAB2     		uxtb	r2, r3
 2407 0204 8023     		movs	r3, #128
 2408 0206 9C04     		lsls	r4, r3, #18
 2409 0208 0A23     		movs	r3, #10
 2410 020a FB18     		adds	r3, r7, r3
 2411 020c 1988     		ldrh	r1, [r3]
 2412 020e F868     		ldr	r0, [r7, #12]
 2413 0210 0E4B     		ldr	r3, .L134+16
 2414 0212 0093     		str	r3, [sp]
 2415 0214 2300     		movs	r3, r4
 2416 0216 FFF7FEFF 		bl	I2C_TransferConfig
 2417 021a FB68     		ldr	r3, [r7, #12]
 2418 021c 4022     		movs	r2, #64
 2419 021e 0021     		movs	r1, #0
ARM GAS  /tmp/ccnCrYSN.s 			page 43


 2420 0220 9954     		strb	r1, [r3, r2]
 2421 0222 FB68     		ldr	r3, [r7, #12]
 2422 0224 0121     		movs	r1, #1
 2423 0226 1800     		movs	r0, r3
 2424 0228 FFF7FEFF 		bl	I2C_Enable_IRQ
 2425              	.L132:
 2426 022c 0023     		movs	r3, #0
 2427 022e 00E0     		b	.L123
 2428              	.L121:
 2429 0230 0223     		movs	r3, #2
 2430              	.L123:
 2431 0232 1800     		movs	r0, r3
 2432 0234 BD46     		mov	sp, r7
 2433 0236 08B0     		add	sp, sp, #32
 2434              		@ sp needed
 2435 0238 B0BD     		pop	{r4, r5, r7, pc}
 2436              	.L135:
 2437 023a C046     		.align	2
 2438              	.L134:
 2439 023c 0000FFFF 		.word	-65536
 2440 0240 00000000 		.word	I2C_Master_ISR_DMA
 2441 0244 00000000 		.word	I2C_DMAMasterTransmitCplt
 2442 0248 00000000 		.word	I2C_DMAError
 2443 024c 00200080 		.word	-2147475456
 2444 0250 00000000 		.word	I2C_Master_ISR_IT
 2446              		.section	.text.HAL_I2C_Master_Receive_DMA,"ax",%progbits
 2447              		.align	1
 2448              		.global	HAL_I2C_Master_Receive_DMA
 2449              		.syntax unified
 2450              		.code	16
 2451              		.thumb_func
 2453              	HAL_I2C_Master_Receive_DMA:
 2454              		@ args = 0, pretend = 0, frame = 24
 2455              		@ frame_needed = 1, uses_anonymous_args = 0
 2456 0000 B0B5     		push	{r4, r5, r7, lr}
 2457 0002 88B0     		sub	sp, sp, #32
 2458 0004 02AF     		add	r7, sp, #8
 2459 0006 F860     		str	r0, [r7, #12]
 2460 0008 0800     		movs	r0, r1
 2461 000a 7A60     		str	r2, [r7, #4]
 2462 000c 1900     		movs	r1, r3
 2463 000e 0A23     		movs	r3, #10
 2464 0010 FB18     		adds	r3, r7, r3
 2465 0012 021C     		adds	r2, r0, #0
 2466 0014 1A80     		strh	r2, [r3]
 2467 0016 0823     		movs	r3, #8
 2468 0018 FB18     		adds	r3, r7, r3
 2469 001a 0A1C     		adds	r2, r1, #0
 2470 001c 1A80     		strh	r2, [r3]
 2471 001e FB68     		ldr	r3, [r7, #12]
 2472 0020 4122     		movs	r2, #65
 2473 0022 9B5C     		ldrb	r3, [r3, r2]
 2474 0024 DBB2     		uxtb	r3, r3
 2475 0026 202B     		cmp	r3, #32
 2476 0028 00D0     		beq	.LCB2635
 2477 002a DDE0     		b	.L137	@long jump
 2478              	.LCB2635:
ARM GAS  /tmp/ccnCrYSN.s 			page 44


 2479 002c FB68     		ldr	r3, [r7, #12]
 2480 002e 1B68     		ldr	r3, [r3]
 2481 0030 9A69     		ldr	r2, [r3, #24]
 2482 0032 8023     		movs	r3, #128
 2483 0034 1B02     		lsls	r3, r3, #8
 2484 0036 1A40     		ands	r2, r3
 2485 0038 8023     		movs	r3, #128
 2486 003a 1B02     		lsls	r3, r3, #8
 2487 003c 9A42     		cmp	r2, r3
 2488 003e 01D1     		bne	.L138
 2489 0040 0223     		movs	r3, #2
 2490 0042 D2E0     		b	.L139
 2491              	.L138:
 2492 0044 FB68     		ldr	r3, [r7, #12]
 2493 0046 4022     		movs	r2, #64
 2494 0048 9B5C     		ldrb	r3, [r3, r2]
 2495 004a 012B     		cmp	r3, #1
 2496 004c 01D1     		bne	.L140
 2497 004e 0223     		movs	r3, #2
 2498 0050 CBE0     		b	.L139
 2499              	.L140:
 2500 0052 FB68     		ldr	r3, [r7, #12]
 2501 0054 4022     		movs	r2, #64
 2502 0056 0121     		movs	r1, #1
 2503 0058 9954     		strb	r1, [r3, r2]
 2504 005a FB68     		ldr	r3, [r7, #12]
 2505 005c 4122     		movs	r2, #65
 2506 005e 2221     		movs	r1, #34
 2507 0060 9954     		strb	r1, [r3, r2]
 2508 0062 FB68     		ldr	r3, [r7, #12]
 2509 0064 4222     		movs	r2, #66
 2510 0066 1021     		movs	r1, #16
 2511 0068 9954     		strb	r1, [r3, r2]
 2512 006a FB68     		ldr	r3, [r7, #12]
 2513 006c 0022     		movs	r2, #0
 2514 006e 5A64     		str	r2, [r3, #68]
 2515 0070 FB68     		ldr	r3, [r7, #12]
 2516 0072 7A68     		ldr	r2, [r7, #4]
 2517 0074 5A62     		str	r2, [r3, #36]
 2518 0076 FB68     		ldr	r3, [r7, #12]
 2519 0078 0822     		movs	r2, #8
 2520 007a BA18     		adds	r2, r7, r2
 2521 007c 1288     		ldrh	r2, [r2]
 2522 007e 5A85     		strh	r2, [r3, #42]
 2523 0080 FB68     		ldr	r3, [r7, #12]
 2524 0082 5C4A     		ldr	r2, .L149
 2525 0084 DA62     		str	r2, [r3, #44]
 2526 0086 FB68     		ldr	r3, [r7, #12]
 2527 0088 5B4A     		ldr	r2, .L149+4
 2528 008a 5A63     		str	r2, [r3, #52]
 2529 008c FB68     		ldr	r3, [r7, #12]
 2530 008e 5B8D     		ldrh	r3, [r3, #42]
 2531 0090 9BB2     		uxth	r3, r3
 2532 0092 FF2B     		cmp	r3, #255
 2533 0094 06D9     		bls	.L141
 2534 0096 FB68     		ldr	r3, [r7, #12]
 2535 0098 0122     		movs	r2, #1
ARM GAS  /tmp/ccnCrYSN.s 			page 45


 2536 009a 1A85     		strh	r2, [r3, #40]
 2537 009c 8023     		movs	r3, #128
 2538 009e 5B04     		lsls	r3, r3, #17
 2539 00a0 7B61     		str	r3, [r7, #20]
 2540 00a2 07E0     		b	.L142
 2541              	.L141:
 2542 00a4 FB68     		ldr	r3, [r7, #12]
 2543 00a6 5B8D     		ldrh	r3, [r3, #42]
 2544 00a8 9AB2     		uxth	r2, r3
 2545 00aa FB68     		ldr	r3, [r7, #12]
 2546 00ac 1A85     		strh	r2, [r3, #40]
 2547 00ae 8023     		movs	r3, #128
 2548 00b0 9B04     		lsls	r3, r3, #18
 2549 00b2 7B61     		str	r3, [r7, #20]
 2550              	.L142:
 2551 00b4 FB68     		ldr	r3, [r7, #12]
 2552 00b6 1B8D     		ldrh	r3, [r3, #40]
 2553 00b8 002B     		cmp	r3, #0
 2554 00ba 00D1     		bne	.LCB2718
 2555 00bc 78E0     		b	.L143	@long jump
 2556              	.LCB2718:
 2557 00be FB68     		ldr	r3, [r7, #12]
 2558 00c0 DB6B     		ldr	r3, [r3, #60]
 2559 00c2 002B     		cmp	r3, #0
 2560 00c4 23D0     		beq	.L144
 2561 00c6 FB68     		ldr	r3, [r7, #12]
 2562 00c8 DB6B     		ldr	r3, [r3, #60]
 2563 00ca 4C4A     		ldr	r2, .L149+8
 2564 00cc 9A62     		str	r2, [r3, #40]
 2565 00ce FB68     		ldr	r3, [r7, #12]
 2566 00d0 DB6B     		ldr	r3, [r3, #60]
 2567 00d2 4B4A     		ldr	r2, .L149+12
 2568 00d4 1A63     		str	r2, [r3, #48]
 2569 00d6 FB68     		ldr	r3, [r7, #12]
 2570 00d8 DB6B     		ldr	r3, [r3, #60]
 2571 00da 0022     		movs	r2, #0
 2572 00dc DA62     		str	r2, [r3, #44]
 2573 00de FB68     		ldr	r3, [r7, #12]
 2574 00e0 DB6B     		ldr	r3, [r3, #60]
 2575 00e2 0022     		movs	r2, #0
 2576 00e4 5A63     		str	r2, [r3, #52]
 2577 00e6 FB68     		ldr	r3, [r7, #12]
 2578 00e8 D86B     		ldr	r0, [r3, #60]
 2579 00ea FB68     		ldr	r3, [r7, #12]
 2580 00ec 1B68     		ldr	r3, [r3]
 2581 00ee 2433     		adds	r3, r3, #36
 2582 00f0 1900     		movs	r1, r3
 2583 00f2 7A68     		ldr	r2, [r7, #4]
 2584 00f4 FB68     		ldr	r3, [r7, #12]
 2585 00f6 1B8D     		ldrh	r3, [r3, #40]
 2586 00f8 1325     		movs	r5, #19
 2587 00fa 7C19     		adds	r4, r7, r5
 2588 00fc FFF7FEFF 		bl	HAL_DMA_Start_IT
 2589 0100 0300     		movs	r3, r0
 2590 0102 2370     		strb	r3, [r4]
 2591 0104 7B19     		adds	r3, r7, r5
 2592 0106 1B78     		ldrb	r3, [r3]
ARM GAS  /tmp/ccnCrYSN.s 			page 46


 2593 0108 002B     		cmp	r3, #0
 2594 010a 3DD1     		bne	.L146
 2595 010c 13E0     		b	.L148
 2596              	.L144:
 2597 010e FB68     		ldr	r3, [r7, #12]
 2598 0110 4122     		movs	r2, #65
 2599 0112 2021     		movs	r1, #32
 2600 0114 9954     		strb	r1, [r3, r2]
 2601 0116 FB68     		ldr	r3, [r7, #12]
 2602 0118 4222     		movs	r2, #66
 2603 011a 0021     		movs	r1, #0
 2604 011c 9954     		strb	r1, [r3, r2]
 2605 011e FB68     		ldr	r3, [r7, #12]
 2606 0120 5B6C     		ldr	r3, [r3, #68]
 2607 0122 8022     		movs	r2, #128
 2608 0124 1A43     		orrs	r2, r3
 2609 0126 FB68     		ldr	r3, [r7, #12]
 2610 0128 5A64     		str	r2, [r3, #68]
 2611 012a FB68     		ldr	r3, [r7, #12]
 2612 012c 4022     		movs	r2, #64
 2613 012e 0021     		movs	r1, #0
 2614 0130 9954     		strb	r1, [r3, r2]
 2615 0132 0123     		movs	r3, #1
 2616 0134 59E0     		b	.L139
 2617              	.L148:
 2618 0136 FB68     		ldr	r3, [r7, #12]
 2619 0138 1B8D     		ldrh	r3, [r3, #40]
 2620 013a DAB2     		uxtb	r2, r3
 2621 013c 7C69     		ldr	r4, [r7, #20]
 2622 013e 0A23     		movs	r3, #10
 2623 0140 FB18     		adds	r3, r7, r3
 2624 0142 1988     		ldrh	r1, [r3]
 2625 0144 F868     		ldr	r0, [r7, #12]
 2626 0146 2F4B     		ldr	r3, .L149+16
 2627 0148 0093     		str	r3, [sp]
 2628 014a 2300     		movs	r3, r4
 2629 014c FFF7FEFF 		bl	I2C_TransferConfig
 2630 0150 FB68     		ldr	r3, [r7, #12]
 2631 0152 5B8D     		ldrh	r3, [r3, #42]
 2632 0154 9AB2     		uxth	r2, r3
 2633 0156 FB68     		ldr	r3, [r7, #12]
 2634 0158 1B8D     		ldrh	r3, [r3, #40]
 2635 015a D31A     		subs	r3, r2, r3
 2636 015c 9AB2     		uxth	r2, r3
 2637 015e FB68     		ldr	r3, [r7, #12]
 2638 0160 5A85     		strh	r2, [r3, #42]
 2639 0162 FB68     		ldr	r3, [r7, #12]
 2640 0164 4022     		movs	r2, #64
 2641 0166 0021     		movs	r1, #0
 2642 0168 9954     		strb	r1, [r3, r2]
 2643 016a FB68     		ldr	r3, [r7, #12]
 2644 016c 1021     		movs	r1, #16
 2645 016e 1800     		movs	r0, r3
 2646 0170 FFF7FEFF 		bl	I2C_Enable_IRQ
 2647 0174 FB68     		ldr	r3, [r7, #12]
 2648 0176 1B68     		ldr	r3, [r3]
 2649 0178 1A68     		ldr	r2, [r3]
ARM GAS  /tmp/ccnCrYSN.s 			page 47


 2650 017a FB68     		ldr	r3, [r7, #12]
 2651 017c 1B68     		ldr	r3, [r3]
 2652 017e 8021     		movs	r1, #128
 2653 0180 0902     		lsls	r1, r1, #8
 2654 0182 0A43     		orrs	r2, r1
 2655 0184 1A60     		str	r2, [r3]
 2656 0186 2DE0     		b	.L147
 2657              	.L146:
 2658 0188 FB68     		ldr	r3, [r7, #12]
 2659 018a 4122     		movs	r2, #65
 2660 018c 2021     		movs	r1, #32
 2661 018e 9954     		strb	r1, [r3, r2]
 2662 0190 FB68     		ldr	r3, [r7, #12]
 2663 0192 4222     		movs	r2, #66
 2664 0194 0021     		movs	r1, #0
 2665 0196 9954     		strb	r1, [r3, r2]
 2666 0198 FB68     		ldr	r3, [r7, #12]
 2667 019a 5B6C     		ldr	r3, [r3, #68]
 2668 019c 1022     		movs	r2, #16
 2669 019e 1A43     		orrs	r2, r3
 2670 01a0 FB68     		ldr	r3, [r7, #12]
 2671 01a2 5A64     		str	r2, [r3, #68]
 2672 01a4 FB68     		ldr	r3, [r7, #12]
 2673 01a6 4022     		movs	r2, #64
 2674 01a8 0021     		movs	r1, #0
 2675 01aa 9954     		strb	r1, [r3, r2]
 2676 01ac 0123     		movs	r3, #1
 2677 01ae 1CE0     		b	.L139
 2678              	.L143:
 2679 01b0 FB68     		ldr	r3, [r7, #12]
 2680 01b2 154A     		ldr	r2, .L149+20
 2681 01b4 5A63     		str	r2, [r3, #52]
 2682 01b6 FB68     		ldr	r3, [r7, #12]
 2683 01b8 1B8D     		ldrh	r3, [r3, #40]
 2684 01ba DAB2     		uxtb	r2, r3
 2685 01bc 8023     		movs	r3, #128
 2686 01be 9C04     		lsls	r4, r3, #18
 2687 01c0 0A23     		movs	r3, #10
 2688 01c2 FB18     		adds	r3, r7, r3
 2689 01c4 1988     		ldrh	r1, [r3]
 2690 01c6 F868     		ldr	r0, [r7, #12]
 2691 01c8 0E4B     		ldr	r3, .L149+16
 2692 01ca 0093     		str	r3, [sp]
 2693 01cc 2300     		movs	r3, r4
 2694 01ce FFF7FEFF 		bl	I2C_TransferConfig
 2695 01d2 FB68     		ldr	r3, [r7, #12]
 2696 01d4 4022     		movs	r2, #64
 2697 01d6 0021     		movs	r1, #0
 2698 01d8 9954     		strb	r1, [r3, r2]
 2699 01da FB68     		ldr	r3, [r7, #12]
 2700 01dc 0221     		movs	r1, #2
 2701 01de 1800     		movs	r0, r3
 2702 01e0 FFF7FEFF 		bl	I2C_Enable_IRQ
 2703              	.L147:
 2704 01e4 0023     		movs	r3, #0
 2705 01e6 00E0     		b	.L139
 2706              	.L137:
ARM GAS  /tmp/ccnCrYSN.s 			page 48


 2707 01e8 0223     		movs	r3, #2
 2708              	.L139:
 2709 01ea 1800     		movs	r0, r3
 2710 01ec BD46     		mov	sp, r7
 2711 01ee 06B0     		add	sp, sp, #24
 2712              		@ sp needed
 2713 01f0 B0BD     		pop	{r4, r5, r7, pc}
 2714              	.L150:
 2715 01f2 C046     		.align	2
 2716              	.L149:
 2717 01f4 0000FFFF 		.word	-65536
 2718 01f8 00000000 		.word	I2C_Master_ISR_DMA
 2719 01fc 00000000 		.word	I2C_DMAMasterReceiveCplt
 2720 0200 00000000 		.word	I2C_DMAError
 2721 0204 00240080 		.word	-2147474432
 2722 0208 00000000 		.word	I2C_Master_ISR_IT
 2724              		.section	.text.HAL_I2C_Slave_Transmit_DMA,"ax",%progbits
 2725              		.align	1
 2726              		.global	HAL_I2C_Slave_Transmit_DMA
 2727              		.syntax unified
 2728              		.code	16
 2729              		.thumb_func
 2731              	HAL_I2C_Slave_Transmit_DMA:
 2732              		@ args = 0, pretend = 0, frame = 24
 2733              		@ frame_needed = 1, uses_anonymous_args = 0
 2734 0000 B0B5     		push	{r4, r5, r7, lr}
 2735 0002 86B0     		sub	sp, sp, #24
 2736 0004 00AF     		add	r7, sp, #0
 2737 0006 F860     		str	r0, [r7, #12]
 2738 0008 B960     		str	r1, [r7, #8]
 2739 000a BB1D     		adds	r3, r7, #6
 2740 000c 1A80     		strh	r2, [r3]
 2741 000e FB68     		ldr	r3, [r7, #12]
 2742 0010 4122     		movs	r2, #65
 2743 0012 9B5C     		ldrb	r3, [r3, r2]
 2744 0014 DBB2     		uxtb	r3, r3
 2745 0016 202B     		cmp	r3, #32
 2746 0018 00D0     		beq	.LCB2924
 2747 001a DBE0     		b	.L152	@long jump
 2748              	.LCB2924:
 2749 001c BB68     		ldr	r3, [r7, #8]
 2750 001e 002B     		cmp	r3, #0
 2751 0020 03D0     		beq	.L153
 2752 0022 BB1D     		adds	r3, r7, #6
 2753 0024 1B88     		ldrh	r3, [r3]
 2754 0026 002B     		cmp	r3, #0
 2755 0028 05D1     		bne	.L154
 2756              	.L153:
 2757 002a FB68     		ldr	r3, [r7, #12]
 2758 002c 8022     		movs	r2, #128
 2759 002e 9200     		lsls	r2, r2, #2
 2760 0030 5A64     		str	r2, [r3, #68]
 2761 0032 0123     		movs	r3, #1
 2762 0034 CFE0     		b	.L155
 2763              	.L154:
 2764 0036 FB68     		ldr	r3, [r7, #12]
 2765 0038 4022     		movs	r2, #64
ARM GAS  /tmp/ccnCrYSN.s 			page 49


 2766 003a 9B5C     		ldrb	r3, [r3, r2]
 2767 003c 012B     		cmp	r3, #1
 2768 003e 01D1     		bne	.L156
 2769 0040 0223     		movs	r3, #2
 2770 0042 C8E0     		b	.L155
 2771              	.L156:
 2772 0044 FB68     		ldr	r3, [r7, #12]
 2773 0046 4022     		movs	r2, #64
 2774 0048 0121     		movs	r1, #1
 2775 004a 9954     		strb	r1, [r3, r2]
 2776 004c FB68     		ldr	r3, [r7, #12]
 2777 004e 4122     		movs	r2, #65
 2778 0050 2121     		movs	r1, #33
 2779 0052 9954     		strb	r1, [r3, r2]
 2780 0054 FB68     		ldr	r3, [r7, #12]
 2781 0056 4222     		movs	r2, #66
 2782 0058 2021     		movs	r1, #32
 2783 005a 9954     		strb	r1, [r3, r2]
 2784 005c FB68     		ldr	r3, [r7, #12]
 2785 005e 0022     		movs	r2, #0
 2786 0060 5A64     		str	r2, [r3, #68]
 2787 0062 FB68     		ldr	r3, [r7, #12]
 2788 0064 BA68     		ldr	r2, [r7, #8]
 2789 0066 5A62     		str	r2, [r3, #36]
 2790 0068 FB68     		ldr	r3, [r7, #12]
 2791 006a BA1D     		adds	r2, r7, #6
 2792 006c 1288     		ldrh	r2, [r2]
 2793 006e 5A85     		strh	r2, [r3, #42]
 2794 0070 FB68     		ldr	r3, [r7, #12]
 2795 0072 5B8D     		ldrh	r3, [r3, #42]
 2796 0074 9AB2     		uxth	r2, r3
 2797 0076 FB68     		ldr	r3, [r7, #12]
 2798 0078 1A85     		strh	r2, [r3, #40]
 2799 007a FB68     		ldr	r3, [r7, #12]
 2800 007c 584A     		ldr	r2, .L164
 2801 007e DA62     		str	r2, [r3, #44]
 2802 0080 FB68     		ldr	r3, [r7, #12]
 2803 0082 584A     		ldr	r2, .L164+4
 2804 0084 5A63     		str	r2, [r3, #52]
 2805 0086 FB68     		ldr	r3, [r7, #12]
 2806 0088 1A6A     		ldr	r2, [r3, #32]
 2807 008a 8023     		movs	r3, #128
 2808 008c 9B02     		lsls	r3, r3, #10
 2809 008e 9A42     		cmp	r2, r3
 2810 0090 17D1     		bne	.L157
 2811 0092 FB68     		ldr	r3, [r7, #12]
 2812 0094 5B6A     		ldr	r3, [r3, #36]
 2813 0096 1A78     		ldrb	r2, [r3]
 2814 0098 FB68     		ldr	r3, [r7, #12]
 2815 009a 1B68     		ldr	r3, [r3]
 2816 009c 9A62     		str	r2, [r3, #40]
 2817 009e FB68     		ldr	r3, [r7, #12]
 2818 00a0 5B6A     		ldr	r3, [r3, #36]
 2819 00a2 5A1C     		adds	r2, r3, #1
 2820 00a4 FB68     		ldr	r3, [r7, #12]
 2821 00a6 5A62     		str	r2, [r3, #36]
 2822 00a8 FB68     		ldr	r3, [r7, #12]
ARM GAS  /tmp/ccnCrYSN.s 			page 50


 2823 00aa 5B8D     		ldrh	r3, [r3, #42]
 2824 00ac 9BB2     		uxth	r3, r3
 2825 00ae 013B     		subs	r3, r3, #1
 2826 00b0 9AB2     		uxth	r2, r3
 2827 00b2 FB68     		ldr	r3, [r7, #12]
 2828 00b4 5A85     		strh	r2, [r3, #42]
 2829 00b6 FB68     		ldr	r3, [r7, #12]
 2830 00b8 1B8D     		ldrh	r3, [r3, #40]
 2831 00ba 013B     		subs	r3, r3, #1
 2832 00bc 9AB2     		uxth	r2, r3
 2833 00be FB68     		ldr	r3, [r7, #12]
 2834 00c0 1A85     		strh	r2, [r3, #40]
 2835              	.L157:
 2836 00c2 FB68     		ldr	r3, [r7, #12]
 2837 00c4 5B8D     		ldrh	r3, [r3, #42]
 2838 00c6 9BB2     		uxth	r3, r3
 2839 00c8 002B     		cmp	r3, #0
 2840 00ca 6ED0     		beq	.L158
 2841 00cc FB68     		ldr	r3, [r7, #12]
 2842 00ce 9B6B     		ldr	r3, [r3, #56]
 2843 00d0 002B     		cmp	r3, #0
 2844 00d2 25D0     		beq	.L159
 2845 00d4 FB68     		ldr	r3, [r7, #12]
 2846 00d6 9B6B     		ldr	r3, [r3, #56]
 2847 00d8 434A     		ldr	r2, .L164+8
 2848 00da 9A62     		str	r2, [r3, #40]
 2849 00dc FB68     		ldr	r3, [r7, #12]
 2850 00de 9B6B     		ldr	r3, [r3, #56]
 2851 00e0 424A     		ldr	r2, .L164+12
 2852 00e2 1A63     		str	r2, [r3, #48]
 2853 00e4 FB68     		ldr	r3, [r7, #12]
 2854 00e6 9B6B     		ldr	r3, [r3, #56]
 2855 00e8 0022     		movs	r2, #0
 2856 00ea DA62     		str	r2, [r3, #44]
 2857 00ec FB68     		ldr	r3, [r7, #12]
 2858 00ee 9B6B     		ldr	r3, [r3, #56]
 2859 00f0 0022     		movs	r2, #0
 2860 00f2 5A63     		str	r2, [r3, #52]
 2861 00f4 FB68     		ldr	r3, [r7, #12]
 2862 00f6 986B     		ldr	r0, [r3, #56]
 2863 00f8 FB68     		ldr	r3, [r7, #12]
 2864 00fa 5B6A     		ldr	r3, [r3, #36]
 2865 00fc 1900     		movs	r1, r3
 2866 00fe FB68     		ldr	r3, [r7, #12]
 2867 0100 1B68     		ldr	r3, [r3]
 2868 0102 2833     		adds	r3, r3, #40
 2869 0104 1A00     		movs	r2, r3
 2870 0106 FB68     		ldr	r3, [r7, #12]
 2871 0108 1B8D     		ldrh	r3, [r3, #40]
 2872 010a 1725     		movs	r5, #23
 2873 010c 7C19     		adds	r4, r7, r5
 2874 010e FFF7FEFF 		bl	HAL_DMA_Start_IT
 2875 0112 0300     		movs	r3, r0
 2876 0114 2370     		strb	r3, [r4]
 2877 0116 7B19     		adds	r3, r7, r5
 2878 0118 1B78     		ldrb	r3, [r3]
 2879 011a 002B     		cmp	r3, #0
ARM GAS  /tmp/ccnCrYSN.s 			page 51


 2880 011c 31D1     		bne	.L161
 2881 011e 13E0     		b	.L163
 2882              	.L159:
 2883 0120 FB68     		ldr	r3, [r7, #12]
 2884 0122 4122     		movs	r2, #65
 2885 0124 2821     		movs	r1, #40
 2886 0126 9954     		strb	r1, [r3, r2]
 2887 0128 FB68     		ldr	r3, [r7, #12]
 2888 012a 4222     		movs	r2, #66
 2889 012c 0021     		movs	r1, #0
 2890 012e 9954     		strb	r1, [r3, r2]
 2891 0130 FB68     		ldr	r3, [r7, #12]
 2892 0132 5B6C     		ldr	r3, [r3, #68]
 2893 0134 8022     		movs	r2, #128
 2894 0136 1A43     		orrs	r2, r3
 2895 0138 FB68     		ldr	r3, [r7, #12]
 2896 013a 5A64     		str	r2, [r3, #68]
 2897 013c FB68     		ldr	r3, [r7, #12]
 2898 013e 4022     		movs	r2, #64
 2899 0140 0021     		movs	r1, #0
 2900 0142 9954     		strb	r1, [r3, r2]
 2901 0144 0123     		movs	r3, #1
 2902 0146 46E0     		b	.L155
 2903              	.L163:
 2904 0148 FB68     		ldr	r3, [r7, #12]
 2905 014a 1B68     		ldr	r3, [r3]
 2906 014c 5A68     		ldr	r2, [r3, #4]
 2907 014e FB68     		ldr	r3, [r7, #12]
 2908 0150 1B68     		ldr	r3, [r3]
 2909 0152 2749     		ldr	r1, .L164+16
 2910 0154 0A40     		ands	r2, r1
 2911 0156 5A60     		str	r2, [r3, #4]
 2912 0158 FB68     		ldr	r3, [r7, #12]
 2913 015a 4022     		movs	r2, #64
 2914 015c 0021     		movs	r1, #0
 2915 015e 9954     		strb	r1, [r3, r2]
 2916 0160 8023     		movs	r3, #128
 2917 0162 1A02     		lsls	r2, r3, #8
 2918 0164 FB68     		ldr	r3, [r7, #12]
 2919 0166 1100     		movs	r1, r2
 2920 0168 1800     		movs	r0, r3
 2921 016a FFF7FEFF 		bl	I2C_Enable_IRQ
 2922 016e FB68     		ldr	r3, [r7, #12]
 2923 0170 1B68     		ldr	r3, [r3]
 2924 0172 1A68     		ldr	r2, [r3]
 2925 0174 FB68     		ldr	r3, [r7, #12]
 2926 0176 1B68     		ldr	r3, [r3]
 2927 0178 8021     		movs	r1, #128
 2928 017a C901     		lsls	r1, r1, #7
 2929 017c 0A43     		orrs	r2, r1
 2930 017e 1A60     		str	r2, [r3]
 2931 0180 26E0     		b	.L162
 2932              	.L161:
 2933 0182 FB68     		ldr	r3, [r7, #12]
 2934 0184 4122     		movs	r2, #65
 2935 0186 2821     		movs	r1, #40
 2936 0188 9954     		strb	r1, [r3, r2]
ARM GAS  /tmp/ccnCrYSN.s 			page 52


 2937 018a FB68     		ldr	r3, [r7, #12]
 2938 018c 4222     		movs	r2, #66
 2939 018e 0021     		movs	r1, #0
 2940 0190 9954     		strb	r1, [r3, r2]
 2941 0192 FB68     		ldr	r3, [r7, #12]
 2942 0194 5B6C     		ldr	r3, [r3, #68]
 2943 0196 1022     		movs	r2, #16
 2944 0198 1A43     		orrs	r2, r3
 2945 019a FB68     		ldr	r3, [r7, #12]
 2946 019c 5A64     		str	r2, [r3, #68]
 2947 019e FB68     		ldr	r3, [r7, #12]
 2948 01a0 4022     		movs	r2, #64
 2949 01a2 0021     		movs	r1, #0
 2950 01a4 9954     		strb	r1, [r3, r2]
 2951 01a6 0123     		movs	r3, #1
 2952 01a8 15E0     		b	.L155
 2953              	.L158:
 2954 01aa FB68     		ldr	r3, [r7, #12]
 2955 01ac 1B68     		ldr	r3, [r3]
 2956 01ae 5A68     		ldr	r2, [r3, #4]
 2957 01b0 FB68     		ldr	r3, [r7, #12]
 2958 01b2 1B68     		ldr	r3, [r3]
 2959 01b4 0E49     		ldr	r1, .L164+16
 2960 01b6 0A40     		ands	r2, r1
 2961 01b8 5A60     		str	r2, [r3, #4]
 2962 01ba FB68     		ldr	r3, [r7, #12]
 2963 01bc 4022     		movs	r2, #64
 2964 01be 0021     		movs	r1, #0
 2965 01c0 9954     		strb	r1, [r3, r2]
 2966 01c2 8023     		movs	r3, #128
 2967 01c4 1A02     		lsls	r2, r3, #8
 2968 01c6 FB68     		ldr	r3, [r7, #12]
 2969 01c8 1100     		movs	r1, r2
 2970 01ca 1800     		movs	r0, r3
 2971 01cc FFF7FEFF 		bl	I2C_Enable_IRQ
 2972              	.L162:
 2973 01d0 0023     		movs	r3, #0
 2974 01d2 00E0     		b	.L155
 2975              	.L152:
 2976 01d4 0223     		movs	r3, #2
 2977              	.L155:
 2978 01d6 1800     		movs	r0, r3
 2979 01d8 BD46     		mov	sp, r7
 2980 01da 06B0     		add	sp, sp, #24
 2981              		@ sp needed
 2982 01dc B0BD     		pop	{r4, r5, r7, pc}
 2983              	.L165:
 2984 01de C046     		.align	2
 2985              	.L164:
 2986 01e0 0000FFFF 		.word	-65536
 2987 01e4 00000000 		.word	I2C_Slave_ISR_DMA
 2988 01e8 00000000 		.word	I2C_DMASlaveTransmitCplt
 2989 01ec 00000000 		.word	I2C_DMAError
 2990 01f0 FF7FFFFF 		.word	-32769
 2992              		.section	.text.HAL_I2C_Slave_Receive_DMA,"ax",%progbits
 2993              		.align	1
 2994              		.global	HAL_I2C_Slave_Receive_DMA
ARM GAS  /tmp/ccnCrYSN.s 			page 53


 2995              		.syntax unified
 2996              		.code	16
 2997              		.thumb_func
 2999              	HAL_I2C_Slave_Receive_DMA:
 3000              		@ args = 0, pretend = 0, frame = 24
 3001              		@ frame_needed = 1, uses_anonymous_args = 0
 3002 0000 B0B5     		push	{r4, r5, r7, lr}
 3003 0002 86B0     		sub	sp, sp, #24
 3004 0004 00AF     		add	r7, sp, #0
 3005 0006 F860     		str	r0, [r7, #12]
 3006 0008 B960     		str	r1, [r7, #8]
 3007 000a BB1D     		adds	r3, r7, #6
 3008 000c 1A80     		strh	r2, [r3]
 3009 000e FB68     		ldr	r3, [r7, #12]
 3010 0010 4122     		movs	r2, #65
 3011 0012 9B5C     		ldrb	r3, [r3, r2]
 3012 0014 DBB2     		uxtb	r3, r3
 3013 0016 202B     		cmp	r3, #32
 3014 0018 00D0     		beq	.LCB3211
 3015 001a A2E0     		b	.L167	@long jump
 3016              	.LCB3211:
 3017 001c BB68     		ldr	r3, [r7, #8]
 3018 001e 002B     		cmp	r3, #0
 3019 0020 03D0     		beq	.L168
 3020 0022 BB1D     		adds	r3, r7, #6
 3021 0024 1B88     		ldrh	r3, [r3]
 3022 0026 002B     		cmp	r3, #0
 3023 0028 05D1     		bne	.L169
 3024              	.L168:
 3025 002a FB68     		ldr	r3, [r7, #12]
 3026 002c 8022     		movs	r2, #128
 3027 002e 9200     		lsls	r2, r2, #2
 3028 0030 5A64     		str	r2, [r3, #68]
 3029 0032 0123     		movs	r3, #1
 3030 0034 96E0     		b	.L170
 3031              	.L169:
 3032 0036 FB68     		ldr	r3, [r7, #12]
 3033 0038 4022     		movs	r2, #64
 3034 003a 9B5C     		ldrb	r3, [r3, r2]
 3035 003c 012B     		cmp	r3, #1
 3036 003e 01D1     		bne	.L171
 3037 0040 0223     		movs	r3, #2
 3038 0042 8FE0     		b	.L170
 3039              	.L171:
 3040 0044 FB68     		ldr	r3, [r7, #12]
 3041 0046 4022     		movs	r2, #64
 3042 0048 0121     		movs	r1, #1
 3043 004a 9954     		strb	r1, [r3, r2]
 3044 004c FB68     		ldr	r3, [r7, #12]
 3045 004e 4122     		movs	r2, #65
 3046 0050 2221     		movs	r1, #34
 3047 0052 9954     		strb	r1, [r3, r2]
 3048 0054 FB68     		ldr	r3, [r7, #12]
 3049 0056 4222     		movs	r2, #66
 3050 0058 2021     		movs	r1, #32
 3051 005a 9954     		strb	r1, [r3, r2]
 3052 005c FB68     		ldr	r3, [r7, #12]
ARM GAS  /tmp/ccnCrYSN.s 			page 54


 3053 005e 0022     		movs	r2, #0
 3054 0060 5A64     		str	r2, [r3, #68]
 3055 0062 FB68     		ldr	r3, [r7, #12]
 3056 0064 BA68     		ldr	r2, [r7, #8]
 3057 0066 5A62     		str	r2, [r3, #36]
 3058 0068 FB68     		ldr	r3, [r7, #12]
 3059 006a BA1D     		adds	r2, r7, #6
 3060 006c 1288     		ldrh	r2, [r2]
 3061 006e 5A85     		strh	r2, [r3, #42]
 3062 0070 FB68     		ldr	r3, [r7, #12]
 3063 0072 5B8D     		ldrh	r3, [r3, #42]
 3064 0074 9AB2     		uxth	r2, r3
 3065 0076 FB68     		ldr	r3, [r7, #12]
 3066 0078 1A85     		strh	r2, [r3, #40]
 3067 007a FB68     		ldr	r3, [r7, #12]
 3068 007c 3B4A     		ldr	r2, .L177
 3069 007e DA62     		str	r2, [r3, #44]
 3070 0080 FB68     		ldr	r3, [r7, #12]
 3071 0082 3B4A     		ldr	r2, .L177+4
 3072 0084 5A63     		str	r2, [r3, #52]
 3073 0086 FB68     		ldr	r3, [r7, #12]
 3074 0088 DB6B     		ldr	r3, [r3, #60]
 3075 008a 002B     		cmp	r3, #0
 3076 008c 23D0     		beq	.L172
 3077 008e FB68     		ldr	r3, [r7, #12]
 3078 0090 DB6B     		ldr	r3, [r3, #60]
 3079 0092 384A     		ldr	r2, .L177+8
 3080 0094 9A62     		str	r2, [r3, #40]
 3081 0096 FB68     		ldr	r3, [r7, #12]
 3082 0098 DB6B     		ldr	r3, [r3, #60]
 3083 009a 374A     		ldr	r2, .L177+12
 3084 009c 1A63     		str	r2, [r3, #48]
 3085 009e FB68     		ldr	r3, [r7, #12]
 3086 00a0 DB6B     		ldr	r3, [r3, #60]
 3087 00a2 0022     		movs	r2, #0
 3088 00a4 DA62     		str	r2, [r3, #44]
 3089 00a6 FB68     		ldr	r3, [r7, #12]
 3090 00a8 DB6B     		ldr	r3, [r3, #60]
 3091 00aa 0022     		movs	r2, #0
 3092 00ac 5A63     		str	r2, [r3, #52]
 3093 00ae FB68     		ldr	r3, [r7, #12]
 3094 00b0 D86B     		ldr	r0, [r3, #60]
 3095 00b2 FB68     		ldr	r3, [r7, #12]
 3096 00b4 1B68     		ldr	r3, [r3]
 3097 00b6 2433     		adds	r3, r3, #36
 3098 00b8 1900     		movs	r1, r3
 3099 00ba BA68     		ldr	r2, [r7, #8]
 3100 00bc FB68     		ldr	r3, [r7, #12]
 3101 00be 1B8D     		ldrh	r3, [r3, #40]
 3102 00c0 1725     		movs	r5, #23
 3103 00c2 7C19     		adds	r4, r7, r5
 3104 00c4 FFF7FEFF 		bl	HAL_DMA_Start_IT
 3105 00c8 0300     		movs	r3, r0
 3106 00ca 2370     		strb	r3, [r4]
 3107 00cc 7B19     		adds	r3, r7, r5
 3108 00ce 1B78     		ldrb	r3, [r3]
 3109 00d0 002B     		cmp	r3, #0
ARM GAS  /tmp/ccnCrYSN.s 			page 55


 3110 00d2 32D1     		bne	.L174
 3111 00d4 13E0     		b	.L176
 3112              	.L172:
 3113 00d6 FB68     		ldr	r3, [r7, #12]
 3114 00d8 4122     		movs	r2, #65
 3115 00da 2821     		movs	r1, #40
 3116 00dc 9954     		strb	r1, [r3, r2]
 3117 00de FB68     		ldr	r3, [r7, #12]
 3118 00e0 4222     		movs	r2, #66
 3119 00e2 0021     		movs	r1, #0
 3120 00e4 9954     		strb	r1, [r3, r2]
 3121 00e6 FB68     		ldr	r3, [r7, #12]
 3122 00e8 5B6C     		ldr	r3, [r3, #68]
 3123 00ea 8022     		movs	r2, #128
 3124 00ec 1A43     		orrs	r2, r3
 3125 00ee FB68     		ldr	r3, [r7, #12]
 3126 00f0 5A64     		str	r2, [r3, #68]
 3127 00f2 FB68     		ldr	r3, [r7, #12]
 3128 00f4 4022     		movs	r2, #64
 3129 00f6 0021     		movs	r1, #0
 3130 00f8 9954     		strb	r1, [r3, r2]
 3131 00fa 0123     		movs	r3, #1
 3132 00fc 32E0     		b	.L170
 3133              	.L176:
 3134 00fe FB68     		ldr	r3, [r7, #12]
 3135 0100 1B68     		ldr	r3, [r3]
 3136 0102 5A68     		ldr	r2, [r3, #4]
 3137 0104 FB68     		ldr	r3, [r7, #12]
 3138 0106 1B68     		ldr	r3, [r3]
 3139 0108 1C49     		ldr	r1, .L177+16
 3140 010a 0A40     		ands	r2, r1
 3141 010c 5A60     		str	r2, [r3, #4]
 3142 010e FB68     		ldr	r3, [r7, #12]
 3143 0110 4022     		movs	r2, #64
 3144 0112 0021     		movs	r1, #0
 3145 0114 9954     		strb	r1, [r3, r2]
 3146 0116 8023     		movs	r3, #128
 3147 0118 1A02     		lsls	r2, r3, #8
 3148 011a FB68     		ldr	r3, [r7, #12]
 3149 011c 1100     		movs	r1, r2
 3150 011e 1800     		movs	r0, r3
 3151 0120 FFF7FEFF 		bl	I2C_Enable_IRQ
 3152 0124 FB68     		ldr	r3, [r7, #12]
 3153 0126 1B68     		ldr	r3, [r3]
 3154 0128 1A68     		ldr	r2, [r3]
 3155 012a FB68     		ldr	r3, [r7, #12]
 3156 012c 1B68     		ldr	r3, [r3]
 3157 012e 8021     		movs	r1, #128
 3158 0130 0902     		lsls	r1, r1, #8
 3159 0132 0A43     		orrs	r2, r1
 3160 0134 1A60     		str	r2, [r3]
 3161 0136 0023     		movs	r3, #0
 3162 0138 14E0     		b	.L170
 3163              	.L174:
 3164 013a FB68     		ldr	r3, [r7, #12]
 3165 013c 4122     		movs	r2, #65
 3166 013e 2821     		movs	r1, #40
ARM GAS  /tmp/ccnCrYSN.s 			page 56


 3167 0140 9954     		strb	r1, [r3, r2]
 3168 0142 FB68     		ldr	r3, [r7, #12]
 3169 0144 4222     		movs	r2, #66
 3170 0146 0021     		movs	r1, #0
 3171 0148 9954     		strb	r1, [r3, r2]
 3172 014a FB68     		ldr	r3, [r7, #12]
 3173 014c 5B6C     		ldr	r3, [r3, #68]
 3174 014e 1022     		movs	r2, #16
 3175 0150 1A43     		orrs	r2, r3
 3176 0152 FB68     		ldr	r3, [r7, #12]
 3177 0154 5A64     		str	r2, [r3, #68]
 3178 0156 FB68     		ldr	r3, [r7, #12]
 3179 0158 4022     		movs	r2, #64
 3180 015a 0021     		movs	r1, #0
 3181 015c 9954     		strb	r1, [r3, r2]
 3182 015e 0123     		movs	r3, #1
 3183 0160 00E0     		b	.L170
 3184              	.L167:
 3185 0162 0223     		movs	r3, #2
 3186              	.L170:
 3187 0164 1800     		movs	r0, r3
 3188 0166 BD46     		mov	sp, r7
 3189 0168 06B0     		add	sp, sp, #24
 3190              		@ sp needed
 3191 016a B0BD     		pop	{r4, r5, r7, pc}
 3192              	.L178:
 3193              		.align	2
 3194              	.L177:
 3195 016c 0000FFFF 		.word	-65536
 3196 0170 00000000 		.word	I2C_Slave_ISR_DMA
 3197 0174 00000000 		.word	I2C_DMASlaveReceiveCplt
 3198 0178 00000000 		.word	I2C_DMAError
 3199 017c FF7FFFFF 		.word	-32769
 3201              		.section	.text.HAL_I2C_Mem_Write,"ax",%progbits
 3202              		.align	1
 3203              		.global	HAL_I2C_Mem_Write
 3204              		.syntax unified
 3205              		.code	16
 3206              		.thumb_func
 3208              	HAL_I2C_Mem_Write:
 3209              		@ args = 12, pretend = 0, frame = 24
 3210              		@ frame_needed = 1, uses_anonymous_args = 0
 3211 0000 90B5     		push	{r4, r7, lr}
 3212 0002 89B0     		sub	sp, sp, #36
 3213 0004 02AF     		add	r7, sp, #8
 3214 0006 F860     		str	r0, [r7, #12]
 3215 0008 0C00     		movs	r4, r1
 3216 000a 1000     		movs	r0, r2
 3217 000c 1900     		movs	r1, r3
 3218 000e 0A23     		movs	r3, #10
 3219 0010 FB18     		adds	r3, r7, r3
 3220 0012 221C     		adds	r2, r4, #0
 3221 0014 1A80     		strh	r2, [r3]
 3222 0016 0823     		movs	r3, #8
 3223 0018 FB18     		adds	r3, r7, r3
 3224 001a 021C     		adds	r2, r0, #0
 3225 001c 1A80     		strh	r2, [r3]
ARM GAS  /tmp/ccnCrYSN.s 			page 57


 3226 001e BB1D     		adds	r3, r7, #6
 3227 0020 0A1C     		adds	r2, r1, #0
 3228 0022 1A80     		strh	r2, [r3]
 3229 0024 FB68     		ldr	r3, [r7, #12]
 3230 0026 4122     		movs	r2, #65
 3231 0028 9B5C     		ldrb	r3, [r3, r2]
 3232 002a DBB2     		uxtb	r3, r3
 3233 002c 202B     		cmp	r3, #32
 3234 002e 00D0     		beq	.LCB3446
 3235 0030 0CE1     		b	.L180	@long jump
 3236              	.LCB3446:
 3237 0032 BB6A     		ldr	r3, [r7, #40]
 3238 0034 002B     		cmp	r3, #0
 3239 0036 04D0     		beq	.L181
 3240 0038 2C23     		movs	r3, #44
 3241 003a FB18     		adds	r3, r7, r3
 3242 003c 1B88     		ldrh	r3, [r3]
 3243 003e 002B     		cmp	r3, #0
 3244 0040 05D1     		bne	.L182
 3245              	.L181:
 3246 0042 FB68     		ldr	r3, [r7, #12]
 3247 0044 8022     		movs	r2, #128
 3248 0046 9200     		lsls	r2, r2, #2
 3249 0048 5A64     		str	r2, [r3, #68]
 3250 004a 0123     		movs	r3, #1
 3251 004c FFE0     		b	.L183
 3252              	.L182:
 3253 004e FB68     		ldr	r3, [r7, #12]
 3254 0050 4022     		movs	r2, #64
 3255 0052 9B5C     		ldrb	r3, [r3, r2]
 3256 0054 012B     		cmp	r3, #1
 3257 0056 01D1     		bne	.L184
 3258 0058 0223     		movs	r3, #2
 3259 005a F8E0     		b	.L183
 3260              	.L184:
 3261 005c FB68     		ldr	r3, [r7, #12]
 3262 005e 4022     		movs	r2, #64
 3263 0060 0121     		movs	r1, #1
 3264 0062 9954     		strb	r1, [r3, r2]
 3265 0064 FFF7FEFF 		bl	HAL_GetTick
 3266 0068 0300     		movs	r3, r0
 3267 006a 7B61     		str	r3, [r7, #20]
 3268 006c 8023     		movs	r3, #128
 3269 006e 1902     		lsls	r1, r3, #8
 3270 0070 F868     		ldr	r0, [r7, #12]
 3271 0072 7B69     		ldr	r3, [r7, #20]
 3272 0074 0093     		str	r3, [sp]
 3273 0076 1923     		movs	r3, #25
 3274 0078 0122     		movs	r2, #1
 3275 007a FFF7FEFF 		bl	I2C_WaitOnFlagUntilTimeout
 3276 007e 031E     		subs	r3, r0, #0
 3277 0080 01D0     		beq	.L185
 3278 0082 0123     		movs	r3, #1
 3279 0084 E3E0     		b	.L183
 3280              	.L185:
 3281 0086 FB68     		ldr	r3, [r7, #12]
 3282 0088 4122     		movs	r2, #65
ARM GAS  /tmp/ccnCrYSN.s 			page 58


 3283 008a 2121     		movs	r1, #33
 3284 008c 9954     		strb	r1, [r3, r2]
 3285 008e FB68     		ldr	r3, [r7, #12]
 3286 0090 4222     		movs	r2, #66
 3287 0092 4021     		movs	r1, #64
 3288 0094 9954     		strb	r1, [r3, r2]
 3289 0096 FB68     		ldr	r3, [r7, #12]
 3290 0098 0022     		movs	r2, #0
 3291 009a 5A64     		str	r2, [r3, #68]
 3292 009c FB68     		ldr	r3, [r7, #12]
 3293 009e BA6A     		ldr	r2, [r7, #40]
 3294 00a0 5A62     		str	r2, [r3, #36]
 3295 00a2 FB68     		ldr	r3, [r7, #12]
 3296 00a4 2C22     		movs	r2, #44
 3297 00a6 BA18     		adds	r2, r7, r2
 3298 00a8 1288     		ldrh	r2, [r2]
 3299 00aa 5A85     		strh	r2, [r3, #42]
 3300 00ac FB68     		ldr	r3, [r7, #12]
 3301 00ae 0022     		movs	r2, #0
 3302 00b0 5A63     		str	r2, [r3, #52]
 3303 00b2 BB1D     		adds	r3, r7, #6
 3304 00b4 1C88     		ldrh	r4, [r3]
 3305 00b6 0823     		movs	r3, #8
 3306 00b8 FB18     		adds	r3, r7, r3
 3307 00ba 1A88     		ldrh	r2, [r3]
 3308 00bc 0A23     		movs	r3, #10
 3309 00be FB18     		adds	r3, r7, r3
 3310 00c0 1988     		ldrh	r1, [r3]
 3311 00c2 F868     		ldr	r0, [r7, #12]
 3312 00c4 7B69     		ldr	r3, [r7, #20]
 3313 00c6 0193     		str	r3, [sp, #4]
 3314 00c8 3B6B     		ldr	r3, [r7, #48]
 3315 00ca 0093     		str	r3, [sp]
 3316 00cc 2300     		movs	r3, r4
 3317 00ce FFF7FEFF 		bl	I2C_RequestMemoryWrite
 3318 00d2 031E     		subs	r3, r0, #0
 3319 00d4 05D0     		beq	.L186
 3320 00d6 FB68     		ldr	r3, [r7, #12]
 3321 00d8 4022     		movs	r2, #64
 3322 00da 0021     		movs	r1, #0
 3323 00dc 9954     		strb	r1, [r3, r2]
 3324 00de 0123     		movs	r3, #1
 3325 00e0 B5E0     		b	.L183
 3326              	.L186:
 3327 00e2 FB68     		ldr	r3, [r7, #12]
 3328 00e4 5B8D     		ldrh	r3, [r3, #42]
 3329 00e6 9BB2     		uxth	r3, r3
 3330 00e8 FF2B     		cmp	r3, #255
 3331 00ea 11D9     		bls	.L187
 3332 00ec FB68     		ldr	r3, [r7, #12]
 3333 00ee FF22     		movs	r2, #255
 3334 00f0 1A85     		strh	r2, [r3, #40]
 3335 00f2 FB68     		ldr	r3, [r7, #12]
 3336 00f4 1B8D     		ldrh	r3, [r3, #40]
 3337 00f6 DAB2     		uxtb	r2, r3
 3338 00f8 8023     		movs	r3, #128
 3339 00fa 5C04     		lsls	r4, r3, #17
ARM GAS  /tmp/ccnCrYSN.s 			page 59


 3340 00fc 0A23     		movs	r3, #10
 3341 00fe FB18     		adds	r3, r7, r3
 3342 0100 1988     		ldrh	r1, [r3]
 3343 0102 F868     		ldr	r0, [r7, #12]
 3344 0104 0023     		movs	r3, #0
 3345 0106 0093     		str	r3, [sp]
 3346 0108 2300     		movs	r3, r4
 3347 010a FFF7FEFF 		bl	I2C_TransferConfig
 3348 010e 12E0     		b	.L193
 3349              	.L187:
 3350 0110 FB68     		ldr	r3, [r7, #12]
 3351 0112 5B8D     		ldrh	r3, [r3, #42]
 3352 0114 9AB2     		uxth	r2, r3
 3353 0116 FB68     		ldr	r3, [r7, #12]
 3354 0118 1A85     		strh	r2, [r3, #40]
 3355 011a FB68     		ldr	r3, [r7, #12]
 3356 011c 1B8D     		ldrh	r3, [r3, #40]
 3357 011e DAB2     		uxtb	r2, r3
 3358 0120 8023     		movs	r3, #128
 3359 0122 9C04     		lsls	r4, r3, #18
 3360 0124 0A23     		movs	r3, #10
 3361 0126 FB18     		adds	r3, r7, r3
 3362 0128 1988     		ldrh	r1, [r3]
 3363 012a F868     		ldr	r0, [r7, #12]
 3364 012c 0023     		movs	r3, #0
 3365 012e 0093     		str	r3, [sp]
 3366 0130 2300     		movs	r3, r4
 3367 0132 FFF7FEFF 		bl	I2C_TransferConfig
 3368              	.L193:
 3369 0136 7A69     		ldr	r2, [r7, #20]
 3370 0138 396B     		ldr	r1, [r7, #48]
 3371 013a FB68     		ldr	r3, [r7, #12]
 3372 013c 1800     		movs	r0, r3
 3373 013e FFF7FEFF 		bl	I2C_WaitOnTXISFlagUntilTimeout
 3374 0142 031E     		subs	r3, r0, #0
 3375 0144 01D0     		beq	.L189
 3376 0146 0123     		movs	r3, #1
 3377 0148 81E0     		b	.L183
 3378              	.L189:
 3379 014a FB68     		ldr	r3, [r7, #12]
 3380 014c 5B6A     		ldr	r3, [r3, #36]
 3381 014e 1A78     		ldrb	r2, [r3]
 3382 0150 FB68     		ldr	r3, [r7, #12]
 3383 0152 1B68     		ldr	r3, [r3]
 3384 0154 9A62     		str	r2, [r3, #40]
 3385 0156 FB68     		ldr	r3, [r7, #12]
 3386 0158 5B6A     		ldr	r3, [r3, #36]
 3387 015a 5A1C     		adds	r2, r3, #1
 3388 015c FB68     		ldr	r3, [r7, #12]
 3389 015e 5A62     		str	r2, [r3, #36]
 3390 0160 FB68     		ldr	r3, [r7, #12]
 3391 0162 5B8D     		ldrh	r3, [r3, #42]
 3392 0164 9BB2     		uxth	r3, r3
 3393 0166 013B     		subs	r3, r3, #1
 3394 0168 9AB2     		uxth	r2, r3
 3395 016a FB68     		ldr	r3, [r7, #12]
 3396 016c 5A85     		strh	r2, [r3, #42]
ARM GAS  /tmp/ccnCrYSN.s 			page 60


 3397 016e FB68     		ldr	r3, [r7, #12]
 3398 0170 1B8D     		ldrh	r3, [r3, #40]
 3399 0172 013B     		subs	r3, r3, #1
 3400 0174 9AB2     		uxth	r2, r3
 3401 0176 FB68     		ldr	r3, [r7, #12]
 3402 0178 1A85     		strh	r2, [r3, #40]
 3403 017a FB68     		ldr	r3, [r7, #12]
 3404 017c 5B8D     		ldrh	r3, [r3, #42]
 3405 017e 9BB2     		uxth	r3, r3
 3406 0180 002B     		cmp	r3, #0
 3407 0182 3AD0     		beq	.L190
 3408 0184 FB68     		ldr	r3, [r7, #12]
 3409 0186 1B8D     		ldrh	r3, [r3, #40]
 3410 0188 002B     		cmp	r3, #0
 3411 018a 36D1     		bne	.L190
 3412 018c 3A6B     		ldr	r2, [r7, #48]
 3413 018e F868     		ldr	r0, [r7, #12]
 3414 0190 7B69     		ldr	r3, [r7, #20]
 3415 0192 0093     		str	r3, [sp]
 3416 0194 1300     		movs	r3, r2
 3417 0196 0022     		movs	r2, #0
 3418 0198 8021     		movs	r1, #128
 3419 019a FFF7FEFF 		bl	I2C_WaitOnFlagUntilTimeout
 3420 019e 031E     		subs	r3, r0, #0
 3421 01a0 01D0     		beq	.L191
 3422 01a2 0123     		movs	r3, #1
 3423 01a4 53E0     		b	.L183
 3424              	.L191:
 3425 01a6 FB68     		ldr	r3, [r7, #12]
 3426 01a8 5B8D     		ldrh	r3, [r3, #42]
 3427 01aa 9BB2     		uxth	r3, r3
 3428 01ac FF2B     		cmp	r3, #255
 3429 01ae 11D9     		bls	.L192
 3430 01b0 FB68     		ldr	r3, [r7, #12]
 3431 01b2 FF22     		movs	r2, #255
 3432 01b4 1A85     		strh	r2, [r3, #40]
 3433 01b6 FB68     		ldr	r3, [r7, #12]
 3434 01b8 1B8D     		ldrh	r3, [r3, #40]
 3435 01ba DAB2     		uxtb	r2, r3
 3436 01bc 8023     		movs	r3, #128
 3437 01be 5C04     		lsls	r4, r3, #17
 3438 01c0 0A23     		movs	r3, #10
 3439 01c2 FB18     		adds	r3, r7, r3
 3440 01c4 1988     		ldrh	r1, [r3]
 3441 01c6 F868     		ldr	r0, [r7, #12]
 3442 01c8 0023     		movs	r3, #0
 3443 01ca 0093     		str	r3, [sp]
 3444 01cc 2300     		movs	r3, r4
 3445 01ce FFF7FEFF 		bl	I2C_TransferConfig
 3446 01d2 12E0     		b	.L190
 3447              	.L192:
 3448 01d4 FB68     		ldr	r3, [r7, #12]
 3449 01d6 5B8D     		ldrh	r3, [r3, #42]
 3450 01d8 9AB2     		uxth	r2, r3
 3451 01da FB68     		ldr	r3, [r7, #12]
 3452 01dc 1A85     		strh	r2, [r3, #40]
 3453 01de FB68     		ldr	r3, [r7, #12]
ARM GAS  /tmp/ccnCrYSN.s 			page 61


 3454 01e0 1B8D     		ldrh	r3, [r3, #40]
 3455 01e2 DAB2     		uxtb	r2, r3
 3456 01e4 8023     		movs	r3, #128
 3457 01e6 9C04     		lsls	r4, r3, #18
 3458 01e8 0A23     		movs	r3, #10
 3459 01ea FB18     		adds	r3, r7, r3
 3460 01ec 1988     		ldrh	r1, [r3]
 3461 01ee F868     		ldr	r0, [r7, #12]
 3462 01f0 0023     		movs	r3, #0
 3463 01f2 0093     		str	r3, [sp]
 3464 01f4 2300     		movs	r3, r4
 3465 01f6 FFF7FEFF 		bl	I2C_TransferConfig
 3466              	.L190:
 3467 01fa FB68     		ldr	r3, [r7, #12]
 3468 01fc 5B8D     		ldrh	r3, [r3, #42]
 3469 01fe 9BB2     		uxth	r3, r3
 3470 0200 002B     		cmp	r3, #0
 3471 0202 98D1     		bne	.L193
 3472 0204 7A69     		ldr	r2, [r7, #20]
 3473 0206 396B     		ldr	r1, [r7, #48]
 3474 0208 FB68     		ldr	r3, [r7, #12]
 3475 020a 1800     		movs	r0, r3
 3476 020c FFF7FEFF 		bl	I2C_WaitOnSTOPFlagUntilTimeout
 3477 0210 031E     		subs	r3, r0, #0
 3478 0212 01D0     		beq	.L194
 3479 0214 0123     		movs	r3, #1
 3480 0216 1AE0     		b	.L183
 3481              	.L194:
 3482 0218 FB68     		ldr	r3, [r7, #12]
 3483 021a 1B68     		ldr	r3, [r3]
 3484 021c 2022     		movs	r2, #32
 3485 021e DA61     		str	r2, [r3, #28]
 3486 0220 FB68     		ldr	r3, [r7, #12]
 3487 0222 1B68     		ldr	r3, [r3]
 3488 0224 5A68     		ldr	r2, [r3, #4]
 3489 0226 FB68     		ldr	r3, [r7, #12]
 3490 0228 1B68     		ldr	r3, [r3]
 3491 022a 0B49     		ldr	r1, .L195
 3492 022c 0A40     		ands	r2, r1
 3493 022e 5A60     		str	r2, [r3, #4]
 3494 0230 FB68     		ldr	r3, [r7, #12]
 3495 0232 4122     		movs	r2, #65
 3496 0234 2021     		movs	r1, #32
 3497 0236 9954     		strb	r1, [r3, r2]
 3498 0238 FB68     		ldr	r3, [r7, #12]
 3499 023a 4222     		movs	r2, #66
 3500 023c 0021     		movs	r1, #0
 3501 023e 9954     		strb	r1, [r3, r2]
 3502 0240 FB68     		ldr	r3, [r7, #12]
 3503 0242 4022     		movs	r2, #64
 3504 0244 0021     		movs	r1, #0
 3505 0246 9954     		strb	r1, [r3, r2]
 3506 0248 0023     		movs	r3, #0
 3507 024a 00E0     		b	.L183
 3508              	.L180:
 3509 024c 0223     		movs	r3, #2
 3510              	.L183:
ARM GAS  /tmp/ccnCrYSN.s 			page 62


 3511 024e 1800     		movs	r0, r3
 3512 0250 BD46     		mov	sp, r7
 3513 0252 07B0     		add	sp, sp, #28
 3514              		@ sp needed
 3515 0254 90BD     		pop	{r4, r7, pc}
 3516              	.L196:
 3517 0256 C046     		.align	2
 3518              	.L195:
 3519 0258 00E800FE 		.word	-33495040
 3521              		.section	.text.HAL_I2C_Mem_Read,"ax",%progbits
 3522              		.align	1
 3523              		.global	HAL_I2C_Mem_Read
 3524              		.syntax unified
 3525              		.code	16
 3526              		.thumb_func
 3528              	HAL_I2C_Mem_Read:
 3529              		@ args = 12, pretend = 0, frame = 24
 3530              		@ frame_needed = 1, uses_anonymous_args = 0
 3531 0000 90B5     		push	{r4, r7, lr}
 3532 0002 89B0     		sub	sp, sp, #36
 3533 0004 02AF     		add	r7, sp, #8
 3534 0006 F860     		str	r0, [r7, #12]
 3535 0008 0C00     		movs	r4, r1
 3536 000a 1000     		movs	r0, r2
 3537 000c 1900     		movs	r1, r3
 3538 000e 0A23     		movs	r3, #10
 3539 0010 FB18     		adds	r3, r7, r3
 3540 0012 221C     		adds	r2, r4, #0
 3541 0014 1A80     		strh	r2, [r3]
 3542 0016 0823     		movs	r3, #8
 3543 0018 FB18     		adds	r3, r7, r3
 3544 001a 021C     		adds	r2, r0, #0
 3545 001c 1A80     		strh	r2, [r3]
 3546 001e BB1D     		adds	r3, r7, #6
 3547 0020 0A1C     		adds	r2, r1, #0
 3548 0022 1A80     		strh	r2, [r3]
 3549 0024 FB68     		ldr	r3, [r7, #12]
 3550 0026 4122     		movs	r2, #65
 3551 0028 9B5C     		ldrb	r3, [r3, r2]
 3552 002a DBB2     		uxtb	r3, r3
 3553 002c 202B     		cmp	r3, #32
 3554 002e 00D0     		beq	.LCB3794
 3555 0030 10E1     		b	.L198	@long jump
 3556              	.LCB3794:
 3557 0032 BB6A     		ldr	r3, [r7, #40]
 3558 0034 002B     		cmp	r3, #0
 3559 0036 04D0     		beq	.L199
 3560 0038 2C23     		movs	r3, #44
 3561 003a FB18     		adds	r3, r7, r3
 3562 003c 1B88     		ldrh	r3, [r3]
 3563 003e 002B     		cmp	r3, #0
 3564 0040 05D1     		bne	.L200
 3565              	.L199:
 3566 0042 FB68     		ldr	r3, [r7, #12]
 3567 0044 8022     		movs	r2, #128
 3568 0046 9200     		lsls	r2, r2, #2
 3569 0048 5A64     		str	r2, [r3, #68]
ARM GAS  /tmp/ccnCrYSN.s 			page 63


 3570 004a 0123     		movs	r3, #1
 3571 004c 03E1     		b	.L201
 3572              	.L200:
 3573 004e FB68     		ldr	r3, [r7, #12]
 3574 0050 4022     		movs	r2, #64
 3575 0052 9B5C     		ldrb	r3, [r3, r2]
 3576 0054 012B     		cmp	r3, #1
 3577 0056 01D1     		bne	.L202
 3578 0058 0223     		movs	r3, #2
 3579 005a FCE0     		b	.L201
 3580              	.L202:
 3581 005c FB68     		ldr	r3, [r7, #12]
 3582 005e 4022     		movs	r2, #64
 3583 0060 0121     		movs	r1, #1
 3584 0062 9954     		strb	r1, [r3, r2]
 3585 0064 FFF7FEFF 		bl	HAL_GetTick
 3586 0068 0300     		movs	r3, r0
 3587 006a 7B61     		str	r3, [r7, #20]
 3588 006c 8023     		movs	r3, #128
 3589 006e 1902     		lsls	r1, r3, #8
 3590 0070 F868     		ldr	r0, [r7, #12]
 3591 0072 7B69     		ldr	r3, [r7, #20]
 3592 0074 0093     		str	r3, [sp]
 3593 0076 1923     		movs	r3, #25
 3594 0078 0122     		movs	r2, #1
 3595 007a FFF7FEFF 		bl	I2C_WaitOnFlagUntilTimeout
 3596 007e 031E     		subs	r3, r0, #0
 3597 0080 01D0     		beq	.L203
 3598 0082 0123     		movs	r3, #1
 3599 0084 E7E0     		b	.L201
 3600              	.L203:
 3601 0086 FB68     		ldr	r3, [r7, #12]
 3602 0088 4122     		movs	r2, #65
 3603 008a 2221     		movs	r1, #34
 3604 008c 9954     		strb	r1, [r3, r2]
 3605 008e FB68     		ldr	r3, [r7, #12]
 3606 0090 4222     		movs	r2, #66
 3607 0092 4021     		movs	r1, #64
 3608 0094 9954     		strb	r1, [r3, r2]
 3609 0096 FB68     		ldr	r3, [r7, #12]
 3610 0098 0022     		movs	r2, #0
 3611 009a 5A64     		str	r2, [r3, #68]
 3612 009c FB68     		ldr	r3, [r7, #12]
 3613 009e BA6A     		ldr	r2, [r7, #40]
 3614 00a0 5A62     		str	r2, [r3, #36]
 3615 00a2 FB68     		ldr	r3, [r7, #12]
 3616 00a4 2C22     		movs	r2, #44
 3617 00a6 BA18     		adds	r2, r7, r2
 3618 00a8 1288     		ldrh	r2, [r2]
 3619 00aa 5A85     		strh	r2, [r3, #42]
 3620 00ac FB68     		ldr	r3, [r7, #12]
 3621 00ae 0022     		movs	r2, #0
 3622 00b0 5A63     		str	r2, [r3, #52]
 3623 00b2 BB1D     		adds	r3, r7, #6
 3624 00b4 1C88     		ldrh	r4, [r3]
 3625 00b6 0823     		movs	r3, #8
 3626 00b8 FB18     		adds	r3, r7, r3
ARM GAS  /tmp/ccnCrYSN.s 			page 64


 3627 00ba 1A88     		ldrh	r2, [r3]
 3628 00bc 0A23     		movs	r3, #10
 3629 00be FB18     		adds	r3, r7, r3
 3630 00c0 1988     		ldrh	r1, [r3]
 3631 00c2 F868     		ldr	r0, [r7, #12]
 3632 00c4 7B69     		ldr	r3, [r7, #20]
 3633 00c6 0193     		str	r3, [sp, #4]
 3634 00c8 3B6B     		ldr	r3, [r7, #48]
 3635 00ca 0093     		str	r3, [sp]
 3636 00cc 2300     		movs	r3, r4
 3637 00ce FFF7FEFF 		bl	I2C_RequestMemoryRead
 3638 00d2 031E     		subs	r3, r0, #0
 3639 00d4 05D0     		beq	.L204
 3640 00d6 FB68     		ldr	r3, [r7, #12]
 3641 00d8 4022     		movs	r2, #64
 3642 00da 0021     		movs	r1, #0
 3643 00dc 9954     		strb	r1, [r3, r2]
 3644 00de 0123     		movs	r3, #1
 3645 00e0 B9E0     		b	.L201
 3646              	.L204:
 3647 00e2 FB68     		ldr	r3, [r7, #12]
 3648 00e4 5B8D     		ldrh	r3, [r3, #42]
 3649 00e6 9BB2     		uxth	r3, r3
 3650 00e8 FF2B     		cmp	r3, #255
 3651 00ea 11D9     		bls	.L205
 3652 00ec FB68     		ldr	r3, [r7, #12]
 3653 00ee 0122     		movs	r2, #1
 3654 00f0 1A85     		strh	r2, [r3, #40]
 3655 00f2 FB68     		ldr	r3, [r7, #12]
 3656 00f4 1B8D     		ldrh	r3, [r3, #40]
 3657 00f6 DAB2     		uxtb	r2, r3
 3658 00f8 8023     		movs	r3, #128
 3659 00fa 5C04     		lsls	r4, r3, #17
 3660 00fc 0A23     		movs	r3, #10
 3661 00fe FB18     		adds	r3, r7, r3
 3662 0100 1988     		ldrh	r1, [r3]
 3663 0102 F868     		ldr	r0, [r7, #12]
 3664 0104 564B     		ldr	r3, .L213
 3665 0106 0093     		str	r3, [sp]
 3666 0108 2300     		movs	r3, r4
 3667 010a FFF7FEFF 		bl	I2C_TransferConfig
 3668 010e 12E0     		b	.L211
 3669              	.L205:
 3670 0110 FB68     		ldr	r3, [r7, #12]
 3671 0112 5B8D     		ldrh	r3, [r3, #42]
 3672 0114 9AB2     		uxth	r2, r3
 3673 0116 FB68     		ldr	r3, [r7, #12]
 3674 0118 1A85     		strh	r2, [r3, #40]
 3675 011a FB68     		ldr	r3, [r7, #12]
 3676 011c 1B8D     		ldrh	r3, [r3, #40]
 3677 011e DAB2     		uxtb	r2, r3
 3678 0120 8023     		movs	r3, #128
 3679 0122 9C04     		lsls	r4, r3, #18
 3680 0124 0A23     		movs	r3, #10
 3681 0126 FB18     		adds	r3, r7, r3
 3682 0128 1988     		ldrh	r1, [r3]
 3683 012a F868     		ldr	r0, [r7, #12]
ARM GAS  /tmp/ccnCrYSN.s 			page 65


 3684 012c 4C4B     		ldr	r3, .L213
 3685 012e 0093     		str	r3, [sp]
 3686 0130 2300     		movs	r3, r4
 3687 0132 FFF7FEFF 		bl	I2C_TransferConfig
 3688              	.L211:
 3689 0136 3A6B     		ldr	r2, [r7, #48]
 3690 0138 F868     		ldr	r0, [r7, #12]
 3691 013a 7B69     		ldr	r3, [r7, #20]
 3692 013c 0093     		str	r3, [sp]
 3693 013e 1300     		movs	r3, r2
 3694 0140 0022     		movs	r2, #0
 3695 0142 0421     		movs	r1, #4
 3696 0144 FFF7FEFF 		bl	I2C_WaitOnFlagUntilTimeout
 3697 0148 031E     		subs	r3, r0, #0
 3698 014a 01D0     		beq	.L207
 3699 014c 0123     		movs	r3, #1
 3700 014e 82E0     		b	.L201
 3701              	.L207:
 3702 0150 FB68     		ldr	r3, [r7, #12]
 3703 0152 1B68     		ldr	r3, [r3]
 3704 0154 5A6A     		ldr	r2, [r3, #36]
 3705 0156 FB68     		ldr	r3, [r7, #12]
 3706 0158 5B6A     		ldr	r3, [r3, #36]
 3707 015a D2B2     		uxtb	r2, r2
 3708 015c 1A70     		strb	r2, [r3]
 3709 015e FB68     		ldr	r3, [r7, #12]
 3710 0160 5B6A     		ldr	r3, [r3, #36]
 3711 0162 5A1C     		adds	r2, r3, #1
 3712 0164 FB68     		ldr	r3, [r7, #12]
 3713 0166 5A62     		str	r2, [r3, #36]
 3714 0168 FB68     		ldr	r3, [r7, #12]
 3715 016a 1B8D     		ldrh	r3, [r3, #40]
 3716 016c 013B     		subs	r3, r3, #1
 3717 016e 9AB2     		uxth	r2, r3
 3718 0170 FB68     		ldr	r3, [r7, #12]
 3719 0172 1A85     		strh	r2, [r3, #40]
 3720 0174 FB68     		ldr	r3, [r7, #12]
 3721 0176 5B8D     		ldrh	r3, [r3, #42]
 3722 0178 9BB2     		uxth	r3, r3
 3723 017a 013B     		subs	r3, r3, #1
 3724 017c 9AB2     		uxth	r2, r3
 3725 017e FB68     		ldr	r3, [r7, #12]
 3726 0180 5A85     		strh	r2, [r3, #42]
 3727 0182 FB68     		ldr	r3, [r7, #12]
 3728 0184 5B8D     		ldrh	r3, [r3, #42]
 3729 0186 9BB2     		uxth	r3, r3
 3730 0188 002B     		cmp	r3, #0
 3731 018a 3AD0     		beq	.L208
 3732 018c FB68     		ldr	r3, [r7, #12]
 3733 018e 1B8D     		ldrh	r3, [r3, #40]
 3734 0190 002B     		cmp	r3, #0
 3735 0192 36D1     		bne	.L208
 3736 0194 3A6B     		ldr	r2, [r7, #48]
 3737 0196 F868     		ldr	r0, [r7, #12]
 3738 0198 7B69     		ldr	r3, [r7, #20]
 3739 019a 0093     		str	r3, [sp]
 3740 019c 1300     		movs	r3, r2
ARM GAS  /tmp/ccnCrYSN.s 			page 66


 3741 019e 0022     		movs	r2, #0
 3742 01a0 8021     		movs	r1, #128
 3743 01a2 FFF7FEFF 		bl	I2C_WaitOnFlagUntilTimeout
 3744 01a6 031E     		subs	r3, r0, #0
 3745 01a8 01D0     		beq	.L209
 3746 01aa 0123     		movs	r3, #1
 3747 01ac 53E0     		b	.L201
 3748              	.L209:
 3749 01ae FB68     		ldr	r3, [r7, #12]
 3750 01b0 5B8D     		ldrh	r3, [r3, #42]
 3751 01b2 9BB2     		uxth	r3, r3
 3752 01b4 FF2B     		cmp	r3, #255
 3753 01b6 11D9     		bls	.L210
 3754 01b8 FB68     		ldr	r3, [r7, #12]
 3755 01ba 0122     		movs	r2, #1
 3756 01bc 1A85     		strh	r2, [r3, #40]
 3757 01be FB68     		ldr	r3, [r7, #12]
 3758 01c0 1B8D     		ldrh	r3, [r3, #40]
 3759 01c2 DAB2     		uxtb	r2, r3
 3760 01c4 8023     		movs	r3, #128
 3761 01c6 5C04     		lsls	r4, r3, #17
 3762 01c8 0A23     		movs	r3, #10
 3763 01ca FB18     		adds	r3, r7, r3
 3764 01cc 1988     		ldrh	r1, [r3]
 3765 01ce F868     		ldr	r0, [r7, #12]
 3766 01d0 0023     		movs	r3, #0
 3767 01d2 0093     		str	r3, [sp]
 3768 01d4 2300     		movs	r3, r4
 3769 01d6 FFF7FEFF 		bl	I2C_TransferConfig
 3770 01da 12E0     		b	.L208
 3771              	.L210:
 3772 01dc FB68     		ldr	r3, [r7, #12]
 3773 01de 5B8D     		ldrh	r3, [r3, #42]
 3774 01e0 9AB2     		uxth	r2, r3
 3775 01e2 FB68     		ldr	r3, [r7, #12]
 3776 01e4 1A85     		strh	r2, [r3, #40]
 3777 01e6 FB68     		ldr	r3, [r7, #12]
 3778 01e8 1B8D     		ldrh	r3, [r3, #40]
 3779 01ea DAB2     		uxtb	r2, r3
 3780 01ec 8023     		movs	r3, #128
 3781 01ee 9C04     		lsls	r4, r3, #18
 3782 01f0 0A23     		movs	r3, #10
 3783 01f2 FB18     		adds	r3, r7, r3
 3784 01f4 1988     		ldrh	r1, [r3]
 3785 01f6 F868     		ldr	r0, [r7, #12]
 3786 01f8 0023     		movs	r3, #0
 3787 01fa 0093     		str	r3, [sp]
 3788 01fc 2300     		movs	r3, r4
 3789 01fe FFF7FEFF 		bl	I2C_TransferConfig
 3790              	.L208:
 3791 0202 FB68     		ldr	r3, [r7, #12]
 3792 0204 5B8D     		ldrh	r3, [r3, #42]
 3793 0206 9BB2     		uxth	r3, r3
 3794 0208 002B     		cmp	r3, #0
 3795 020a 94D1     		bne	.L211
 3796 020c 7A69     		ldr	r2, [r7, #20]
 3797 020e 396B     		ldr	r1, [r7, #48]
ARM GAS  /tmp/ccnCrYSN.s 			page 67


 3798 0210 FB68     		ldr	r3, [r7, #12]
 3799 0212 1800     		movs	r0, r3
 3800 0214 FFF7FEFF 		bl	I2C_WaitOnSTOPFlagUntilTimeout
 3801 0218 031E     		subs	r3, r0, #0
 3802 021a 01D0     		beq	.L212
 3803 021c 0123     		movs	r3, #1
 3804 021e 1AE0     		b	.L201
 3805              	.L212:
 3806 0220 FB68     		ldr	r3, [r7, #12]
 3807 0222 1B68     		ldr	r3, [r3]
 3808 0224 2022     		movs	r2, #32
 3809 0226 DA61     		str	r2, [r3, #28]
 3810 0228 FB68     		ldr	r3, [r7, #12]
 3811 022a 1B68     		ldr	r3, [r3]
 3812 022c 5A68     		ldr	r2, [r3, #4]
 3813 022e FB68     		ldr	r3, [r7, #12]
 3814 0230 1B68     		ldr	r3, [r3]
 3815 0232 0C49     		ldr	r1, .L213+4
 3816 0234 0A40     		ands	r2, r1
 3817 0236 5A60     		str	r2, [r3, #4]
 3818 0238 FB68     		ldr	r3, [r7, #12]
 3819 023a 4122     		movs	r2, #65
 3820 023c 2021     		movs	r1, #32
 3821 023e 9954     		strb	r1, [r3, r2]
 3822 0240 FB68     		ldr	r3, [r7, #12]
 3823 0242 4222     		movs	r2, #66
 3824 0244 0021     		movs	r1, #0
 3825 0246 9954     		strb	r1, [r3, r2]
 3826 0248 FB68     		ldr	r3, [r7, #12]
 3827 024a 4022     		movs	r2, #64
 3828 024c 0021     		movs	r1, #0
 3829 024e 9954     		strb	r1, [r3, r2]
 3830 0250 0023     		movs	r3, #0
 3831 0252 00E0     		b	.L201
 3832              	.L198:
 3833 0254 0223     		movs	r3, #2
 3834              	.L201:
 3835 0256 1800     		movs	r0, r3
 3836 0258 BD46     		mov	sp, r7
 3837 025a 07B0     		add	sp, sp, #28
 3838              		@ sp needed
 3839 025c 90BD     		pop	{r4, r7, pc}
 3840              	.L214:
 3841 025e C046     		.align	2
 3842              	.L213:
 3843 0260 00240080 		.word	-2147474432
 3844 0264 00E800FE 		.word	-33495040
 3846              		.section	.text.HAL_I2C_Mem_Write_IT,"ax",%progbits
 3847              		.align	1
 3848              		.global	HAL_I2C_Mem_Write_IT
 3849              		.syntax unified
 3850              		.code	16
 3851              		.thumb_func
 3853              	HAL_I2C_Mem_Write_IT:
 3854              		@ args = 8, pretend = 0, frame = 16
 3855              		@ frame_needed = 1, uses_anonymous_args = 0
 3856 0000 90B5     		push	{r4, r7, lr}
ARM GAS  /tmp/ccnCrYSN.s 			page 68


 3857 0002 87B0     		sub	sp, sp, #28
 3858 0004 02AF     		add	r7, sp, #8
 3859 0006 F860     		str	r0, [r7, #12]
 3860 0008 0C00     		movs	r4, r1
 3861 000a 1000     		movs	r0, r2
 3862 000c 1900     		movs	r1, r3
 3863 000e 0A23     		movs	r3, #10
 3864 0010 FB18     		adds	r3, r7, r3
 3865 0012 221C     		adds	r2, r4, #0
 3866 0014 1A80     		strh	r2, [r3]
 3867 0016 0823     		movs	r3, #8
 3868 0018 FB18     		adds	r3, r7, r3
 3869 001a 021C     		adds	r2, r0, #0
 3870 001c 1A80     		strh	r2, [r3]
 3871 001e BB1D     		adds	r3, r7, #6
 3872 0020 0A1C     		adds	r2, r1, #0
 3873 0022 1A80     		strh	r2, [r3]
 3874 0024 FB68     		ldr	r3, [r7, #12]
 3875 0026 4122     		movs	r2, #65
 3876 0028 9B5C     		ldrb	r3, [r3, r2]
 3877 002a DBB2     		uxtb	r3, r3
 3878 002c 202B     		cmp	r3, #32
 3879 002e 00D0     		beq	.LCB4147
 3880 0030 7DE0     		b	.L216	@long jump
 3881              	.LCB4147:
 3882 0032 3B6A     		ldr	r3, [r7, #32]
 3883 0034 002B     		cmp	r3, #0
 3884 0036 04D0     		beq	.L217
 3885 0038 2423     		movs	r3, #36
 3886 003a FB18     		adds	r3, r7, r3
 3887 003c 1B88     		ldrh	r3, [r3]
 3888 003e 002B     		cmp	r3, #0
 3889 0040 05D1     		bne	.L218
 3890              	.L217:
 3891 0042 FB68     		ldr	r3, [r7, #12]
 3892 0044 8022     		movs	r2, #128
 3893 0046 9200     		lsls	r2, r2, #2
 3894 0048 5A64     		str	r2, [r3, #68]
 3895 004a 0123     		movs	r3, #1
 3896 004c 70E0     		b	.L219
 3897              	.L218:
 3898 004e FB68     		ldr	r3, [r7, #12]
 3899 0050 1B68     		ldr	r3, [r3]
 3900 0052 9A69     		ldr	r2, [r3, #24]
 3901 0054 8023     		movs	r3, #128
 3902 0056 1B02     		lsls	r3, r3, #8
 3903 0058 1A40     		ands	r2, r3
 3904 005a 8023     		movs	r3, #128
 3905 005c 1B02     		lsls	r3, r3, #8
 3906 005e 9A42     		cmp	r2, r3
 3907 0060 01D1     		bne	.L220
 3908 0062 0223     		movs	r3, #2
 3909 0064 64E0     		b	.L219
 3910              	.L220:
 3911 0066 FB68     		ldr	r3, [r7, #12]
 3912 0068 4022     		movs	r2, #64
 3913 006a 9B5C     		ldrb	r3, [r3, r2]
ARM GAS  /tmp/ccnCrYSN.s 			page 69


 3914 006c 012B     		cmp	r3, #1
 3915 006e 01D1     		bne	.L221
 3916 0070 0223     		movs	r3, #2
 3917 0072 5DE0     		b	.L219
 3918              	.L221:
 3919 0074 FB68     		ldr	r3, [r7, #12]
 3920 0076 4022     		movs	r2, #64
 3921 0078 0121     		movs	r1, #1
 3922 007a 9954     		strb	r1, [r3, r2]
 3923 007c FB68     		ldr	r3, [r7, #12]
 3924 007e 4122     		movs	r2, #65
 3925 0080 2121     		movs	r1, #33
 3926 0082 9954     		strb	r1, [r3, r2]
 3927 0084 FB68     		ldr	r3, [r7, #12]
 3928 0086 4222     		movs	r2, #66
 3929 0088 4021     		movs	r1, #64
 3930 008a 9954     		strb	r1, [r3, r2]
 3931 008c FB68     		ldr	r3, [r7, #12]
 3932 008e 0022     		movs	r2, #0
 3933 0090 5A64     		str	r2, [r3, #68]
 3934 0092 FB68     		ldr	r3, [r7, #12]
 3935 0094 0022     		movs	r2, #0
 3936 0096 1A85     		strh	r2, [r3, #40]
 3937 0098 FB68     		ldr	r3, [r7, #12]
 3938 009a 3A6A     		ldr	r2, [r7, #32]
 3939 009c 5A62     		str	r2, [r3, #36]
 3940 009e FB68     		ldr	r3, [r7, #12]
 3941 00a0 2422     		movs	r2, #36
 3942 00a2 BA18     		adds	r2, r7, r2
 3943 00a4 1288     		ldrh	r2, [r2]
 3944 00a6 5A85     		strh	r2, [r3, #42]
 3945 00a8 FB68     		ldr	r3, [r7, #12]
 3946 00aa 234A     		ldr	r2, .L224
 3947 00ac DA62     		str	r2, [r3, #44]
 3948 00ae FB68     		ldr	r3, [r7, #12]
 3949 00b0 224A     		ldr	r2, .L224+4
 3950 00b2 5A63     		str	r2, [r3, #52]
 3951 00b4 0A23     		movs	r3, #10
 3952 00b6 FB18     		adds	r3, r7, r3
 3953 00b8 1A88     		ldrh	r2, [r3]
 3954 00ba FB68     		ldr	r3, [r7, #12]
 3955 00bc DA64     		str	r2, [r3, #76]
 3956 00be BB1D     		adds	r3, r7, #6
 3957 00c0 1B88     		ldrh	r3, [r3]
 3958 00c2 012B     		cmp	r3, #1
 3959 00c4 0BD1     		bne	.L222
 3960 00c6 0823     		movs	r3, #8
 3961 00c8 FB18     		adds	r3, r7, r3
 3962 00ca 1B88     		ldrh	r3, [r3]
 3963 00cc DAB2     		uxtb	r2, r3
 3964 00ce FB68     		ldr	r3, [r7, #12]
 3965 00d0 1B68     		ldr	r3, [r3]
 3966 00d2 9A62     		str	r2, [r3, #40]
 3967 00d4 FB68     		ldr	r3, [r7, #12]
 3968 00d6 0122     		movs	r2, #1
 3969 00d8 5242     		rsbs	r2, r2, #0
 3970 00da 1A65     		str	r2, [r3, #80]
ARM GAS  /tmp/ccnCrYSN.s 			page 70


 3971 00dc 0EE0     		b	.L223
 3972              	.L222:
 3973 00de 0821     		movs	r1, #8
 3974 00e0 7B18     		adds	r3, r7, r1
 3975 00e2 1B88     		ldrh	r3, [r3]
 3976 00e4 1B0A     		lsrs	r3, r3, #8
 3977 00e6 9BB2     		uxth	r3, r3
 3978 00e8 DAB2     		uxtb	r2, r3
 3979 00ea FB68     		ldr	r3, [r7, #12]
 3980 00ec 1B68     		ldr	r3, [r3]
 3981 00ee 9A62     		str	r2, [r3, #40]
 3982 00f0 7B18     		adds	r3, r7, r1
 3983 00f2 1B88     		ldrh	r3, [r3]
 3984 00f4 DBB2     		uxtb	r3, r3
 3985 00f6 1A00     		movs	r2, r3
 3986 00f8 FB68     		ldr	r3, [r7, #12]
 3987 00fa 1A65     		str	r2, [r3, #80]
 3988              	.L223:
 3989 00fc BB1D     		adds	r3, r7, #6
 3990 00fe 1B88     		ldrh	r3, [r3]
 3991 0100 DAB2     		uxtb	r2, r3
 3992 0102 8023     		movs	r3, #128
 3993 0104 5C04     		lsls	r4, r3, #17
 3994 0106 0A23     		movs	r3, #10
 3995 0108 FB18     		adds	r3, r7, r3
 3996 010a 1988     		ldrh	r1, [r3]
 3997 010c F868     		ldr	r0, [r7, #12]
 3998 010e 0C4B     		ldr	r3, .L224+8
 3999 0110 0093     		str	r3, [sp]
 4000 0112 2300     		movs	r3, r4
 4001 0114 FFF7FEFF 		bl	I2C_TransferConfig
 4002 0118 FB68     		ldr	r3, [r7, #12]
 4003 011a 4022     		movs	r2, #64
 4004 011c 0021     		movs	r1, #0
 4005 011e 9954     		strb	r1, [r3, r2]
 4006 0120 FB68     		ldr	r3, [r7, #12]
 4007 0122 0121     		movs	r1, #1
 4008 0124 1800     		movs	r0, r3
 4009 0126 FFF7FEFF 		bl	I2C_Enable_IRQ
 4010 012a 0023     		movs	r3, #0
 4011 012c 00E0     		b	.L219
 4012              	.L216:
 4013 012e 0223     		movs	r3, #2
 4014              	.L219:
 4015 0130 1800     		movs	r0, r3
 4016 0132 BD46     		mov	sp, r7
 4017 0134 05B0     		add	sp, sp, #20
 4018              		@ sp needed
 4019 0136 90BD     		pop	{r4, r7, pc}
 4020              	.L225:
 4021              		.align	2
 4022              	.L224:
 4023 0138 0000FFFF 		.word	-65536
 4024 013c 00000000 		.word	I2C_Mem_ISR_IT
 4025 0140 00200080 		.word	-2147475456
 4027              		.section	.text.HAL_I2C_Mem_Read_IT,"ax",%progbits
 4028              		.align	1
ARM GAS  /tmp/ccnCrYSN.s 			page 71


 4029              		.global	HAL_I2C_Mem_Read_IT
 4030              		.syntax unified
 4031              		.code	16
 4032              		.thumb_func
 4034              	HAL_I2C_Mem_Read_IT:
 4035              		@ args = 8, pretend = 0, frame = 16
 4036              		@ frame_needed = 1, uses_anonymous_args = 0
 4037 0000 90B5     		push	{r4, r7, lr}
 4038 0002 87B0     		sub	sp, sp, #28
 4039 0004 02AF     		add	r7, sp, #8
 4040 0006 F860     		str	r0, [r7, #12]
 4041 0008 0C00     		movs	r4, r1
 4042 000a 1000     		movs	r0, r2
 4043 000c 1900     		movs	r1, r3
 4044 000e 0A23     		movs	r3, #10
 4045 0010 FB18     		adds	r3, r7, r3
 4046 0012 221C     		adds	r2, r4, #0
 4047 0014 1A80     		strh	r2, [r3]
 4048 0016 0823     		movs	r3, #8
 4049 0018 FB18     		adds	r3, r7, r3
 4050 001a 021C     		adds	r2, r0, #0
 4051 001c 1A80     		strh	r2, [r3]
 4052 001e BB1D     		adds	r3, r7, #6
 4053 0020 0A1C     		adds	r2, r1, #0
 4054 0022 1A80     		strh	r2, [r3]
 4055 0024 FB68     		ldr	r3, [r7, #12]
 4056 0026 4122     		movs	r2, #65
 4057 0028 9B5C     		ldrb	r3, [r3, r2]
 4058 002a DBB2     		uxtb	r3, r3
 4059 002c 202B     		cmp	r3, #32
 4060 002e 00D0     		beq	.LCB4341
 4061 0030 78E0     		b	.L227	@long jump
 4062              	.LCB4341:
 4063 0032 3B6A     		ldr	r3, [r7, #32]
 4064 0034 002B     		cmp	r3, #0
 4065 0036 04D0     		beq	.L228
 4066 0038 2423     		movs	r3, #36
 4067 003a FB18     		adds	r3, r7, r3
 4068 003c 1B88     		ldrh	r3, [r3]
 4069 003e 002B     		cmp	r3, #0
 4070 0040 05D1     		bne	.L229
 4071              	.L228:
 4072 0042 FB68     		ldr	r3, [r7, #12]
 4073 0044 8022     		movs	r2, #128
 4074 0046 9200     		lsls	r2, r2, #2
 4075 0048 5A64     		str	r2, [r3, #68]
 4076 004a 0123     		movs	r3, #1
 4077 004c 6BE0     		b	.L230
 4078              	.L229:
 4079 004e FB68     		ldr	r3, [r7, #12]
 4080 0050 1B68     		ldr	r3, [r3]
 4081 0052 9A69     		ldr	r2, [r3, #24]
 4082 0054 8023     		movs	r3, #128
 4083 0056 1B02     		lsls	r3, r3, #8
 4084 0058 1A40     		ands	r2, r3
 4085 005a 8023     		movs	r3, #128
 4086 005c 1B02     		lsls	r3, r3, #8
ARM GAS  /tmp/ccnCrYSN.s 			page 72


 4087 005e 9A42     		cmp	r2, r3
 4088 0060 01D1     		bne	.L231
 4089 0062 0223     		movs	r3, #2
 4090 0064 5FE0     		b	.L230
 4091              	.L231:
 4092 0066 FB68     		ldr	r3, [r7, #12]
 4093 0068 4022     		movs	r2, #64
 4094 006a 9B5C     		ldrb	r3, [r3, r2]
 4095 006c 012B     		cmp	r3, #1
 4096 006e 01D1     		bne	.L232
 4097 0070 0223     		movs	r3, #2
 4098 0072 58E0     		b	.L230
 4099              	.L232:
 4100 0074 FB68     		ldr	r3, [r7, #12]
 4101 0076 4022     		movs	r2, #64
 4102 0078 0121     		movs	r1, #1
 4103 007a 9954     		strb	r1, [r3, r2]
 4104 007c FB68     		ldr	r3, [r7, #12]
 4105 007e 4122     		movs	r2, #65
 4106 0080 2221     		movs	r1, #34
 4107 0082 9954     		strb	r1, [r3, r2]
 4108 0084 FB68     		ldr	r3, [r7, #12]
 4109 0086 4222     		movs	r2, #66
 4110 0088 4021     		movs	r1, #64
 4111 008a 9954     		strb	r1, [r3, r2]
 4112 008c FB68     		ldr	r3, [r7, #12]
 4113 008e 0022     		movs	r2, #0
 4114 0090 5A64     		str	r2, [r3, #68]
 4115 0092 FB68     		ldr	r3, [r7, #12]
 4116 0094 3A6A     		ldr	r2, [r7, #32]
 4117 0096 5A62     		str	r2, [r3, #36]
 4118 0098 FB68     		ldr	r3, [r7, #12]
 4119 009a 2422     		movs	r2, #36
 4120 009c BA18     		adds	r2, r7, r2
 4121 009e 1288     		ldrh	r2, [r2]
 4122 00a0 5A85     		strh	r2, [r3, #42]
 4123 00a2 FB68     		ldr	r3, [r7, #12]
 4124 00a4 224A     		ldr	r2, .L235
 4125 00a6 DA62     		str	r2, [r3, #44]
 4126 00a8 FB68     		ldr	r3, [r7, #12]
 4127 00aa 224A     		ldr	r2, .L235+4
 4128 00ac 5A63     		str	r2, [r3, #52]
 4129 00ae 0A23     		movs	r3, #10
 4130 00b0 FB18     		adds	r3, r7, r3
 4131 00b2 1A88     		ldrh	r2, [r3]
 4132 00b4 FB68     		ldr	r3, [r7, #12]
 4133 00b6 DA64     		str	r2, [r3, #76]
 4134 00b8 BB1D     		adds	r3, r7, #6
 4135 00ba 1B88     		ldrh	r3, [r3]
 4136 00bc 012B     		cmp	r3, #1
 4137 00be 0BD1     		bne	.L233
 4138 00c0 0823     		movs	r3, #8
 4139 00c2 FB18     		adds	r3, r7, r3
 4140 00c4 1B88     		ldrh	r3, [r3]
 4141 00c6 DAB2     		uxtb	r2, r3
 4142 00c8 FB68     		ldr	r3, [r7, #12]
 4143 00ca 1B68     		ldr	r3, [r3]
ARM GAS  /tmp/ccnCrYSN.s 			page 73


 4144 00cc 9A62     		str	r2, [r3, #40]
 4145 00ce FB68     		ldr	r3, [r7, #12]
 4146 00d0 0122     		movs	r2, #1
 4147 00d2 5242     		rsbs	r2, r2, #0
 4148 00d4 1A65     		str	r2, [r3, #80]
 4149 00d6 0EE0     		b	.L234
 4150              	.L233:
 4151 00d8 0821     		movs	r1, #8
 4152 00da 7B18     		adds	r3, r7, r1
 4153 00dc 1B88     		ldrh	r3, [r3]
 4154 00de 1B0A     		lsrs	r3, r3, #8
 4155 00e0 9BB2     		uxth	r3, r3
 4156 00e2 DAB2     		uxtb	r2, r3
 4157 00e4 FB68     		ldr	r3, [r7, #12]
 4158 00e6 1B68     		ldr	r3, [r3]
 4159 00e8 9A62     		str	r2, [r3, #40]
 4160 00ea 7B18     		adds	r3, r7, r1
 4161 00ec 1B88     		ldrh	r3, [r3]
 4162 00ee DBB2     		uxtb	r3, r3
 4163 00f0 1A00     		movs	r2, r3
 4164 00f2 FB68     		ldr	r3, [r7, #12]
 4165 00f4 1A65     		str	r2, [r3, #80]
 4166              	.L234:
 4167 00f6 BB1D     		adds	r3, r7, #6
 4168 00f8 1B88     		ldrh	r3, [r3]
 4169 00fa DAB2     		uxtb	r2, r3
 4170 00fc 0A23     		movs	r3, #10
 4171 00fe FB18     		adds	r3, r7, r3
 4172 0100 1988     		ldrh	r1, [r3]
 4173 0102 F868     		ldr	r0, [r7, #12]
 4174 0104 0C4B     		ldr	r3, .L235+8
 4175 0106 0093     		str	r3, [sp]
 4176 0108 0023     		movs	r3, #0
 4177 010a FFF7FEFF 		bl	I2C_TransferConfig
 4178 010e FB68     		ldr	r3, [r7, #12]
 4179 0110 4022     		movs	r2, #64
 4180 0112 0021     		movs	r1, #0
 4181 0114 9954     		strb	r1, [r3, r2]
 4182 0116 FB68     		ldr	r3, [r7, #12]
 4183 0118 0121     		movs	r1, #1
 4184 011a 1800     		movs	r0, r3
 4185 011c FFF7FEFF 		bl	I2C_Enable_IRQ
 4186 0120 0023     		movs	r3, #0
 4187 0122 00E0     		b	.L230
 4188              	.L227:
 4189 0124 0223     		movs	r3, #2
 4190              	.L230:
 4191 0126 1800     		movs	r0, r3
 4192 0128 BD46     		mov	sp, r7
 4193 012a 05B0     		add	sp, sp, #20
 4194              		@ sp needed
 4195 012c 90BD     		pop	{r4, r7, pc}
 4196              	.L236:
 4197 012e C046     		.align	2
 4198              	.L235:
 4199 0130 0000FFFF 		.word	-65536
 4200 0134 00000000 		.word	I2C_Mem_ISR_IT
ARM GAS  /tmp/ccnCrYSN.s 			page 74


 4201 0138 00200080 		.word	-2147475456
 4203              		.section	.text.HAL_I2C_Mem_Write_DMA,"ax",%progbits
 4204              		.align	1
 4205              		.global	HAL_I2C_Mem_Write_DMA
 4206              		.syntax unified
 4207              		.code	16
 4208              		.thumb_func
 4210              	HAL_I2C_Mem_Write_DMA:
 4211              		@ args = 8, pretend = 0, frame = 24
 4212              		@ frame_needed = 1, uses_anonymous_args = 0
 4213 0000 B0B5     		push	{r4, r5, r7, lr}
 4214 0002 88B0     		sub	sp, sp, #32
 4215 0004 02AF     		add	r7, sp, #8
 4216 0006 F860     		str	r0, [r7, #12]
 4217 0008 0C00     		movs	r4, r1
 4218 000a 1000     		movs	r0, r2
 4219 000c 1900     		movs	r1, r3
 4220 000e 0A23     		movs	r3, #10
 4221 0010 FB18     		adds	r3, r7, r3
 4222 0012 221C     		adds	r2, r4, #0
 4223 0014 1A80     		strh	r2, [r3]
 4224 0016 0823     		movs	r3, #8
 4225 0018 FB18     		adds	r3, r7, r3
 4226 001a 021C     		adds	r2, r0, #0
 4227 001c 1A80     		strh	r2, [r3]
 4228 001e BB1D     		adds	r3, r7, #6
 4229 0020 0A1C     		adds	r2, r1, #0
 4230 0022 1A80     		strh	r2, [r3]
 4231 0024 FB68     		ldr	r3, [r7, #12]
 4232 0026 4122     		movs	r2, #65
 4233 0028 9B5C     		ldrb	r3, [r3, r2]
 4234 002a DBB2     		uxtb	r3, r3
 4235 002c 202B     		cmp	r3, #32
 4236 002e 00D0     		beq	.LCB4530
 4237 0030 D8E0     		b	.L238	@long jump
 4238              	.LCB4530:
 4239 0032 BB6A     		ldr	r3, [r7, #40]
 4240 0034 002B     		cmp	r3, #0
 4241 0036 04D0     		beq	.L239
 4242 0038 2C23     		movs	r3, #44
 4243 003a FB18     		adds	r3, r7, r3
 4244 003c 1B88     		ldrh	r3, [r3]
 4245 003e 002B     		cmp	r3, #0
 4246 0040 05D1     		bne	.L240
 4247              	.L239:
 4248 0042 FB68     		ldr	r3, [r7, #12]
 4249 0044 8022     		movs	r2, #128
 4250 0046 9200     		lsls	r2, r2, #2
 4251 0048 5A64     		str	r2, [r3, #68]
 4252 004a 0123     		movs	r3, #1
 4253 004c CBE0     		b	.L241
 4254              	.L240:
 4255 004e FB68     		ldr	r3, [r7, #12]
 4256 0050 1B68     		ldr	r3, [r3]
 4257 0052 9A69     		ldr	r2, [r3, #24]
 4258 0054 8023     		movs	r3, #128
 4259 0056 1B02     		lsls	r3, r3, #8
ARM GAS  /tmp/ccnCrYSN.s 			page 75


 4260 0058 1A40     		ands	r2, r3
 4261 005a 8023     		movs	r3, #128
 4262 005c 1B02     		lsls	r3, r3, #8
 4263 005e 9A42     		cmp	r2, r3
 4264 0060 01D1     		bne	.L242
 4265 0062 0223     		movs	r3, #2
 4266 0064 BFE0     		b	.L241
 4267              	.L242:
 4268 0066 FB68     		ldr	r3, [r7, #12]
 4269 0068 4022     		movs	r2, #64
 4270 006a 9B5C     		ldrb	r3, [r3, r2]
 4271 006c 012B     		cmp	r3, #1
 4272 006e 01D1     		bne	.L243
 4273 0070 0223     		movs	r3, #2
 4274 0072 B8E0     		b	.L241
 4275              	.L243:
 4276 0074 FB68     		ldr	r3, [r7, #12]
 4277 0076 4022     		movs	r2, #64
 4278 0078 0121     		movs	r1, #1
 4279 007a 9954     		strb	r1, [r3, r2]
 4280 007c FB68     		ldr	r3, [r7, #12]
 4281 007e 4122     		movs	r2, #65
 4282 0080 2121     		movs	r1, #33
 4283 0082 9954     		strb	r1, [r3, r2]
 4284 0084 FB68     		ldr	r3, [r7, #12]
 4285 0086 4222     		movs	r2, #66
 4286 0088 4021     		movs	r1, #64
 4287 008a 9954     		strb	r1, [r3, r2]
 4288 008c FB68     		ldr	r3, [r7, #12]
 4289 008e 0022     		movs	r2, #0
 4290 0090 5A64     		str	r2, [r3, #68]
 4291 0092 FB68     		ldr	r3, [r7, #12]
 4292 0094 BA6A     		ldr	r2, [r7, #40]
 4293 0096 5A62     		str	r2, [r3, #36]
 4294 0098 FB68     		ldr	r3, [r7, #12]
 4295 009a 2C22     		movs	r2, #44
 4296 009c BA18     		adds	r2, r7, r2
 4297 009e 1288     		ldrh	r2, [r2]
 4298 00a0 5A85     		strh	r2, [r3, #42]
 4299 00a2 FB68     		ldr	r3, [r7, #12]
 4300 00a4 524A     		ldr	r2, .L253
 4301 00a6 DA62     		str	r2, [r3, #44]
 4302 00a8 FB68     		ldr	r3, [r7, #12]
 4303 00aa 524A     		ldr	r2, .L253+4
 4304 00ac 5A63     		str	r2, [r3, #52]
 4305 00ae 0A23     		movs	r3, #10
 4306 00b0 FB18     		adds	r3, r7, r3
 4307 00b2 1A88     		ldrh	r2, [r3]
 4308 00b4 FB68     		ldr	r3, [r7, #12]
 4309 00b6 DA64     		str	r2, [r3, #76]
 4310 00b8 FB68     		ldr	r3, [r7, #12]
 4311 00ba 5B8D     		ldrh	r3, [r3, #42]
 4312 00bc 9BB2     		uxth	r3, r3
 4313 00be FF2B     		cmp	r3, #255
 4314 00c0 03D9     		bls	.L244
 4315 00c2 FB68     		ldr	r3, [r7, #12]
 4316 00c4 FF22     		movs	r2, #255
ARM GAS  /tmp/ccnCrYSN.s 			page 76


 4317 00c6 1A85     		strh	r2, [r3, #40]
 4318 00c8 04E0     		b	.L245
 4319              	.L244:
 4320 00ca FB68     		ldr	r3, [r7, #12]
 4321 00cc 5B8D     		ldrh	r3, [r3, #42]
 4322 00ce 9AB2     		uxth	r2, r3
 4323 00d0 FB68     		ldr	r3, [r7, #12]
 4324 00d2 1A85     		strh	r2, [r3, #40]
 4325              	.L245:
 4326 00d4 BB1D     		adds	r3, r7, #6
 4327 00d6 1B88     		ldrh	r3, [r3]
 4328 00d8 012B     		cmp	r3, #1
 4329 00da 0BD1     		bne	.L246
 4330 00dc 0823     		movs	r3, #8
 4331 00de FB18     		adds	r3, r7, r3
 4332 00e0 1B88     		ldrh	r3, [r3]
 4333 00e2 DAB2     		uxtb	r2, r3
 4334 00e4 FB68     		ldr	r3, [r7, #12]
 4335 00e6 1B68     		ldr	r3, [r3]
 4336 00e8 9A62     		str	r2, [r3, #40]
 4337 00ea FB68     		ldr	r3, [r7, #12]
 4338 00ec 0122     		movs	r2, #1
 4339 00ee 5242     		rsbs	r2, r2, #0
 4340 00f0 1A65     		str	r2, [r3, #80]
 4341 00f2 0EE0     		b	.L247
 4342              	.L246:
 4343 00f4 0821     		movs	r1, #8
 4344 00f6 7B18     		adds	r3, r7, r1
 4345 00f8 1B88     		ldrh	r3, [r3]
 4346 00fa 1B0A     		lsrs	r3, r3, #8
 4347 00fc 9BB2     		uxth	r3, r3
 4348 00fe DAB2     		uxtb	r2, r3
 4349 0100 FB68     		ldr	r3, [r7, #12]
 4350 0102 1B68     		ldr	r3, [r3]
 4351 0104 9A62     		str	r2, [r3, #40]
 4352 0106 7B18     		adds	r3, r7, r1
 4353 0108 1B88     		ldrh	r3, [r3]
 4354 010a DBB2     		uxtb	r3, r3
 4355 010c 1A00     		movs	r2, r3
 4356 010e FB68     		ldr	r3, [r7, #12]
 4357 0110 1A65     		str	r2, [r3, #80]
 4358              	.L247:
 4359 0112 FB68     		ldr	r3, [r7, #12]
 4360 0114 9B6B     		ldr	r3, [r3, #56]
 4361 0116 002B     		cmp	r3, #0
 4362 0118 23D0     		beq	.L248
 4363 011a FB68     		ldr	r3, [r7, #12]
 4364 011c 9B6B     		ldr	r3, [r3, #56]
 4365 011e 364A     		ldr	r2, .L253+8
 4366 0120 9A62     		str	r2, [r3, #40]
 4367 0122 FB68     		ldr	r3, [r7, #12]
 4368 0124 9B6B     		ldr	r3, [r3, #56]
 4369 0126 354A     		ldr	r2, .L253+12
 4370 0128 1A63     		str	r2, [r3, #48]
 4371 012a FB68     		ldr	r3, [r7, #12]
 4372 012c 9B6B     		ldr	r3, [r3, #56]
 4373 012e 0022     		movs	r2, #0
ARM GAS  /tmp/ccnCrYSN.s 			page 77


 4374 0130 DA62     		str	r2, [r3, #44]
 4375 0132 FB68     		ldr	r3, [r7, #12]
 4376 0134 9B6B     		ldr	r3, [r3, #56]
 4377 0136 0022     		movs	r2, #0
 4378 0138 5A63     		str	r2, [r3, #52]
 4379 013a FB68     		ldr	r3, [r7, #12]
 4380 013c 986B     		ldr	r0, [r3, #56]
 4381 013e B96A     		ldr	r1, [r7, #40]
 4382 0140 FB68     		ldr	r3, [r7, #12]
 4383 0142 1B68     		ldr	r3, [r3]
 4384 0144 2833     		adds	r3, r3, #40
 4385 0146 1A00     		movs	r2, r3
 4386 0148 FB68     		ldr	r3, [r7, #12]
 4387 014a 1B8D     		ldrh	r3, [r3, #40]
 4388 014c 1725     		movs	r5, #23
 4389 014e 7C19     		adds	r4, r7, r5
 4390 0150 FFF7FEFF 		bl	HAL_DMA_Start_IT
 4391 0154 0300     		movs	r3, r0
 4392 0156 2370     		strb	r3, [r4]
 4393 0158 7B19     		adds	r3, r7, r5
 4394 015a 1B78     		ldrb	r3, [r3]
 4395 015c 002B     		cmp	r3, #0
 4396 015e 2DD1     		bne	.L250
 4397 0160 13E0     		b	.L252
 4398              	.L248:
 4399 0162 FB68     		ldr	r3, [r7, #12]
 4400 0164 4122     		movs	r2, #65
 4401 0166 2021     		movs	r1, #32
 4402 0168 9954     		strb	r1, [r3, r2]
 4403 016a FB68     		ldr	r3, [r7, #12]
 4404 016c 4222     		movs	r2, #66
 4405 016e 0021     		movs	r1, #0
 4406 0170 9954     		strb	r1, [r3, r2]
 4407 0172 FB68     		ldr	r3, [r7, #12]
 4408 0174 5B6C     		ldr	r3, [r3, #68]
 4409 0176 8022     		movs	r2, #128
 4410 0178 1A43     		orrs	r2, r3
 4411 017a FB68     		ldr	r3, [r7, #12]
 4412 017c 5A64     		str	r2, [r3, #68]
 4413 017e FB68     		ldr	r3, [r7, #12]
 4414 0180 4022     		movs	r2, #64
 4415 0182 0021     		movs	r1, #0
 4416 0184 9954     		strb	r1, [r3, r2]
 4417 0186 0123     		movs	r3, #1
 4418 0188 2DE0     		b	.L241
 4419              	.L252:
 4420 018a BB1D     		adds	r3, r7, #6
 4421 018c 1B88     		ldrh	r3, [r3]
 4422 018e DAB2     		uxtb	r2, r3
 4423 0190 8023     		movs	r3, #128
 4424 0192 5C04     		lsls	r4, r3, #17
 4425 0194 0A23     		movs	r3, #10
 4426 0196 FB18     		adds	r3, r7, r3
 4427 0198 1988     		ldrh	r1, [r3]
 4428 019a F868     		ldr	r0, [r7, #12]
 4429 019c 184B     		ldr	r3, .L253+16
 4430 019e 0093     		str	r3, [sp]
ARM GAS  /tmp/ccnCrYSN.s 			page 78


 4431 01a0 2300     		movs	r3, r4
 4432 01a2 FFF7FEFF 		bl	I2C_TransferConfig
 4433 01a6 FB68     		ldr	r3, [r7, #12]
 4434 01a8 4022     		movs	r2, #64
 4435 01aa 0021     		movs	r1, #0
 4436 01ac 9954     		strb	r1, [r3, r2]
 4437 01ae FB68     		ldr	r3, [r7, #12]
 4438 01b0 0121     		movs	r1, #1
 4439 01b2 1800     		movs	r0, r3
 4440 01b4 FFF7FEFF 		bl	I2C_Enable_IRQ
 4441 01b8 0023     		movs	r3, #0
 4442 01ba 14E0     		b	.L241
 4443              	.L250:
 4444 01bc FB68     		ldr	r3, [r7, #12]
 4445 01be 4122     		movs	r2, #65
 4446 01c0 2021     		movs	r1, #32
 4447 01c2 9954     		strb	r1, [r3, r2]
 4448 01c4 FB68     		ldr	r3, [r7, #12]
 4449 01c6 4222     		movs	r2, #66
 4450 01c8 0021     		movs	r1, #0
 4451 01ca 9954     		strb	r1, [r3, r2]
 4452 01cc FB68     		ldr	r3, [r7, #12]
 4453 01ce 5B6C     		ldr	r3, [r3, #68]
 4454 01d0 1022     		movs	r2, #16
 4455 01d2 1A43     		orrs	r2, r3
 4456 01d4 FB68     		ldr	r3, [r7, #12]
 4457 01d6 5A64     		str	r2, [r3, #68]
 4458 01d8 FB68     		ldr	r3, [r7, #12]
 4459 01da 4022     		movs	r2, #64
 4460 01dc 0021     		movs	r1, #0
 4461 01de 9954     		strb	r1, [r3, r2]
 4462 01e0 0123     		movs	r3, #1
 4463 01e2 00E0     		b	.L241
 4464              	.L238:
 4465 01e4 0223     		movs	r3, #2
 4466              	.L241:
 4467 01e6 1800     		movs	r0, r3
 4468 01e8 BD46     		mov	sp, r7
 4469 01ea 06B0     		add	sp, sp, #24
 4470              		@ sp needed
 4471 01ec B0BD     		pop	{r4, r5, r7, pc}
 4472              	.L254:
 4473 01ee C046     		.align	2
 4474              	.L253:
 4475 01f0 0000FFFF 		.word	-65536
 4476 01f4 00000000 		.word	I2C_Mem_ISR_DMA
 4477 01f8 00000000 		.word	I2C_DMAMasterTransmitCplt
 4478 01fc 00000000 		.word	I2C_DMAError
 4479 0200 00200080 		.word	-2147475456
 4481              		.section	.text.HAL_I2C_Mem_Read_DMA,"ax",%progbits
 4482              		.align	1
 4483              		.global	HAL_I2C_Mem_Read_DMA
 4484              		.syntax unified
 4485              		.code	16
 4486              		.thumb_func
 4488              	HAL_I2C_Mem_Read_DMA:
 4489              		@ args = 8, pretend = 0, frame = 24
ARM GAS  /tmp/ccnCrYSN.s 			page 79


 4490              		@ frame_needed = 1, uses_anonymous_args = 0
 4491 0000 B0B5     		push	{r4, r5, r7, lr}
 4492 0002 88B0     		sub	sp, sp, #32
 4493 0004 02AF     		add	r7, sp, #8
 4494 0006 F860     		str	r0, [r7, #12]
 4495 0008 0C00     		movs	r4, r1
 4496 000a 1000     		movs	r0, r2
 4497 000c 1900     		movs	r1, r3
 4498 000e 0A23     		movs	r3, #10
 4499 0010 FB18     		adds	r3, r7, r3
 4500 0012 221C     		adds	r2, r4, #0
 4501 0014 1A80     		strh	r2, [r3]
 4502 0016 0823     		movs	r3, #8
 4503 0018 FB18     		adds	r3, r7, r3
 4504 001a 021C     		adds	r2, r0, #0
 4505 001c 1A80     		strh	r2, [r3]
 4506 001e BB1D     		adds	r3, r7, #6
 4507 0020 0A1C     		adds	r2, r1, #0
 4508 0022 1A80     		strh	r2, [r3]
 4509 0024 FB68     		ldr	r3, [r7, #12]
 4510 0026 4122     		movs	r2, #65
 4511 0028 9B5C     		ldrb	r3, [r3, r2]
 4512 002a DBB2     		uxtb	r3, r3
 4513 002c 202B     		cmp	r3, #32
 4514 002e 00D0     		beq	.LCB4832
 4515 0030 D6E0     		b	.L256	@long jump
 4516              	.LCB4832:
 4517 0032 BB6A     		ldr	r3, [r7, #40]
 4518 0034 002B     		cmp	r3, #0
 4519 0036 04D0     		beq	.L257
 4520 0038 2C23     		movs	r3, #44
 4521 003a FB18     		adds	r3, r7, r3
 4522 003c 1B88     		ldrh	r3, [r3]
 4523 003e 002B     		cmp	r3, #0
 4524 0040 05D1     		bne	.L258
 4525              	.L257:
 4526 0042 FB68     		ldr	r3, [r7, #12]
 4527 0044 8022     		movs	r2, #128
 4528 0046 9200     		lsls	r2, r2, #2
 4529 0048 5A64     		str	r2, [r3, #68]
 4530 004a 0123     		movs	r3, #1
 4531 004c C9E0     		b	.L259
 4532              	.L258:
 4533 004e FB68     		ldr	r3, [r7, #12]
 4534 0050 1B68     		ldr	r3, [r3]
 4535 0052 9A69     		ldr	r2, [r3, #24]
 4536 0054 8023     		movs	r3, #128
 4537 0056 1B02     		lsls	r3, r3, #8
 4538 0058 1A40     		ands	r2, r3
 4539 005a 8023     		movs	r3, #128
 4540 005c 1B02     		lsls	r3, r3, #8
 4541 005e 9A42     		cmp	r2, r3
 4542 0060 01D1     		bne	.L260
 4543 0062 0223     		movs	r3, #2
 4544 0064 BDE0     		b	.L259
 4545              	.L260:
 4546 0066 FB68     		ldr	r3, [r7, #12]
ARM GAS  /tmp/ccnCrYSN.s 			page 80


 4547 0068 4022     		movs	r2, #64
 4548 006a 9B5C     		ldrb	r3, [r3, r2]
 4549 006c 012B     		cmp	r3, #1
 4550 006e 01D1     		bne	.L261
 4551 0070 0223     		movs	r3, #2
 4552 0072 B6E0     		b	.L259
 4553              	.L261:
 4554 0074 FB68     		ldr	r3, [r7, #12]
 4555 0076 4022     		movs	r2, #64
 4556 0078 0121     		movs	r1, #1
 4557 007a 9954     		strb	r1, [r3, r2]
 4558 007c FB68     		ldr	r3, [r7, #12]
 4559 007e 4122     		movs	r2, #65
 4560 0080 2221     		movs	r1, #34
 4561 0082 9954     		strb	r1, [r3, r2]
 4562 0084 FB68     		ldr	r3, [r7, #12]
 4563 0086 4222     		movs	r2, #66
 4564 0088 4021     		movs	r1, #64
 4565 008a 9954     		strb	r1, [r3, r2]
 4566 008c FB68     		ldr	r3, [r7, #12]
 4567 008e 0022     		movs	r2, #0
 4568 0090 5A64     		str	r2, [r3, #68]
 4569 0092 FB68     		ldr	r3, [r7, #12]
 4570 0094 BA6A     		ldr	r2, [r7, #40]
 4571 0096 5A62     		str	r2, [r3, #36]
 4572 0098 FB68     		ldr	r3, [r7, #12]
 4573 009a 2C22     		movs	r2, #44
 4574 009c BA18     		adds	r2, r7, r2
 4575 009e 1288     		ldrh	r2, [r2]
 4576 00a0 5A85     		strh	r2, [r3, #42]
 4577 00a2 FB68     		ldr	r3, [r7, #12]
 4578 00a4 514A     		ldr	r2, .L271
 4579 00a6 DA62     		str	r2, [r3, #44]
 4580 00a8 FB68     		ldr	r3, [r7, #12]
 4581 00aa 514A     		ldr	r2, .L271+4
 4582 00ac 5A63     		str	r2, [r3, #52]
 4583 00ae 0A23     		movs	r3, #10
 4584 00b0 FB18     		adds	r3, r7, r3
 4585 00b2 1A88     		ldrh	r2, [r3]
 4586 00b4 FB68     		ldr	r3, [r7, #12]
 4587 00b6 DA64     		str	r2, [r3, #76]
 4588 00b8 FB68     		ldr	r3, [r7, #12]
 4589 00ba 5B8D     		ldrh	r3, [r3, #42]
 4590 00bc 9BB2     		uxth	r3, r3
 4591 00be FF2B     		cmp	r3, #255
 4592 00c0 03D9     		bls	.L262
 4593 00c2 FB68     		ldr	r3, [r7, #12]
 4594 00c4 FF22     		movs	r2, #255
 4595 00c6 1A85     		strh	r2, [r3, #40]
 4596 00c8 04E0     		b	.L263
 4597              	.L262:
 4598 00ca FB68     		ldr	r3, [r7, #12]
 4599 00cc 5B8D     		ldrh	r3, [r3, #42]
 4600 00ce 9AB2     		uxth	r2, r3
 4601 00d0 FB68     		ldr	r3, [r7, #12]
 4602 00d2 1A85     		strh	r2, [r3, #40]
 4603              	.L263:
ARM GAS  /tmp/ccnCrYSN.s 			page 81


 4604 00d4 BB1D     		adds	r3, r7, #6
 4605 00d6 1B88     		ldrh	r3, [r3]
 4606 00d8 012B     		cmp	r3, #1
 4607 00da 0BD1     		bne	.L264
 4608 00dc 0823     		movs	r3, #8
 4609 00de FB18     		adds	r3, r7, r3
 4610 00e0 1B88     		ldrh	r3, [r3]
 4611 00e2 DAB2     		uxtb	r2, r3
 4612 00e4 FB68     		ldr	r3, [r7, #12]
 4613 00e6 1B68     		ldr	r3, [r3]
 4614 00e8 9A62     		str	r2, [r3, #40]
 4615 00ea FB68     		ldr	r3, [r7, #12]
 4616 00ec 0122     		movs	r2, #1
 4617 00ee 5242     		rsbs	r2, r2, #0
 4618 00f0 1A65     		str	r2, [r3, #80]
 4619 00f2 0EE0     		b	.L265
 4620              	.L264:
 4621 00f4 0821     		movs	r1, #8
 4622 00f6 7B18     		adds	r3, r7, r1
 4623 00f8 1B88     		ldrh	r3, [r3]
 4624 00fa 1B0A     		lsrs	r3, r3, #8
 4625 00fc 9BB2     		uxth	r3, r3
 4626 00fe DAB2     		uxtb	r2, r3
 4627 0100 FB68     		ldr	r3, [r7, #12]
 4628 0102 1B68     		ldr	r3, [r3]
 4629 0104 9A62     		str	r2, [r3, #40]
 4630 0106 7B18     		adds	r3, r7, r1
 4631 0108 1B88     		ldrh	r3, [r3]
 4632 010a DBB2     		uxtb	r3, r3
 4633 010c 1A00     		movs	r2, r3
 4634 010e FB68     		ldr	r3, [r7, #12]
 4635 0110 1A65     		str	r2, [r3, #80]
 4636              	.L265:
 4637 0112 FB68     		ldr	r3, [r7, #12]
 4638 0114 DB6B     		ldr	r3, [r3, #60]
 4639 0116 002B     		cmp	r3, #0
 4640 0118 23D0     		beq	.L266
 4641 011a FB68     		ldr	r3, [r7, #12]
 4642 011c DB6B     		ldr	r3, [r3, #60]
 4643 011e 354A     		ldr	r2, .L271+8
 4644 0120 9A62     		str	r2, [r3, #40]
 4645 0122 FB68     		ldr	r3, [r7, #12]
 4646 0124 DB6B     		ldr	r3, [r3, #60]
 4647 0126 344A     		ldr	r2, .L271+12
 4648 0128 1A63     		str	r2, [r3, #48]
 4649 012a FB68     		ldr	r3, [r7, #12]
 4650 012c DB6B     		ldr	r3, [r3, #60]
 4651 012e 0022     		movs	r2, #0
 4652 0130 DA62     		str	r2, [r3, #44]
 4653 0132 FB68     		ldr	r3, [r7, #12]
 4654 0134 DB6B     		ldr	r3, [r3, #60]
 4655 0136 0022     		movs	r2, #0
 4656 0138 5A63     		str	r2, [r3, #52]
 4657 013a FB68     		ldr	r3, [r7, #12]
 4658 013c D86B     		ldr	r0, [r3, #60]
 4659 013e FB68     		ldr	r3, [r7, #12]
 4660 0140 1B68     		ldr	r3, [r3]
ARM GAS  /tmp/ccnCrYSN.s 			page 82


 4661 0142 2433     		adds	r3, r3, #36
 4662 0144 1900     		movs	r1, r3
 4663 0146 BA6A     		ldr	r2, [r7, #40]
 4664 0148 FB68     		ldr	r3, [r7, #12]
 4665 014a 1B8D     		ldrh	r3, [r3, #40]
 4666 014c 1725     		movs	r5, #23
 4667 014e 7C19     		adds	r4, r7, r5
 4668 0150 FFF7FEFF 		bl	HAL_DMA_Start_IT
 4669 0154 0300     		movs	r3, r0
 4670 0156 2370     		strb	r3, [r4]
 4671 0158 7B19     		adds	r3, r7, r5
 4672 015a 1B78     		ldrb	r3, [r3]
 4673 015c 002B     		cmp	r3, #0
 4674 015e 2BD1     		bne	.L268
 4675 0160 13E0     		b	.L270
 4676              	.L266:
 4677 0162 FB68     		ldr	r3, [r7, #12]
 4678 0164 4122     		movs	r2, #65
 4679 0166 2021     		movs	r1, #32
 4680 0168 9954     		strb	r1, [r3, r2]
 4681 016a FB68     		ldr	r3, [r7, #12]
 4682 016c 4222     		movs	r2, #66
 4683 016e 0021     		movs	r1, #0
 4684 0170 9954     		strb	r1, [r3, r2]
 4685 0172 FB68     		ldr	r3, [r7, #12]
 4686 0174 5B6C     		ldr	r3, [r3, #68]
 4687 0176 8022     		movs	r2, #128
 4688 0178 1A43     		orrs	r2, r3
 4689 017a FB68     		ldr	r3, [r7, #12]
 4690 017c 5A64     		str	r2, [r3, #68]
 4691 017e FB68     		ldr	r3, [r7, #12]
 4692 0180 4022     		movs	r2, #64
 4693 0182 0021     		movs	r1, #0
 4694 0184 9954     		strb	r1, [r3, r2]
 4695 0186 0123     		movs	r3, #1
 4696 0188 2BE0     		b	.L259
 4697              	.L270:
 4698 018a BB1D     		adds	r3, r7, #6
 4699 018c 1B88     		ldrh	r3, [r3]
 4700 018e DAB2     		uxtb	r2, r3
 4701 0190 0A23     		movs	r3, #10
 4702 0192 FB18     		adds	r3, r7, r3
 4703 0194 1988     		ldrh	r1, [r3]
 4704 0196 F868     		ldr	r0, [r7, #12]
 4705 0198 184B     		ldr	r3, .L271+16
 4706 019a 0093     		str	r3, [sp]
 4707 019c 0023     		movs	r3, #0
 4708 019e FFF7FEFF 		bl	I2C_TransferConfig
 4709 01a2 FB68     		ldr	r3, [r7, #12]
 4710 01a4 4022     		movs	r2, #64
 4711 01a6 0021     		movs	r1, #0
 4712 01a8 9954     		strb	r1, [r3, r2]
 4713 01aa FB68     		ldr	r3, [r7, #12]
 4714 01ac 0121     		movs	r1, #1
 4715 01ae 1800     		movs	r0, r3
 4716 01b0 FFF7FEFF 		bl	I2C_Enable_IRQ
 4717 01b4 0023     		movs	r3, #0
ARM GAS  /tmp/ccnCrYSN.s 			page 83


 4718 01b6 14E0     		b	.L259
 4719              	.L268:
 4720 01b8 FB68     		ldr	r3, [r7, #12]
 4721 01ba 4122     		movs	r2, #65
 4722 01bc 2021     		movs	r1, #32
 4723 01be 9954     		strb	r1, [r3, r2]
 4724 01c0 FB68     		ldr	r3, [r7, #12]
 4725 01c2 4222     		movs	r2, #66
 4726 01c4 0021     		movs	r1, #0
 4727 01c6 9954     		strb	r1, [r3, r2]
 4728 01c8 FB68     		ldr	r3, [r7, #12]
 4729 01ca 5B6C     		ldr	r3, [r3, #68]
 4730 01cc 1022     		movs	r2, #16
 4731 01ce 1A43     		orrs	r2, r3
 4732 01d0 FB68     		ldr	r3, [r7, #12]
 4733 01d2 5A64     		str	r2, [r3, #68]
 4734 01d4 FB68     		ldr	r3, [r7, #12]
 4735 01d6 4022     		movs	r2, #64
 4736 01d8 0021     		movs	r1, #0
 4737 01da 9954     		strb	r1, [r3, r2]
 4738 01dc 0123     		movs	r3, #1
 4739 01de 00E0     		b	.L259
 4740              	.L256:
 4741 01e0 0223     		movs	r3, #2
 4742              	.L259:
 4743 01e2 1800     		movs	r0, r3
 4744 01e4 BD46     		mov	sp, r7
 4745 01e6 06B0     		add	sp, sp, #24
 4746              		@ sp needed
 4747 01e8 B0BD     		pop	{r4, r5, r7, pc}
 4748              	.L272:
 4749 01ea C046     		.align	2
 4750              	.L271:
 4751 01ec 0000FFFF 		.word	-65536
 4752 01f0 00000000 		.word	I2C_Mem_ISR_DMA
 4753 01f4 00000000 		.word	I2C_DMAMasterReceiveCplt
 4754 01f8 00000000 		.word	I2C_DMAError
 4755 01fc 00200080 		.word	-2147475456
 4757              		.section	.text.HAL_I2C_IsDeviceReady,"ax",%progbits
 4758              		.align	1
 4759              		.global	HAL_I2C_IsDeviceReady
 4760              		.syntax unified
 4761              		.code	16
 4762              		.thumb_func
 4764              	HAL_I2C_IsDeviceReady:
 4765              		@ args = 0, pretend = 0, frame = 32
 4766              		@ frame_needed = 1, uses_anonymous_args = 0
 4767 0000 80B5     		push	{r7, lr}
 4768 0002 8AB0     		sub	sp, sp, #40
 4769 0004 02AF     		add	r7, sp, #8
 4770 0006 F860     		str	r0, [r7, #12]
 4771 0008 7A60     		str	r2, [r7, #4]
 4772 000a 3B60     		str	r3, [r7]
 4773 000c 0A23     		movs	r3, #10
 4774 000e FB18     		adds	r3, r7, r3
 4775 0010 0A1C     		adds	r2, r1, #0
 4776 0012 1A80     		strh	r2, [r3]
ARM GAS  /tmp/ccnCrYSN.s 			page 84


 4777 0014 0023     		movs	r3, #0
 4778 0016 7B61     		str	r3, [r7, #20]
 4779 0018 FB68     		ldr	r3, [r7, #12]
 4780 001a 4122     		movs	r2, #65
 4781 001c 9B5C     		ldrb	r3, [r3, r2]
 4782 001e DBB2     		uxtb	r3, r3
 4783 0020 202B     		cmp	r3, #32
 4784 0022 00D0     		beq	.LCB5126
 4785 0024 DBE0     		b	.L274	@long jump
 4786              	.LCB5126:
 4787 0026 FB68     		ldr	r3, [r7, #12]
 4788 0028 1B68     		ldr	r3, [r3]
 4789 002a 9A69     		ldr	r2, [r3, #24]
 4790 002c 8023     		movs	r3, #128
 4791 002e 1B02     		lsls	r3, r3, #8
 4792 0030 1A40     		ands	r2, r3
 4793 0032 8023     		movs	r3, #128
 4794 0034 1B02     		lsls	r3, r3, #8
 4795 0036 9A42     		cmp	r2, r3
 4796 0038 01D1     		bne	.L275
 4797 003a 0223     		movs	r3, #2
 4798 003c D0E0     		b	.L276
 4799              	.L275:
 4800 003e FB68     		ldr	r3, [r7, #12]
 4801 0040 4022     		movs	r2, #64
 4802 0042 9B5C     		ldrb	r3, [r3, r2]
 4803 0044 012B     		cmp	r3, #1
 4804 0046 01D1     		bne	.L277
 4805 0048 0223     		movs	r3, #2
 4806 004a C9E0     		b	.L276
 4807              	.L277:
 4808 004c FB68     		ldr	r3, [r7, #12]
 4809 004e 4022     		movs	r2, #64
 4810 0050 0121     		movs	r1, #1
 4811 0052 9954     		strb	r1, [r3, r2]
 4812 0054 FB68     		ldr	r3, [r7, #12]
 4813 0056 4122     		movs	r2, #65
 4814 0058 2421     		movs	r1, #36
 4815 005a 9954     		strb	r1, [r3, r2]
 4816 005c FB68     		ldr	r3, [r7, #12]
 4817 005e 0022     		movs	r2, #0
 4818 0060 5A64     		str	r2, [r3, #68]
 4819              	.L288:
 4820 0062 FB68     		ldr	r3, [r7, #12]
 4821 0064 DB68     		ldr	r3, [r3, #12]
 4822 0066 012B     		cmp	r3, #1
 4823 0068 07D1     		bne	.L278
 4824 006a 0A23     		movs	r3, #10
 4825 006c FB18     		adds	r3, r7, r3
 4826 006e 1B88     		ldrh	r3, [r3]
 4827 0070 9B05     		lsls	r3, r3, #22
 4828 0072 9B0D     		lsrs	r3, r3, #22
 4829 0074 5C4A     		ldr	r2, .L290
 4830 0076 1A43     		orrs	r2, r3
 4831 0078 06E0     		b	.L279
 4832              	.L278:
 4833 007a 0A23     		movs	r3, #10
ARM GAS  /tmp/ccnCrYSN.s 			page 85


 4834 007c FB18     		adds	r3, r7, r3
 4835 007e 1B88     		ldrh	r3, [r3]
 4836 0080 9B05     		lsls	r3, r3, #22
 4837 0082 9B0D     		lsrs	r3, r3, #22
 4838 0084 594A     		ldr	r2, .L290+4
 4839 0086 1A43     		orrs	r2, r3
 4840              	.L279:
 4841 0088 FB68     		ldr	r3, [r7, #12]
 4842 008a 1B68     		ldr	r3, [r3]
 4843 008c 5A60     		str	r2, [r3, #4]
 4844 008e FFF7FEFF 		bl	HAL_GetTick
 4845 0092 0300     		movs	r3, r0
 4846 0094 BB61     		str	r3, [r7, #24]
 4847 0096 FB68     		ldr	r3, [r7, #12]
 4848 0098 1B68     		ldr	r3, [r3]
 4849 009a 9B69     		ldr	r3, [r3, #24]
 4850 009c 2022     		movs	r2, #32
 4851 009e 1340     		ands	r3, r2
 4852 00a0 9B06     		lsls	r3, r3, #26
 4853 00a2 DB0F     		lsrs	r3, r3, #31
 4854 00a4 DAB2     		uxtb	r2, r3
 4855 00a6 1F23     		movs	r3, #31
 4856 00a8 FB18     		adds	r3, r7, r3
 4857 00aa 1A70     		strb	r2, [r3]
 4858 00ac FB68     		ldr	r3, [r7, #12]
 4859 00ae 1B68     		ldr	r3, [r3]
 4860 00b0 9B69     		ldr	r3, [r3, #24]
 4861 00b2 1022     		movs	r2, #16
 4862 00b4 1340     		ands	r3, r2
 4863 00b6 DB06     		lsls	r3, r3, #27
 4864 00b8 DB0F     		lsrs	r3, r3, #31
 4865 00ba DAB2     		uxtb	r2, r3
 4866 00bc 1E23     		movs	r3, #30
 4867 00be FB18     		adds	r3, r7, r3
 4868 00c0 1A70     		strb	r2, [r3]
 4869 00c2 33E0     		b	.L280
 4870              	.L284:
 4871 00c4 3B68     		ldr	r3, [r7]
 4872 00c6 0133     		adds	r3, r3, #1
 4873 00c8 1AD0     		beq	.L281
 4874 00ca FFF7FEFF 		bl	HAL_GetTick
 4875 00ce 0200     		movs	r2, r0
 4876 00d0 BB69     		ldr	r3, [r7, #24]
 4877 00d2 D31A     		subs	r3, r2, r3
 4878 00d4 3A68     		ldr	r2, [r7]
 4879 00d6 9A42     		cmp	r2, r3
 4880 00d8 02D3     		bcc	.L282
 4881 00da 3B68     		ldr	r3, [r7]
 4882 00dc 002B     		cmp	r3, #0
 4883 00de 0FD1     		bne	.L281
 4884              	.L282:
 4885 00e0 FB68     		ldr	r3, [r7, #12]
 4886 00e2 4122     		movs	r2, #65
 4887 00e4 2021     		movs	r1, #32
 4888 00e6 9954     		strb	r1, [r3, r2]
 4889 00e8 FB68     		ldr	r3, [r7, #12]
 4890 00ea 5B6C     		ldr	r3, [r3, #68]
ARM GAS  /tmp/ccnCrYSN.s 			page 86


 4891 00ec 2022     		movs	r2, #32
 4892 00ee 1A43     		orrs	r2, r3
 4893 00f0 FB68     		ldr	r3, [r7, #12]
 4894 00f2 5A64     		str	r2, [r3, #68]
 4895 00f4 FB68     		ldr	r3, [r7, #12]
 4896 00f6 4022     		movs	r2, #64
 4897 00f8 0021     		movs	r1, #0
 4898 00fa 9954     		strb	r1, [r3, r2]
 4899 00fc 0123     		movs	r3, #1
 4900 00fe 6FE0     		b	.L276
 4901              	.L281:
 4902 0100 FB68     		ldr	r3, [r7, #12]
 4903 0102 1B68     		ldr	r3, [r3]
 4904 0104 9B69     		ldr	r3, [r3, #24]
 4905 0106 2022     		movs	r2, #32
 4906 0108 1340     		ands	r3, r2
 4907 010a 9B06     		lsls	r3, r3, #26
 4908 010c DB0F     		lsrs	r3, r3, #31
 4909 010e DAB2     		uxtb	r2, r3
 4910 0110 1F23     		movs	r3, #31
 4911 0112 FB18     		adds	r3, r7, r3
 4912 0114 1A70     		strb	r2, [r3]
 4913 0116 FB68     		ldr	r3, [r7, #12]
 4914 0118 1B68     		ldr	r3, [r3]
 4915 011a 9B69     		ldr	r3, [r3, #24]
 4916 011c 1022     		movs	r2, #16
 4917 011e 1340     		ands	r3, r2
 4918 0120 DB06     		lsls	r3, r3, #27
 4919 0122 DB0F     		lsrs	r3, r3, #31
 4920 0124 DAB2     		uxtb	r2, r3
 4921 0126 1E23     		movs	r3, #30
 4922 0128 FB18     		adds	r3, r7, r3
 4923 012a 1A70     		strb	r2, [r3]
 4924              	.L280:
 4925 012c 1F23     		movs	r3, #31
 4926 012e FB18     		adds	r3, r7, r3
 4927 0130 1B78     		ldrb	r3, [r3]
 4928 0132 002B     		cmp	r3, #0
 4929 0134 04D1     		bne	.L283
 4930 0136 1E23     		movs	r3, #30
 4931 0138 FB18     		adds	r3, r7, r3
 4932 013a 1B78     		ldrb	r3, [r3]
 4933 013c 002B     		cmp	r3, #0
 4934 013e C1D0     		beq	.L284
 4935              	.L283:
 4936 0140 FB68     		ldr	r3, [r7, #12]
 4937 0142 1B68     		ldr	r3, [r3]
 4938 0144 9B69     		ldr	r3, [r3, #24]
 4939 0146 1022     		movs	r2, #16
 4940 0148 1340     		ands	r3, r2
 4941 014a 102B     		cmp	r3, #16
 4942 014c 1AD0     		beq	.L285
 4943 014e 3A68     		ldr	r2, [r7]
 4944 0150 F868     		ldr	r0, [r7, #12]
 4945 0152 BB69     		ldr	r3, [r7, #24]
 4946 0154 0093     		str	r3, [sp]
 4947 0156 1300     		movs	r3, r2
ARM GAS  /tmp/ccnCrYSN.s 			page 87


 4948 0158 0022     		movs	r2, #0
 4949 015a 2021     		movs	r1, #32
 4950 015c FFF7FEFF 		bl	I2C_WaitOnFlagUntilTimeout
 4951 0160 031E     		subs	r3, r0, #0
 4952 0162 01D0     		beq	.L286
 4953 0164 0123     		movs	r3, #1
 4954 0166 3BE0     		b	.L276
 4955              	.L286:
 4956 0168 FB68     		ldr	r3, [r7, #12]
 4957 016a 1B68     		ldr	r3, [r3]
 4958 016c 2022     		movs	r2, #32
 4959 016e DA61     		str	r2, [r3, #28]
 4960 0170 FB68     		ldr	r3, [r7, #12]
 4961 0172 4122     		movs	r2, #65
 4962 0174 2021     		movs	r1, #32
 4963 0176 9954     		strb	r1, [r3, r2]
 4964 0178 FB68     		ldr	r3, [r7, #12]
 4965 017a 4022     		movs	r2, #64
 4966 017c 0021     		movs	r1, #0
 4967 017e 9954     		strb	r1, [r3, r2]
 4968 0180 0023     		movs	r3, #0
 4969 0182 2DE0     		b	.L276
 4970              	.L285:
 4971 0184 3A68     		ldr	r2, [r7]
 4972 0186 F868     		ldr	r0, [r7, #12]
 4973 0188 BB69     		ldr	r3, [r7, #24]
 4974 018a 0093     		str	r3, [sp]
 4975 018c 1300     		movs	r3, r2
 4976 018e 0022     		movs	r2, #0
 4977 0190 2021     		movs	r1, #32
 4978 0192 FFF7FEFF 		bl	I2C_WaitOnFlagUntilTimeout
 4979 0196 031E     		subs	r3, r0, #0
 4980 0198 01D0     		beq	.L287
 4981 019a 0123     		movs	r3, #1
 4982 019c 20E0     		b	.L276
 4983              	.L287:
 4984 019e FB68     		ldr	r3, [r7, #12]
 4985 01a0 1B68     		ldr	r3, [r3]
 4986 01a2 1022     		movs	r2, #16
 4987 01a4 DA61     		str	r2, [r3, #28]
 4988 01a6 FB68     		ldr	r3, [r7, #12]
 4989 01a8 1B68     		ldr	r3, [r3]
 4990 01aa 2022     		movs	r2, #32
 4991 01ac DA61     		str	r2, [r3, #28]
 4992 01ae 7B69     		ldr	r3, [r7, #20]
 4993 01b0 0133     		adds	r3, r3, #1
 4994 01b2 7B61     		str	r3, [r7, #20]
 4995 01b4 7B69     		ldr	r3, [r7, #20]
 4996 01b6 7A68     		ldr	r2, [r7, #4]
 4997 01b8 9A42     		cmp	r2, r3
 4998 01ba 00D9     		bls	.LCB5359
 4999 01bc 51E7     		b	.L288	@long jump
 5000              	.LCB5359:
 5001 01be FB68     		ldr	r3, [r7, #12]
 5002 01c0 4122     		movs	r2, #65
 5003 01c2 2021     		movs	r1, #32
 5004 01c4 9954     		strb	r1, [r3, r2]
ARM GAS  /tmp/ccnCrYSN.s 			page 88


 5005 01c6 FB68     		ldr	r3, [r7, #12]
 5006 01c8 5B6C     		ldr	r3, [r3, #68]
 5007 01ca 2022     		movs	r2, #32
 5008 01cc 1A43     		orrs	r2, r3
 5009 01ce FB68     		ldr	r3, [r7, #12]
 5010 01d0 5A64     		str	r2, [r3, #68]
 5011 01d2 FB68     		ldr	r3, [r7, #12]
 5012 01d4 4022     		movs	r2, #64
 5013 01d6 0021     		movs	r1, #0
 5014 01d8 9954     		strb	r1, [r3, r2]
 5015 01da 0123     		movs	r3, #1
 5016 01dc 00E0     		b	.L276
 5017              	.L274:
 5018 01de 0223     		movs	r3, #2
 5019              	.L276:
 5020 01e0 1800     		movs	r0, r3
 5021 01e2 BD46     		mov	sp, r7
 5022 01e4 08B0     		add	sp, sp, #32
 5023              		@ sp needed
 5024 01e6 80BD     		pop	{r7, pc}
 5025              	.L291:
 5026              		.align	2
 5027              	.L290:
 5028 01e8 00200002 		.word	33562624
 5029 01ec 00280002 		.word	33564672
 5031              		.section	.text.HAL_I2C_Master_Seq_Transmit_IT,"ax",%progbits
 5032              		.align	1
 5033              		.global	HAL_I2C_Master_Seq_Transmit_IT
 5034              		.syntax unified
 5035              		.code	16
 5036              		.thumb_func
 5038              	HAL_I2C_Master_Seq_Transmit_IT:
 5039              		@ args = 4, pretend = 0, frame = 32
 5040              		@ frame_needed = 1, uses_anonymous_args = 0
 5041 0000 90B5     		push	{r4, r7, lr}
 5042 0002 8BB0     		sub	sp, sp, #44
 5043 0004 02AF     		add	r7, sp, #8
 5044 0006 F860     		str	r0, [r7, #12]
 5045 0008 0800     		movs	r0, r1
 5046 000a 7A60     		str	r2, [r7, #4]
 5047 000c 1900     		movs	r1, r3
 5048 000e 0A23     		movs	r3, #10
 5049 0010 FB18     		adds	r3, r7, r3
 5050 0012 021C     		adds	r2, r0, #0
 5051 0014 1A80     		strh	r2, [r3]
 5052 0016 0823     		movs	r3, #8
 5053 0018 FB18     		adds	r3, r7, r3
 5054 001a 0A1C     		adds	r2, r1, #0
 5055 001c 1A80     		strh	r2, [r3]
 5056 001e 5E4B     		ldr	r3, .L308
 5057 0020 BB61     		str	r3, [r7, #24]
 5058 0022 0023     		movs	r3, #0
 5059 0024 7B61     		str	r3, [r7, #20]
 5060 0026 FB68     		ldr	r3, [r7, #12]
 5061 0028 4122     		movs	r2, #65
 5062 002a 9B5C     		ldrb	r3, [r3, r2]
 5063 002c DBB2     		uxtb	r3, r3
ARM GAS  /tmp/ccnCrYSN.s 			page 89


 5064 002e 202B     		cmp	r3, #32
 5065 0030 00D0     		beq	.LCB5428
 5066 0032 ABE0     		b	.L293	@long jump
 5067              	.LCB5428:
 5068 0034 FB68     		ldr	r3, [r7, #12]
 5069 0036 4022     		movs	r2, #64
 5070 0038 9B5C     		ldrb	r3, [r3, r2]
 5071 003a 012B     		cmp	r3, #1
 5072 003c 01D1     		bne	.L294
 5073 003e 0223     		movs	r3, #2
 5074 0040 A5E0     		b	.L295
 5075              	.L294:
 5076 0042 FB68     		ldr	r3, [r7, #12]
 5077 0044 4022     		movs	r2, #64
 5078 0046 0121     		movs	r1, #1
 5079 0048 9954     		strb	r1, [r3, r2]
 5080 004a FB68     		ldr	r3, [r7, #12]
 5081 004c 4122     		movs	r2, #65
 5082 004e 2121     		movs	r1, #33
 5083 0050 9954     		strb	r1, [r3, r2]
 5084 0052 FB68     		ldr	r3, [r7, #12]
 5085 0054 4222     		movs	r2, #66
 5086 0056 1021     		movs	r1, #16
 5087 0058 9954     		strb	r1, [r3, r2]
 5088 005a FB68     		ldr	r3, [r7, #12]
 5089 005c 0022     		movs	r2, #0
 5090 005e 5A64     		str	r2, [r3, #68]
 5091 0060 FB68     		ldr	r3, [r7, #12]
 5092 0062 7A68     		ldr	r2, [r7, #4]
 5093 0064 5A62     		str	r2, [r3, #36]
 5094 0066 FB68     		ldr	r3, [r7, #12]
 5095 0068 0822     		movs	r2, #8
 5096 006a BA18     		adds	r2, r7, r2
 5097 006c 1288     		ldrh	r2, [r2]
 5098 006e 5A85     		strh	r2, [r3, #42]
 5099 0070 FB68     		ldr	r3, [r7, #12]
 5100 0072 3A6B     		ldr	r2, [r7, #48]
 5101 0074 DA62     		str	r2, [r3, #44]
 5102 0076 FB68     		ldr	r3, [r7, #12]
 5103 0078 484A     		ldr	r2, .L308+4
 5104 007a 5A63     		str	r2, [r3, #52]
 5105 007c FB68     		ldr	r3, [r7, #12]
 5106 007e 5B8D     		ldrh	r3, [r3, #42]
 5107 0080 9BB2     		uxth	r3, r3
 5108 0082 FF2B     		cmp	r3, #255
 5109 0084 06D9     		bls	.L296
 5110 0086 FB68     		ldr	r3, [r7, #12]
 5111 0088 FF22     		movs	r2, #255
 5112 008a 1A85     		strh	r2, [r3, #40]
 5113 008c 8023     		movs	r3, #128
 5114 008e 5B04     		lsls	r3, r3, #17
 5115 0090 FB61     		str	r3, [r7, #28]
 5116 0092 07E0     		b	.L297
 5117              	.L296:
 5118 0094 FB68     		ldr	r3, [r7, #12]
 5119 0096 5B8D     		ldrh	r3, [r3, #42]
 5120 0098 9AB2     		uxth	r2, r3
ARM GAS  /tmp/ccnCrYSN.s 			page 90


 5121 009a FB68     		ldr	r3, [r7, #12]
 5122 009c 1A85     		strh	r2, [r3, #40]
 5123 009e FB68     		ldr	r3, [r7, #12]
 5124 00a0 DB6A     		ldr	r3, [r3, #44]
 5125 00a2 FB61     		str	r3, [r7, #28]
 5126              	.L297:
 5127 00a4 FB68     		ldr	r3, [r7, #12]
 5128 00a6 1B8D     		ldrh	r3, [r3, #40]
 5129 00a8 002B     		cmp	r3, #0
 5130 00aa 22D0     		beq	.L298
 5131 00ac 3B6B     		ldr	r3, [r7, #48]
 5132 00ae 002B     		cmp	r3, #0
 5133 00b0 04D0     		beq	.L299
 5134 00b2 3A6B     		ldr	r2, [r7, #48]
 5135 00b4 8023     		movs	r3, #128
 5136 00b6 9B04     		lsls	r3, r3, #18
 5137 00b8 9A42     		cmp	r2, r3
 5138 00ba 1AD1     		bne	.L298
 5139              	.L299:
 5140 00bc FB68     		ldr	r3, [r7, #12]
 5141 00be 5B6A     		ldr	r3, [r3, #36]
 5142 00c0 1A78     		ldrb	r2, [r3]
 5143 00c2 FB68     		ldr	r3, [r7, #12]
 5144 00c4 1B68     		ldr	r3, [r3]
 5145 00c6 9A62     		str	r2, [r3, #40]
 5146 00c8 FB68     		ldr	r3, [r7, #12]
 5147 00ca 5B6A     		ldr	r3, [r3, #36]
 5148 00cc 5A1C     		adds	r2, r3, #1
 5149 00ce FB68     		ldr	r3, [r7, #12]
 5150 00d0 5A62     		str	r2, [r3, #36]
 5151 00d2 FB68     		ldr	r3, [r7, #12]
 5152 00d4 1B8D     		ldrh	r3, [r3, #40]
 5153 00d6 7B61     		str	r3, [r7, #20]
 5154 00d8 FB68     		ldr	r3, [r7, #12]
 5155 00da 5B8D     		ldrh	r3, [r3, #42]
 5156 00dc 9BB2     		uxth	r3, r3
 5157 00de 013B     		subs	r3, r3, #1
 5158 00e0 9AB2     		uxth	r2, r3
 5159 00e2 FB68     		ldr	r3, [r7, #12]
 5160 00e4 5A85     		strh	r2, [r3, #42]
 5161 00e6 FB68     		ldr	r3, [r7, #12]
 5162 00e8 1B8D     		ldrh	r3, [r3, #40]
 5163 00ea 013B     		subs	r3, r3, #1
 5164 00ec 9AB2     		uxth	r2, r3
 5165 00ee FB68     		ldr	r3, [r7, #12]
 5166 00f0 1A85     		strh	r2, [r3, #40]
 5167              	.L298:
 5168 00f2 FB68     		ldr	r3, [r7, #12]
 5169 00f4 1B6B     		ldr	r3, [r3, #48]
 5170 00f6 112B     		cmp	r3, #17
 5171 00f8 0FD1     		bne	.L300
 5172 00fa 3B6B     		ldr	r3, [r7, #48]
 5173 00fc AA2B     		cmp	r3, #170
 5174 00fe 04D0     		beq	.L301
 5175 0100 3A6B     		ldr	r2, [r7, #48]
 5176 0102 AA23     		movs	r3, #170
 5177 0104 1B02     		lsls	r3, r3, #8
ARM GAS  /tmp/ccnCrYSN.s 			page 91


 5178 0106 9A42     		cmp	r2, r3
 5179 0108 01D1     		bne	.L302
 5180              	.L301:
 5181 010a 0123     		movs	r3, #1
 5182 010c 00E0     		b	.L303
 5183              	.L302:
 5184 010e 0023     		movs	r3, #0
 5185              	.L303:
 5186 0110 002B     		cmp	r3, #0
 5187 0112 02D1     		bne	.L300
 5188 0114 0023     		movs	r3, #0
 5189 0116 BB61     		str	r3, [r7, #24]
 5190 0118 0BE0     		b	.L304
 5191              	.L300:
 5192 011a FB68     		ldr	r3, [r7, #12]
 5193 011c 1800     		movs	r0, r3
 5194 011e FFF7FEFF 		bl	I2C_ConvertOtherXferOptions
 5195 0122 FB68     		ldr	r3, [r7, #12]
 5196 0124 5B8D     		ldrh	r3, [r3, #42]
 5197 0126 9BB2     		uxth	r3, r3
 5198 0128 FF2B     		cmp	r3, #255
 5199 012a 02D8     		bhi	.L304
 5200 012c FB68     		ldr	r3, [r7, #12]
 5201 012e DB6A     		ldr	r3, [r3, #44]
 5202 0130 FB61     		str	r3, [r7, #28]
 5203              	.L304:
 5204 0132 3B6B     		ldr	r3, [r7, #48]
 5205 0134 002B     		cmp	r3, #0
 5206 0136 04D0     		beq	.L305
 5207 0138 3A6B     		ldr	r2, [r7, #48]
 5208 013a 8023     		movs	r3, #128
 5209 013c 9B04     		lsls	r3, r3, #18
 5210 013e 9A42     		cmp	r2, r3
 5211 0140 0CD1     		bne	.L306
 5212              	.L305:
 5213 0142 7B69     		ldr	r3, [r7, #20]
 5214 0144 DAB2     		uxtb	r2, r3
 5215 0146 FC69     		ldr	r4, [r7, #28]
 5216 0148 0A23     		movs	r3, #10
 5217 014a FB18     		adds	r3, r7, r3
 5218 014c 1988     		ldrh	r1, [r3]
 5219 014e F868     		ldr	r0, [r7, #12]
 5220 0150 BB69     		ldr	r3, [r7, #24]
 5221 0152 0093     		str	r3, [sp]
 5222 0154 2300     		movs	r3, r4
 5223 0156 FFF7FEFF 		bl	I2C_TransferConfig
 5224 015a 0CE0     		b	.L307
 5225              	.L306:
 5226 015c FB68     		ldr	r3, [r7, #12]
 5227 015e 1B8D     		ldrh	r3, [r3, #40]
 5228 0160 DAB2     		uxtb	r2, r3
 5229 0162 FC69     		ldr	r4, [r7, #28]
 5230 0164 0A23     		movs	r3, #10
 5231 0166 FB18     		adds	r3, r7, r3
 5232 0168 1988     		ldrh	r1, [r3]
 5233 016a F868     		ldr	r0, [r7, #12]
 5234 016c BB69     		ldr	r3, [r7, #24]
ARM GAS  /tmp/ccnCrYSN.s 			page 92


 5235 016e 0093     		str	r3, [sp]
 5236 0170 2300     		movs	r3, r4
 5237 0172 FFF7FEFF 		bl	I2C_TransferConfig
 5238              	.L307:
 5239 0176 FB68     		ldr	r3, [r7, #12]
 5240 0178 4022     		movs	r2, #64
 5241 017a 0021     		movs	r1, #0
 5242 017c 9954     		strb	r1, [r3, r2]
 5243 017e FB68     		ldr	r3, [r7, #12]
 5244 0180 0121     		movs	r1, #1
 5245 0182 1800     		movs	r0, r3
 5246 0184 FFF7FEFF 		bl	I2C_Enable_IRQ
 5247 0188 0023     		movs	r3, #0
 5248 018a 00E0     		b	.L295
 5249              	.L293:
 5250 018c 0223     		movs	r3, #2
 5251              	.L295:
 5252 018e 1800     		movs	r0, r3
 5253 0190 BD46     		mov	sp, r7
 5254 0192 09B0     		add	sp, sp, #36
 5255              		@ sp needed
 5256 0194 90BD     		pop	{r4, r7, pc}
 5257              	.L309:
 5258 0196 C046     		.align	2
 5259              	.L308:
 5260 0198 00200080 		.word	-2147475456
 5261 019c 00000000 		.word	I2C_Master_ISR_IT
 5263              		.section	.text.HAL_I2C_Master_Seq_Transmit_DMA,"ax",%progbits
 5264              		.align	1
 5265              		.global	HAL_I2C_Master_Seq_Transmit_DMA
 5266              		.syntax unified
 5267              		.code	16
 5268              		.thumb_func
 5270              	HAL_I2C_Master_Seq_Transmit_DMA:
 5271              		@ args = 4, pretend = 0, frame = 32
 5272              		@ frame_needed = 1, uses_anonymous_args = 0
 5273 0000 B0B5     		push	{r4, r5, r7, lr}
 5274 0002 8AB0     		sub	sp, sp, #40
 5275 0004 02AF     		add	r7, sp, #8
 5276 0006 F860     		str	r0, [r7, #12]
 5277 0008 0800     		movs	r0, r1
 5278 000a 7A60     		str	r2, [r7, #4]
 5279 000c 1900     		movs	r1, r3
 5280 000e 0A23     		movs	r3, #10
 5281 0010 FB18     		adds	r3, r7, r3
 5282 0012 021C     		adds	r2, r0, #0
 5283 0014 1A80     		strh	r2, [r3]
 5284 0016 0823     		movs	r3, #8
 5285 0018 FB18     		adds	r3, r7, r3
 5286 001a 0A1C     		adds	r2, r1, #0
 5287 001c 1A80     		strh	r2, [r3]
 5288 001e AA4B     		ldr	r3, .L335
 5289 0020 BB61     		str	r3, [r7, #24]
 5290 0022 0023     		movs	r3, #0
 5291 0024 7B61     		str	r3, [r7, #20]
 5292 0026 FB68     		ldr	r3, [r7, #12]
 5293 0028 4122     		movs	r2, #65
ARM GAS  /tmp/ccnCrYSN.s 			page 93


 5294 002a 9B5C     		ldrb	r3, [r3, r2]
 5295 002c DBB2     		uxtb	r3, r3
 5296 002e 202B     		cmp	r3, #32
 5297 0030 00D0     		beq	.LCB5678
 5298 0032 43E1     		b	.L311	@long jump
 5299              	.LCB5678:
 5300 0034 FB68     		ldr	r3, [r7, #12]
 5301 0036 4022     		movs	r2, #64
 5302 0038 9B5C     		ldrb	r3, [r3, r2]
 5303 003a 012B     		cmp	r3, #1
 5304 003c 01D1     		bne	.L312
 5305 003e 0223     		movs	r3, #2
 5306 0040 3DE1     		b	.L313
 5307              	.L312:
 5308 0042 FB68     		ldr	r3, [r7, #12]
 5309 0044 4022     		movs	r2, #64
 5310 0046 0121     		movs	r1, #1
 5311 0048 9954     		strb	r1, [r3, r2]
 5312 004a FB68     		ldr	r3, [r7, #12]
 5313 004c 4122     		movs	r2, #65
 5314 004e 2121     		movs	r1, #33
 5315 0050 9954     		strb	r1, [r3, r2]
 5316 0052 FB68     		ldr	r3, [r7, #12]
 5317 0054 4222     		movs	r2, #66
 5318 0056 1021     		movs	r1, #16
 5319 0058 9954     		strb	r1, [r3, r2]
 5320 005a FB68     		ldr	r3, [r7, #12]
 5321 005c 0022     		movs	r2, #0
 5322 005e 5A64     		str	r2, [r3, #68]
 5323 0060 FB68     		ldr	r3, [r7, #12]
 5324 0062 7A68     		ldr	r2, [r7, #4]
 5325 0064 5A62     		str	r2, [r3, #36]
 5326 0066 FB68     		ldr	r3, [r7, #12]
 5327 0068 0822     		movs	r2, #8
 5328 006a BA18     		adds	r2, r7, r2
 5329 006c 1288     		ldrh	r2, [r2]
 5330 006e 5A85     		strh	r2, [r3, #42]
 5331 0070 FB68     		ldr	r3, [r7, #12]
 5332 0072 3A6B     		ldr	r2, [r7, #48]
 5333 0074 DA62     		str	r2, [r3, #44]
 5334 0076 FB68     		ldr	r3, [r7, #12]
 5335 0078 944A     		ldr	r2, .L335+4
 5336 007a 5A63     		str	r2, [r3, #52]
 5337 007c FB68     		ldr	r3, [r7, #12]
 5338 007e 5B8D     		ldrh	r3, [r3, #42]
 5339 0080 9BB2     		uxth	r3, r3
 5340 0082 FF2B     		cmp	r3, #255
 5341 0084 06D9     		bls	.L314
 5342 0086 FB68     		ldr	r3, [r7, #12]
 5343 0088 FF22     		movs	r2, #255
 5344 008a 1A85     		strh	r2, [r3, #40]
 5345 008c 8023     		movs	r3, #128
 5346 008e 5B04     		lsls	r3, r3, #17
 5347 0090 FB61     		str	r3, [r7, #28]
 5348 0092 07E0     		b	.L315
 5349              	.L314:
 5350 0094 FB68     		ldr	r3, [r7, #12]
ARM GAS  /tmp/ccnCrYSN.s 			page 94


 5351 0096 5B8D     		ldrh	r3, [r3, #42]
 5352 0098 9AB2     		uxth	r2, r3
 5353 009a FB68     		ldr	r3, [r7, #12]
 5354 009c 1A85     		strh	r2, [r3, #40]
 5355 009e FB68     		ldr	r3, [r7, #12]
 5356 00a0 DB6A     		ldr	r3, [r3, #44]
 5357 00a2 FB61     		str	r3, [r7, #28]
 5358              	.L315:
 5359 00a4 FB68     		ldr	r3, [r7, #12]
 5360 00a6 1B8D     		ldrh	r3, [r3, #40]
 5361 00a8 002B     		cmp	r3, #0
 5362 00aa 22D0     		beq	.L316
 5363 00ac 3B6B     		ldr	r3, [r7, #48]
 5364 00ae 002B     		cmp	r3, #0
 5365 00b0 04D0     		beq	.L317
 5366 00b2 3A6B     		ldr	r2, [r7, #48]
 5367 00b4 8023     		movs	r3, #128
 5368 00b6 9B04     		lsls	r3, r3, #18
 5369 00b8 9A42     		cmp	r2, r3
 5370 00ba 1AD1     		bne	.L316
 5371              	.L317:
 5372 00bc FB68     		ldr	r3, [r7, #12]
 5373 00be 5B6A     		ldr	r3, [r3, #36]
 5374 00c0 1A78     		ldrb	r2, [r3]
 5375 00c2 FB68     		ldr	r3, [r7, #12]
 5376 00c4 1B68     		ldr	r3, [r3]
 5377 00c6 9A62     		str	r2, [r3, #40]
 5378 00c8 FB68     		ldr	r3, [r7, #12]
 5379 00ca 5B6A     		ldr	r3, [r3, #36]
 5380 00cc 5A1C     		adds	r2, r3, #1
 5381 00ce FB68     		ldr	r3, [r7, #12]
 5382 00d0 5A62     		str	r2, [r3, #36]
 5383 00d2 FB68     		ldr	r3, [r7, #12]
 5384 00d4 1B8D     		ldrh	r3, [r3, #40]
 5385 00d6 7B61     		str	r3, [r7, #20]
 5386 00d8 FB68     		ldr	r3, [r7, #12]
 5387 00da 5B8D     		ldrh	r3, [r3, #42]
 5388 00dc 9BB2     		uxth	r3, r3
 5389 00de 013B     		subs	r3, r3, #1
 5390 00e0 9AB2     		uxth	r2, r3
 5391 00e2 FB68     		ldr	r3, [r7, #12]
 5392 00e4 5A85     		strh	r2, [r3, #42]
 5393 00e6 FB68     		ldr	r3, [r7, #12]
 5394 00e8 1B8D     		ldrh	r3, [r3, #40]
 5395 00ea 013B     		subs	r3, r3, #1
 5396 00ec 9AB2     		uxth	r2, r3
 5397 00ee FB68     		ldr	r3, [r7, #12]
 5398 00f0 1A85     		strh	r2, [r3, #40]
 5399              	.L316:
 5400 00f2 FB68     		ldr	r3, [r7, #12]
 5401 00f4 1B6B     		ldr	r3, [r3, #48]
 5402 00f6 112B     		cmp	r3, #17
 5403 00f8 0FD1     		bne	.L318
 5404 00fa 3B6B     		ldr	r3, [r7, #48]
 5405 00fc AA2B     		cmp	r3, #170
 5406 00fe 04D0     		beq	.L319
 5407 0100 3A6B     		ldr	r2, [r7, #48]
ARM GAS  /tmp/ccnCrYSN.s 			page 95


 5408 0102 AA23     		movs	r3, #170
 5409 0104 1B02     		lsls	r3, r3, #8
 5410 0106 9A42     		cmp	r2, r3
 5411 0108 01D1     		bne	.L320
 5412              	.L319:
 5413 010a 0123     		movs	r3, #1
 5414 010c 00E0     		b	.L321
 5415              	.L320:
 5416 010e 0023     		movs	r3, #0
 5417              	.L321:
 5418 0110 002B     		cmp	r3, #0
 5419 0112 02D1     		bne	.L318
 5420 0114 0023     		movs	r3, #0
 5421 0116 BB61     		str	r3, [r7, #24]
 5422 0118 0BE0     		b	.L322
 5423              	.L318:
 5424 011a FB68     		ldr	r3, [r7, #12]
 5425 011c 1800     		movs	r0, r3
 5426 011e FFF7FEFF 		bl	I2C_ConvertOtherXferOptions
 5427 0122 FB68     		ldr	r3, [r7, #12]
 5428 0124 5B8D     		ldrh	r3, [r3, #42]
 5429 0126 9BB2     		uxth	r3, r3
 5430 0128 FF2B     		cmp	r3, #255
 5431 012a 02D8     		bhi	.L322
 5432 012c FB68     		ldr	r3, [r7, #12]
 5433 012e DB6A     		ldr	r3, [r3, #44]
 5434 0130 FB61     		str	r3, [r7, #28]
 5435              	.L322:
 5436 0132 FB68     		ldr	r3, [r7, #12]
 5437 0134 1B8D     		ldrh	r3, [r3, #40]
 5438 0136 002B     		cmp	r3, #0
 5439 0138 00D1     		bne	.LCB5830
 5440 013a 8FE0     		b	.L323	@long jump
 5441              	.LCB5830:
 5442 013c FB68     		ldr	r3, [r7, #12]
 5443 013e 9B6B     		ldr	r3, [r3, #56]
 5444 0140 002B     		cmp	r3, #0
 5445 0142 25D0     		beq	.L324
 5446 0144 FB68     		ldr	r3, [r7, #12]
 5447 0146 9B6B     		ldr	r3, [r3, #56]
 5448 0148 614A     		ldr	r2, .L335+8
 5449 014a 9A62     		str	r2, [r3, #40]
 5450 014c FB68     		ldr	r3, [r7, #12]
 5451 014e 9B6B     		ldr	r3, [r3, #56]
 5452 0150 604A     		ldr	r2, .L335+12
 5453 0152 1A63     		str	r2, [r3, #48]
 5454 0154 FB68     		ldr	r3, [r7, #12]
 5455 0156 9B6B     		ldr	r3, [r3, #56]
 5456 0158 0022     		movs	r2, #0
 5457 015a DA62     		str	r2, [r3, #44]
 5458 015c FB68     		ldr	r3, [r7, #12]
 5459 015e 9B6B     		ldr	r3, [r3, #56]
 5460 0160 0022     		movs	r2, #0
 5461 0162 5A63     		str	r2, [r3, #52]
 5462 0164 FB68     		ldr	r3, [r7, #12]
 5463 0166 986B     		ldr	r0, [r3, #56]
 5464 0168 FB68     		ldr	r3, [r7, #12]
ARM GAS  /tmp/ccnCrYSN.s 			page 96


 5465 016a 5B6A     		ldr	r3, [r3, #36]
 5466 016c 1900     		movs	r1, r3
 5467 016e FB68     		ldr	r3, [r7, #12]
 5468 0170 1B68     		ldr	r3, [r3]
 5469 0172 2833     		adds	r3, r3, #40
 5470 0174 1A00     		movs	r2, r3
 5471 0176 FB68     		ldr	r3, [r7, #12]
 5472 0178 1B8D     		ldrh	r3, [r3, #40]
 5473 017a 1325     		movs	r5, #19
 5474 017c 7C19     		adds	r4, r7, r5
 5475 017e FFF7FEFF 		bl	HAL_DMA_Start_IT
 5476 0182 0300     		movs	r3, r0
 5477 0184 2370     		strb	r3, [r4]
 5478 0186 7B19     		adds	r3, r7, r5
 5479 0188 1B78     		ldrb	r3, [r3]
 5480 018a 002B     		cmp	r3, #0
 5481 018c 52D1     		bne	.L326
 5482 018e 13E0     		b	.L334
 5483              	.L324:
 5484 0190 FB68     		ldr	r3, [r7, #12]
 5485 0192 4122     		movs	r2, #65
 5486 0194 2021     		movs	r1, #32
 5487 0196 9954     		strb	r1, [r3, r2]
 5488 0198 FB68     		ldr	r3, [r7, #12]
 5489 019a 4222     		movs	r2, #66
 5490 019c 0021     		movs	r1, #0
 5491 019e 9954     		strb	r1, [r3, r2]
 5492 01a0 FB68     		ldr	r3, [r7, #12]
 5493 01a2 5B6C     		ldr	r3, [r3, #68]
 5494 01a4 8022     		movs	r2, #128
 5495 01a6 1A43     		orrs	r2, r3
 5496 01a8 FB68     		ldr	r3, [r7, #12]
 5497 01aa 5A64     		str	r2, [r3, #68]
 5498 01ac FB68     		ldr	r3, [r7, #12]
 5499 01ae 4022     		movs	r2, #64
 5500 01b0 0021     		movs	r1, #0
 5501 01b2 9954     		strb	r1, [r3, r2]
 5502 01b4 0123     		movs	r3, #1
 5503 01b6 82E0     		b	.L313
 5504              	.L334:
 5505 01b8 3B6B     		ldr	r3, [r7, #48]
 5506 01ba 002B     		cmp	r3, #0
 5507 01bc 04D0     		beq	.L327
 5508 01be 3A6B     		ldr	r2, [r7, #48]
 5509 01c0 8023     		movs	r3, #128
 5510 01c2 9B04     		lsls	r3, r3, #18
 5511 01c4 9A42     		cmp	r2, r3
 5512 01c6 0CD1     		bne	.L328
 5513              	.L327:
 5514 01c8 7B69     		ldr	r3, [r7, #20]
 5515 01ca DAB2     		uxtb	r2, r3
 5516 01cc FC69     		ldr	r4, [r7, #28]
 5517 01ce 0A23     		movs	r3, #10
 5518 01d0 FB18     		adds	r3, r7, r3
 5519 01d2 1988     		ldrh	r1, [r3]
 5520 01d4 F868     		ldr	r0, [r7, #12]
 5521 01d6 BB69     		ldr	r3, [r7, #24]
ARM GAS  /tmp/ccnCrYSN.s 			page 97


 5522 01d8 0093     		str	r3, [sp]
 5523 01da 2300     		movs	r3, r4
 5524 01dc FFF7FEFF 		bl	I2C_TransferConfig
 5525 01e0 0CE0     		b	.L329
 5526              	.L328:
 5527 01e2 FB68     		ldr	r3, [r7, #12]
 5528 01e4 1B8D     		ldrh	r3, [r3, #40]
 5529 01e6 DAB2     		uxtb	r2, r3
 5530 01e8 FC69     		ldr	r4, [r7, #28]
 5531 01ea 0A23     		movs	r3, #10
 5532 01ec FB18     		adds	r3, r7, r3
 5533 01ee 1988     		ldrh	r1, [r3]
 5534 01f0 F868     		ldr	r0, [r7, #12]
 5535 01f2 BB69     		ldr	r3, [r7, #24]
 5536 01f4 0093     		str	r3, [sp]
 5537 01f6 2300     		movs	r3, r4
 5538 01f8 FFF7FEFF 		bl	I2C_TransferConfig
 5539              	.L329:
 5540 01fc FB68     		ldr	r3, [r7, #12]
 5541 01fe 5B8D     		ldrh	r3, [r3, #42]
 5542 0200 9AB2     		uxth	r2, r3
 5543 0202 FB68     		ldr	r3, [r7, #12]
 5544 0204 1B8D     		ldrh	r3, [r3, #40]
 5545 0206 D31A     		subs	r3, r2, r3
 5546 0208 9AB2     		uxth	r2, r3
 5547 020a FB68     		ldr	r3, [r7, #12]
 5548 020c 5A85     		strh	r2, [r3, #42]
 5549 020e FB68     		ldr	r3, [r7, #12]
 5550 0210 4022     		movs	r2, #64
 5551 0212 0021     		movs	r1, #0
 5552 0214 9954     		strb	r1, [r3, r2]
 5553 0216 FB68     		ldr	r3, [r7, #12]
 5554 0218 1021     		movs	r1, #16
 5555 021a 1800     		movs	r0, r3
 5556 021c FFF7FEFF 		bl	I2C_Enable_IRQ
 5557 0220 FB68     		ldr	r3, [r7, #12]
 5558 0222 1B68     		ldr	r3, [r3]
 5559 0224 1A68     		ldr	r2, [r3]
 5560 0226 FB68     		ldr	r3, [r7, #12]
 5561 0228 1B68     		ldr	r3, [r3]
 5562 022a 8021     		movs	r1, #128
 5563 022c C901     		lsls	r1, r1, #7
 5564 022e 0A43     		orrs	r2, r1
 5565 0230 1A60     		str	r2, [r3]
 5566 0232 41E0     		b	.L330
 5567              	.L326:
 5568 0234 FB68     		ldr	r3, [r7, #12]
 5569 0236 4122     		movs	r2, #65
 5570 0238 2021     		movs	r1, #32
 5571 023a 9954     		strb	r1, [r3, r2]
 5572 023c FB68     		ldr	r3, [r7, #12]
 5573 023e 4222     		movs	r2, #66
 5574 0240 0021     		movs	r1, #0
 5575 0242 9954     		strb	r1, [r3, r2]
 5576 0244 FB68     		ldr	r3, [r7, #12]
 5577 0246 5B6C     		ldr	r3, [r3, #68]
 5578 0248 1022     		movs	r2, #16
ARM GAS  /tmp/ccnCrYSN.s 			page 98


 5579 024a 1A43     		orrs	r2, r3
 5580 024c FB68     		ldr	r3, [r7, #12]
 5581 024e 5A64     		str	r2, [r3, #68]
 5582 0250 FB68     		ldr	r3, [r7, #12]
 5583 0252 4022     		movs	r2, #64
 5584 0254 0021     		movs	r1, #0
 5585 0256 9954     		strb	r1, [r3, r2]
 5586 0258 0123     		movs	r3, #1
 5587 025a 30E0     		b	.L313
 5588              	.L323:
 5589 025c FB68     		ldr	r3, [r7, #12]
 5590 025e 1E4A     		ldr	r2, .L335+16
 5591 0260 5A63     		str	r2, [r3, #52]
 5592 0262 3B6B     		ldr	r3, [r7, #48]
 5593 0264 002B     		cmp	r3, #0
 5594 0266 04D0     		beq	.L331
 5595 0268 3A6B     		ldr	r2, [r7, #48]
 5596 026a 8023     		movs	r3, #128
 5597 026c 9B04     		lsls	r3, r3, #18
 5598 026e 9A42     		cmp	r2, r3
 5599 0270 0CD1     		bne	.L332
 5600              	.L331:
 5601 0272 7B69     		ldr	r3, [r7, #20]
 5602 0274 DAB2     		uxtb	r2, r3
 5603 0276 FC69     		ldr	r4, [r7, #28]
 5604 0278 0A23     		movs	r3, #10
 5605 027a FB18     		adds	r3, r7, r3
 5606 027c 1988     		ldrh	r1, [r3]
 5607 027e F868     		ldr	r0, [r7, #12]
 5608 0280 BB69     		ldr	r3, [r7, #24]
 5609 0282 0093     		str	r3, [sp]
 5610 0284 2300     		movs	r3, r4
 5611 0286 FFF7FEFF 		bl	I2C_TransferConfig
 5612 028a 0CE0     		b	.L333
 5613              	.L332:
 5614 028c FB68     		ldr	r3, [r7, #12]
 5615 028e 1B8D     		ldrh	r3, [r3, #40]
 5616 0290 DAB2     		uxtb	r2, r3
 5617 0292 FC69     		ldr	r4, [r7, #28]
 5618 0294 0A23     		movs	r3, #10
 5619 0296 FB18     		adds	r3, r7, r3
 5620 0298 1988     		ldrh	r1, [r3]
 5621 029a F868     		ldr	r0, [r7, #12]
 5622 029c BB69     		ldr	r3, [r7, #24]
 5623 029e 0093     		str	r3, [sp]
 5624 02a0 2300     		movs	r3, r4
 5625 02a2 FFF7FEFF 		bl	I2C_TransferConfig
 5626              	.L333:
 5627 02a6 FB68     		ldr	r3, [r7, #12]
 5628 02a8 4022     		movs	r2, #64
 5629 02aa 0021     		movs	r1, #0
 5630 02ac 9954     		strb	r1, [r3, r2]
 5631 02ae FB68     		ldr	r3, [r7, #12]
 5632 02b0 0121     		movs	r1, #1
 5633 02b2 1800     		movs	r0, r3
 5634 02b4 FFF7FEFF 		bl	I2C_Enable_IRQ
 5635              	.L330:
ARM GAS  /tmp/ccnCrYSN.s 			page 99


 5636 02b8 0023     		movs	r3, #0
 5637 02ba 00E0     		b	.L313
 5638              	.L311:
 5639 02bc 0223     		movs	r3, #2
 5640              	.L313:
 5641 02be 1800     		movs	r0, r3
 5642 02c0 BD46     		mov	sp, r7
 5643 02c2 08B0     		add	sp, sp, #32
 5644              		@ sp needed
 5645 02c4 B0BD     		pop	{r4, r5, r7, pc}
 5646              	.L336:
 5647 02c6 C046     		.align	2
 5648              	.L335:
 5649 02c8 00200080 		.word	-2147475456
 5650 02cc 00000000 		.word	I2C_Master_ISR_DMA
 5651 02d0 00000000 		.word	I2C_DMAMasterTransmitCplt
 5652 02d4 00000000 		.word	I2C_DMAError
 5653 02d8 00000000 		.word	I2C_Master_ISR_IT
 5655              		.section	.text.HAL_I2C_Master_Seq_Receive_IT,"ax",%progbits
 5656              		.align	1
 5657              		.global	HAL_I2C_Master_Seq_Receive_IT
 5658              		.syntax unified
 5659              		.code	16
 5660              		.thumb_func
 5662              	HAL_I2C_Master_Seq_Receive_IT:
 5663              		@ args = 4, pretend = 0, frame = 24
 5664              		@ frame_needed = 1, uses_anonymous_args = 0
 5665 0000 90B5     		push	{r4, r7, lr}
 5666 0002 89B0     		sub	sp, sp, #36
 5667 0004 02AF     		add	r7, sp, #8
 5668 0006 F860     		str	r0, [r7, #12]
 5669 0008 0800     		movs	r0, r1
 5670 000a 7A60     		str	r2, [r7, #4]
 5671 000c 1900     		movs	r1, r3
 5672 000e 0A23     		movs	r3, #10
 5673 0010 FB18     		adds	r3, r7, r3
 5674 0012 021C     		adds	r2, r0, #0
 5675 0014 1A80     		strh	r2, [r3]
 5676 0016 0823     		movs	r3, #8
 5677 0018 FB18     		adds	r3, r7, r3
 5678 001a 0A1C     		adds	r2, r1, #0
 5679 001c 1A80     		strh	r2, [r3]
 5680 001e 3F4B     		ldr	r3, .L348
 5681 0020 3B61     		str	r3, [r7, #16]
 5682 0022 FB68     		ldr	r3, [r7, #12]
 5683 0024 4122     		movs	r2, #65
 5684 0026 9B5C     		ldrb	r3, [r3, r2]
 5685 0028 DBB2     		uxtb	r3, r3
 5686 002a 202B     		cmp	r3, #32
 5687 002c 00D0     		beq	.LCB6098
 5688 002e 6FE0     		b	.L338	@long jump
 5689              	.LCB6098:
 5690 0030 FB68     		ldr	r3, [r7, #12]
 5691 0032 4022     		movs	r2, #64
 5692 0034 9B5C     		ldrb	r3, [r3, r2]
 5693 0036 012B     		cmp	r3, #1
 5694 0038 01D1     		bne	.L339
ARM GAS  /tmp/ccnCrYSN.s 			page 100


 5695 003a 0223     		movs	r3, #2
 5696 003c 69E0     		b	.L340
 5697              	.L339:
 5698 003e FB68     		ldr	r3, [r7, #12]
 5699 0040 4022     		movs	r2, #64
 5700 0042 0121     		movs	r1, #1
 5701 0044 9954     		strb	r1, [r3, r2]
 5702 0046 FB68     		ldr	r3, [r7, #12]
 5703 0048 4122     		movs	r2, #65
 5704 004a 2221     		movs	r1, #34
 5705 004c 9954     		strb	r1, [r3, r2]
 5706 004e FB68     		ldr	r3, [r7, #12]
 5707 0050 4222     		movs	r2, #66
 5708 0052 1021     		movs	r1, #16
 5709 0054 9954     		strb	r1, [r3, r2]
 5710 0056 FB68     		ldr	r3, [r7, #12]
 5711 0058 0022     		movs	r2, #0
 5712 005a 5A64     		str	r2, [r3, #68]
 5713 005c FB68     		ldr	r3, [r7, #12]
 5714 005e 7A68     		ldr	r2, [r7, #4]
 5715 0060 5A62     		str	r2, [r3, #36]
 5716 0062 FB68     		ldr	r3, [r7, #12]
 5717 0064 0822     		movs	r2, #8
 5718 0066 BA18     		adds	r2, r7, r2
 5719 0068 1288     		ldrh	r2, [r2]
 5720 006a 5A85     		strh	r2, [r3, #42]
 5721 006c FB68     		ldr	r3, [r7, #12]
 5722 006e BA6A     		ldr	r2, [r7, #40]
 5723 0070 DA62     		str	r2, [r3, #44]
 5724 0072 FB68     		ldr	r3, [r7, #12]
 5725 0074 2A4A     		ldr	r2, .L348+4
 5726 0076 5A63     		str	r2, [r3, #52]
 5727 0078 FB68     		ldr	r3, [r7, #12]
 5728 007a 5B8D     		ldrh	r3, [r3, #42]
 5729 007c 9BB2     		uxth	r3, r3
 5730 007e FF2B     		cmp	r3, #255
 5731 0080 06D9     		bls	.L341
 5732 0082 FB68     		ldr	r3, [r7, #12]
 5733 0084 FF22     		movs	r2, #255
 5734 0086 1A85     		strh	r2, [r3, #40]
 5735 0088 8023     		movs	r3, #128
 5736 008a 5B04     		lsls	r3, r3, #17
 5737 008c 7B61     		str	r3, [r7, #20]
 5738 008e 07E0     		b	.L342
 5739              	.L341:
 5740 0090 FB68     		ldr	r3, [r7, #12]
 5741 0092 5B8D     		ldrh	r3, [r3, #42]
 5742 0094 9AB2     		uxth	r2, r3
 5743 0096 FB68     		ldr	r3, [r7, #12]
 5744 0098 1A85     		strh	r2, [r3, #40]
 5745 009a FB68     		ldr	r3, [r7, #12]
 5746 009c DB6A     		ldr	r3, [r3, #44]
 5747 009e 7B61     		str	r3, [r7, #20]
 5748              	.L342:
 5749 00a0 FB68     		ldr	r3, [r7, #12]
 5750 00a2 1B6B     		ldr	r3, [r3, #48]
 5751 00a4 122B     		cmp	r3, #18
ARM GAS  /tmp/ccnCrYSN.s 			page 101


 5752 00a6 0FD1     		bne	.L343
 5753 00a8 BB6A     		ldr	r3, [r7, #40]
 5754 00aa AA2B     		cmp	r3, #170
 5755 00ac 04D0     		beq	.L344
 5756 00ae BA6A     		ldr	r2, [r7, #40]
 5757 00b0 AA23     		movs	r3, #170
 5758 00b2 1B02     		lsls	r3, r3, #8
 5759 00b4 9A42     		cmp	r2, r3
 5760 00b6 01D1     		bne	.L345
 5761              	.L344:
 5762 00b8 0123     		movs	r3, #1
 5763 00ba 00E0     		b	.L346
 5764              	.L345:
 5765 00bc 0023     		movs	r3, #0
 5766              	.L346:
 5767 00be 002B     		cmp	r3, #0
 5768 00c0 02D1     		bne	.L343
 5769 00c2 0023     		movs	r3, #0
 5770 00c4 3B61     		str	r3, [r7, #16]
 5771 00c6 0BE0     		b	.L347
 5772              	.L343:
 5773 00c8 FB68     		ldr	r3, [r7, #12]
 5774 00ca 1800     		movs	r0, r3
 5775 00cc FFF7FEFF 		bl	I2C_ConvertOtherXferOptions
 5776 00d0 FB68     		ldr	r3, [r7, #12]
 5777 00d2 5B8D     		ldrh	r3, [r3, #42]
 5778 00d4 9BB2     		uxth	r3, r3
 5779 00d6 FF2B     		cmp	r3, #255
 5780 00d8 02D8     		bhi	.L347
 5781 00da FB68     		ldr	r3, [r7, #12]
 5782 00dc DB6A     		ldr	r3, [r3, #44]
 5783 00de 7B61     		str	r3, [r7, #20]
 5784              	.L347:
 5785 00e0 FB68     		ldr	r3, [r7, #12]
 5786 00e2 1B8D     		ldrh	r3, [r3, #40]
 5787 00e4 DAB2     		uxtb	r2, r3
 5788 00e6 7C69     		ldr	r4, [r7, #20]
 5789 00e8 0A23     		movs	r3, #10
 5790 00ea FB18     		adds	r3, r7, r3
 5791 00ec 1988     		ldrh	r1, [r3]
 5792 00ee F868     		ldr	r0, [r7, #12]
 5793 00f0 3B69     		ldr	r3, [r7, #16]
 5794 00f2 0093     		str	r3, [sp]
 5795 00f4 2300     		movs	r3, r4
 5796 00f6 FFF7FEFF 		bl	I2C_TransferConfig
 5797 00fa FB68     		ldr	r3, [r7, #12]
 5798 00fc 4022     		movs	r2, #64
 5799 00fe 0021     		movs	r1, #0
 5800 0100 9954     		strb	r1, [r3, r2]
 5801 0102 FB68     		ldr	r3, [r7, #12]
 5802 0104 0221     		movs	r1, #2
 5803 0106 1800     		movs	r0, r3
 5804 0108 FFF7FEFF 		bl	I2C_Enable_IRQ
 5805 010c 0023     		movs	r3, #0
 5806 010e 00E0     		b	.L340
 5807              	.L338:
 5808 0110 0223     		movs	r3, #2
ARM GAS  /tmp/ccnCrYSN.s 			page 102


 5809              	.L340:
 5810 0112 1800     		movs	r0, r3
 5811 0114 BD46     		mov	sp, r7
 5812 0116 07B0     		add	sp, sp, #28
 5813              		@ sp needed
 5814 0118 90BD     		pop	{r4, r7, pc}
 5815              	.L349:
 5816 011a C046     		.align	2
 5817              	.L348:
 5818 011c 00240080 		.word	-2147474432
 5819 0120 00000000 		.word	I2C_Master_ISR_IT
 5821              		.section	.text.HAL_I2C_Master_Seq_Receive_DMA,"ax",%progbits
 5822              		.align	1
 5823              		.global	HAL_I2C_Master_Seq_Receive_DMA
 5824              		.syntax unified
 5825              		.code	16
 5826              		.thumb_func
 5828              	HAL_I2C_Master_Seq_Receive_DMA:
 5829              		@ args = 4, pretend = 0, frame = 32
 5830              		@ frame_needed = 1, uses_anonymous_args = 0
 5831 0000 B0B5     		push	{r4, r5, r7, lr}
 5832 0002 8AB0     		sub	sp, sp, #40
 5833 0004 02AF     		add	r7, sp, #8
 5834 0006 F860     		str	r0, [r7, #12]
 5835 0008 0800     		movs	r0, r1
 5836 000a 7A60     		str	r2, [r7, #4]
 5837 000c 1900     		movs	r1, r3
 5838 000e 0A23     		movs	r3, #10
 5839 0010 FB18     		adds	r3, r7, r3
 5840 0012 021C     		adds	r2, r0, #0
 5841 0014 1A80     		strh	r2, [r3]
 5842 0016 0823     		movs	r3, #8
 5843 0018 FB18     		adds	r3, r7, r3
 5844 001a 0A1C     		adds	r2, r1, #0
 5845 001c 1A80     		strh	r2, [r3]
 5846 001e 804B     		ldr	r3, .L367
 5847 0020 BB61     		str	r3, [r7, #24]
 5848 0022 FB68     		ldr	r3, [r7, #12]
 5849 0024 4122     		movs	r2, #65
 5850 0026 9B5C     		ldrb	r3, [r3, r2]
 5851 0028 DBB2     		uxtb	r3, r3
 5852 002a 202B     		cmp	r3, #32
 5853 002c 00D0     		beq	.LCB6278
 5854 002e F1E0     		b	.L351	@long jump
 5855              	.LCB6278:
 5856 0030 FB68     		ldr	r3, [r7, #12]
 5857 0032 4022     		movs	r2, #64
 5858 0034 9B5C     		ldrb	r3, [r3, r2]
 5859 0036 012B     		cmp	r3, #1
 5860 0038 01D1     		bne	.L352
 5861 003a 0223     		movs	r3, #2
 5862 003c EBE0     		b	.L353
 5863              	.L352:
 5864 003e FB68     		ldr	r3, [r7, #12]
 5865 0040 4022     		movs	r2, #64
 5866 0042 0121     		movs	r1, #1
 5867 0044 9954     		strb	r1, [r3, r2]
ARM GAS  /tmp/ccnCrYSN.s 			page 103


 5868 0046 FB68     		ldr	r3, [r7, #12]
 5869 0048 4122     		movs	r2, #65
 5870 004a 2221     		movs	r1, #34
 5871 004c 9954     		strb	r1, [r3, r2]
 5872 004e FB68     		ldr	r3, [r7, #12]
 5873 0050 4222     		movs	r2, #66
 5874 0052 1021     		movs	r1, #16
 5875 0054 9954     		strb	r1, [r3, r2]
 5876 0056 FB68     		ldr	r3, [r7, #12]
 5877 0058 0022     		movs	r2, #0
 5878 005a 5A64     		str	r2, [r3, #68]
 5879 005c FB68     		ldr	r3, [r7, #12]
 5880 005e 7A68     		ldr	r2, [r7, #4]
 5881 0060 5A62     		str	r2, [r3, #36]
 5882 0062 FB68     		ldr	r3, [r7, #12]
 5883 0064 0822     		movs	r2, #8
 5884 0066 BA18     		adds	r2, r7, r2
 5885 0068 1288     		ldrh	r2, [r2]
 5886 006a 5A85     		strh	r2, [r3, #42]
 5887 006c FB68     		ldr	r3, [r7, #12]
 5888 006e 3A6B     		ldr	r2, [r7, #48]
 5889 0070 DA62     		str	r2, [r3, #44]
 5890 0072 FB68     		ldr	r3, [r7, #12]
 5891 0074 6B4A     		ldr	r2, .L367+4
 5892 0076 5A63     		str	r2, [r3, #52]
 5893 0078 FB68     		ldr	r3, [r7, #12]
 5894 007a 5B8D     		ldrh	r3, [r3, #42]
 5895 007c 9BB2     		uxth	r3, r3
 5896 007e FF2B     		cmp	r3, #255
 5897 0080 06D9     		bls	.L354
 5898 0082 FB68     		ldr	r3, [r7, #12]
 5899 0084 FF22     		movs	r2, #255
 5900 0086 1A85     		strh	r2, [r3, #40]
 5901 0088 8023     		movs	r3, #128
 5902 008a 5B04     		lsls	r3, r3, #17
 5903 008c FB61     		str	r3, [r7, #28]
 5904 008e 07E0     		b	.L355
 5905              	.L354:
 5906 0090 FB68     		ldr	r3, [r7, #12]
 5907 0092 5B8D     		ldrh	r3, [r3, #42]
 5908 0094 9AB2     		uxth	r2, r3
 5909 0096 FB68     		ldr	r3, [r7, #12]
 5910 0098 1A85     		strh	r2, [r3, #40]
 5911 009a FB68     		ldr	r3, [r7, #12]
 5912 009c DB6A     		ldr	r3, [r3, #44]
 5913 009e FB61     		str	r3, [r7, #28]
 5914              	.L355:
 5915 00a0 FB68     		ldr	r3, [r7, #12]
 5916 00a2 1B6B     		ldr	r3, [r3, #48]
 5917 00a4 122B     		cmp	r3, #18
 5918 00a6 0FD1     		bne	.L356
 5919 00a8 3B6B     		ldr	r3, [r7, #48]
 5920 00aa AA2B     		cmp	r3, #170
 5921 00ac 04D0     		beq	.L357
 5922 00ae 3A6B     		ldr	r2, [r7, #48]
 5923 00b0 AA23     		movs	r3, #170
 5924 00b2 1B02     		lsls	r3, r3, #8
ARM GAS  /tmp/ccnCrYSN.s 			page 104


 5925 00b4 9A42     		cmp	r2, r3
 5926 00b6 01D1     		bne	.L358
 5927              	.L357:
 5928 00b8 0123     		movs	r3, #1
 5929 00ba 00E0     		b	.L359
 5930              	.L358:
 5931 00bc 0023     		movs	r3, #0
 5932              	.L359:
 5933 00be 002B     		cmp	r3, #0
 5934 00c0 02D1     		bne	.L356
 5935 00c2 0023     		movs	r3, #0
 5936 00c4 BB61     		str	r3, [r7, #24]
 5937 00c6 0BE0     		b	.L360
 5938              	.L356:
 5939 00c8 FB68     		ldr	r3, [r7, #12]
 5940 00ca 1800     		movs	r0, r3
 5941 00cc FFF7FEFF 		bl	I2C_ConvertOtherXferOptions
 5942 00d0 FB68     		ldr	r3, [r7, #12]
 5943 00d2 5B8D     		ldrh	r3, [r3, #42]
 5944 00d4 9BB2     		uxth	r3, r3
 5945 00d6 FF2B     		cmp	r3, #255
 5946 00d8 02D8     		bhi	.L360
 5947 00da FB68     		ldr	r3, [r7, #12]
 5948 00dc DB6A     		ldr	r3, [r3, #44]
 5949 00de FB61     		str	r3, [r7, #28]
 5950              	.L360:
 5951 00e0 FB68     		ldr	r3, [r7, #12]
 5952 00e2 1B8D     		ldrh	r3, [r3, #40]
 5953 00e4 002B     		cmp	r3, #0
 5954 00e6 00D1     		bne	.LCB6388
 5955 00e8 78E0     		b	.L361	@long jump
 5956              	.LCB6388:
 5957 00ea FB68     		ldr	r3, [r7, #12]
 5958 00ec DB6B     		ldr	r3, [r3, #60]
 5959 00ee 002B     		cmp	r3, #0
 5960 00f0 23D0     		beq	.L362
 5961 00f2 FB68     		ldr	r3, [r7, #12]
 5962 00f4 DB6B     		ldr	r3, [r3, #60]
 5963 00f6 4C4A     		ldr	r2, .L367+8
 5964 00f8 9A62     		str	r2, [r3, #40]
 5965 00fa FB68     		ldr	r3, [r7, #12]
 5966 00fc DB6B     		ldr	r3, [r3, #60]
 5967 00fe 4B4A     		ldr	r2, .L367+12
 5968 0100 1A63     		str	r2, [r3, #48]
 5969 0102 FB68     		ldr	r3, [r7, #12]
 5970 0104 DB6B     		ldr	r3, [r3, #60]
 5971 0106 0022     		movs	r2, #0
 5972 0108 DA62     		str	r2, [r3, #44]
 5973 010a FB68     		ldr	r3, [r7, #12]
 5974 010c DB6B     		ldr	r3, [r3, #60]
 5975 010e 0022     		movs	r2, #0
 5976 0110 5A63     		str	r2, [r3, #52]
 5977 0112 FB68     		ldr	r3, [r7, #12]
 5978 0114 D86B     		ldr	r0, [r3, #60]
 5979 0116 FB68     		ldr	r3, [r7, #12]
 5980 0118 1B68     		ldr	r3, [r3]
 5981 011a 2433     		adds	r3, r3, #36
ARM GAS  /tmp/ccnCrYSN.s 			page 105


 5982 011c 1900     		movs	r1, r3
 5983 011e 7A68     		ldr	r2, [r7, #4]
 5984 0120 FB68     		ldr	r3, [r7, #12]
 5985 0122 1B8D     		ldrh	r3, [r3, #40]
 5986 0124 1725     		movs	r5, #23
 5987 0126 7C19     		adds	r4, r7, r5
 5988 0128 FFF7FEFF 		bl	HAL_DMA_Start_IT
 5989 012c 0300     		movs	r3, r0
 5990 012e 2370     		strb	r3, [r4]
 5991 0130 7B19     		adds	r3, r7, r5
 5992 0132 1B78     		ldrb	r3, [r3]
 5993 0134 002B     		cmp	r3, #0
 5994 0136 3DD1     		bne	.L364
 5995 0138 13E0     		b	.L366
 5996              	.L362:
 5997 013a FB68     		ldr	r3, [r7, #12]
 5998 013c 4122     		movs	r2, #65
 5999 013e 2021     		movs	r1, #32
 6000 0140 9954     		strb	r1, [r3, r2]
 6001 0142 FB68     		ldr	r3, [r7, #12]
 6002 0144 4222     		movs	r2, #66
 6003 0146 0021     		movs	r1, #0
 6004 0148 9954     		strb	r1, [r3, r2]
 6005 014a FB68     		ldr	r3, [r7, #12]
 6006 014c 5B6C     		ldr	r3, [r3, #68]
 6007 014e 8022     		movs	r2, #128
 6008 0150 1A43     		orrs	r2, r3
 6009 0152 FB68     		ldr	r3, [r7, #12]
 6010 0154 5A64     		str	r2, [r3, #68]
 6011 0156 FB68     		ldr	r3, [r7, #12]
 6012 0158 4022     		movs	r2, #64
 6013 015a 0021     		movs	r1, #0
 6014 015c 9954     		strb	r1, [r3, r2]
 6015 015e 0123     		movs	r3, #1
 6016 0160 59E0     		b	.L353
 6017              	.L366:
 6018 0162 FB68     		ldr	r3, [r7, #12]
 6019 0164 1B8D     		ldrh	r3, [r3, #40]
 6020 0166 DAB2     		uxtb	r2, r3
 6021 0168 FC69     		ldr	r4, [r7, #28]
 6022 016a 0A23     		movs	r3, #10
 6023 016c FB18     		adds	r3, r7, r3
 6024 016e 1988     		ldrh	r1, [r3]
 6025 0170 F868     		ldr	r0, [r7, #12]
 6026 0172 BB69     		ldr	r3, [r7, #24]
 6027 0174 0093     		str	r3, [sp]
 6028 0176 2300     		movs	r3, r4
 6029 0178 FFF7FEFF 		bl	I2C_TransferConfig
 6030 017c FB68     		ldr	r3, [r7, #12]
 6031 017e 5B8D     		ldrh	r3, [r3, #42]
 6032 0180 9AB2     		uxth	r2, r3
 6033 0182 FB68     		ldr	r3, [r7, #12]
 6034 0184 1B8D     		ldrh	r3, [r3, #40]
 6035 0186 D31A     		subs	r3, r2, r3
 6036 0188 9AB2     		uxth	r2, r3
 6037 018a FB68     		ldr	r3, [r7, #12]
 6038 018c 5A85     		strh	r2, [r3, #42]
ARM GAS  /tmp/ccnCrYSN.s 			page 106


 6039 018e FB68     		ldr	r3, [r7, #12]
 6040 0190 4022     		movs	r2, #64
 6041 0192 0021     		movs	r1, #0
 6042 0194 9954     		strb	r1, [r3, r2]
 6043 0196 FB68     		ldr	r3, [r7, #12]
 6044 0198 1021     		movs	r1, #16
 6045 019a 1800     		movs	r0, r3
 6046 019c FFF7FEFF 		bl	I2C_Enable_IRQ
 6047 01a0 FB68     		ldr	r3, [r7, #12]
 6048 01a2 1B68     		ldr	r3, [r3]
 6049 01a4 1A68     		ldr	r2, [r3]
 6050 01a6 FB68     		ldr	r3, [r7, #12]
 6051 01a8 1B68     		ldr	r3, [r3]
 6052 01aa 8021     		movs	r1, #128
 6053 01ac 0902     		lsls	r1, r1, #8
 6054 01ae 0A43     		orrs	r2, r1
 6055 01b0 1A60     		str	r2, [r3]
 6056 01b2 2DE0     		b	.L365
 6057              	.L364:
 6058 01b4 FB68     		ldr	r3, [r7, #12]
 6059 01b6 4122     		movs	r2, #65
 6060 01b8 2021     		movs	r1, #32
 6061 01ba 9954     		strb	r1, [r3, r2]
 6062 01bc FB68     		ldr	r3, [r7, #12]
 6063 01be 4222     		movs	r2, #66
 6064 01c0 0021     		movs	r1, #0
 6065 01c2 9954     		strb	r1, [r3, r2]
 6066 01c4 FB68     		ldr	r3, [r7, #12]
 6067 01c6 5B6C     		ldr	r3, [r3, #68]
 6068 01c8 1022     		movs	r2, #16
 6069 01ca 1A43     		orrs	r2, r3
 6070 01cc FB68     		ldr	r3, [r7, #12]
 6071 01ce 5A64     		str	r2, [r3, #68]
 6072 01d0 FB68     		ldr	r3, [r7, #12]
 6073 01d2 4022     		movs	r2, #64
 6074 01d4 0021     		movs	r1, #0
 6075 01d6 9954     		strb	r1, [r3, r2]
 6076 01d8 0123     		movs	r3, #1
 6077 01da 1CE0     		b	.L353
 6078              	.L361:
 6079 01dc FB68     		ldr	r3, [r7, #12]
 6080 01de 144A     		ldr	r2, .L367+16
 6081 01e0 5A63     		str	r2, [r3, #52]
 6082 01e2 FB68     		ldr	r3, [r7, #12]
 6083 01e4 1B8D     		ldrh	r3, [r3, #40]
 6084 01e6 DAB2     		uxtb	r2, r3
 6085 01e8 8023     		movs	r3, #128
 6086 01ea 9C04     		lsls	r4, r3, #18
 6087 01ec 0A23     		movs	r3, #10
 6088 01ee FB18     		adds	r3, r7, r3
 6089 01f0 1988     		ldrh	r1, [r3]
 6090 01f2 F868     		ldr	r0, [r7, #12]
 6091 01f4 0A4B     		ldr	r3, .L367
 6092 01f6 0093     		str	r3, [sp]
 6093 01f8 2300     		movs	r3, r4
 6094 01fa FFF7FEFF 		bl	I2C_TransferConfig
 6095 01fe FB68     		ldr	r3, [r7, #12]
ARM GAS  /tmp/ccnCrYSN.s 			page 107


 6096 0200 4022     		movs	r2, #64
 6097 0202 0021     		movs	r1, #0
 6098 0204 9954     		strb	r1, [r3, r2]
 6099 0206 FB68     		ldr	r3, [r7, #12]
 6100 0208 0221     		movs	r1, #2
 6101 020a 1800     		movs	r0, r3
 6102 020c FFF7FEFF 		bl	I2C_Enable_IRQ
 6103              	.L365:
 6104 0210 0023     		movs	r3, #0
 6105 0212 00E0     		b	.L353
 6106              	.L351:
 6107 0214 0223     		movs	r3, #2
 6108              	.L353:
 6109 0216 1800     		movs	r0, r3
 6110 0218 BD46     		mov	sp, r7
 6111 021a 08B0     		add	sp, sp, #32
 6112              		@ sp needed
 6113 021c B0BD     		pop	{r4, r5, r7, pc}
 6114              	.L368:
 6115 021e C046     		.align	2
 6116              	.L367:
 6117 0220 00240080 		.word	-2147474432
 6118 0224 00000000 		.word	I2C_Master_ISR_DMA
 6119 0228 00000000 		.word	I2C_DMAMasterReceiveCplt
 6120 022c 00000000 		.word	I2C_DMAError
 6121 0230 00000000 		.word	I2C_Master_ISR_IT
 6123              		.section	.text.HAL_I2C_Slave_Seq_Transmit_IT,"ax",%progbits
 6124              		.align	1
 6125              		.global	HAL_I2C_Slave_Seq_Transmit_IT
 6126              		.syntax unified
 6127              		.code	16
 6128              		.thumb_func
 6130              	HAL_I2C_Slave_Seq_Transmit_IT:
 6131              		@ args = 0, pretend = 0, frame = 24
 6132              		@ frame_needed = 1, uses_anonymous_args = 0
 6133 0000 80B5     		push	{r7, lr}
 6134 0002 86B0     		sub	sp, sp, #24
 6135 0004 00AF     		add	r7, sp, #0
 6136 0006 F860     		str	r0, [r7, #12]
 6137 0008 B960     		str	r1, [r7, #8]
 6138 000a 3B60     		str	r3, [r7]
 6139 000c BB1D     		adds	r3, r7, #6
 6140 000e 1A80     		strh	r2, [r3]
 6141 0010 FB68     		ldr	r3, [r7, #12]
 6142 0012 4122     		movs	r2, #65
 6143 0014 9B5C     		ldrb	r3, [r3, r2]
 6144 0016 DBB2     		uxtb	r3, r3
 6145 0018 1A00     		movs	r2, r3
 6146 001a 2823     		movs	r3, #40
 6147 001c 1340     		ands	r3, r2
 6148 001e 282B     		cmp	r3, #40
 6149 0020 00D0     		beq	.LCB6597
 6150 0022 9EE0     		b	.L370	@long jump
 6151              	.LCB6597:
 6152 0024 BB68     		ldr	r3, [r7, #8]
 6153 0026 002B     		cmp	r3, #0
 6154 0028 03D0     		beq	.L371
ARM GAS  /tmp/ccnCrYSN.s 			page 108


 6155 002a BB1D     		adds	r3, r7, #6
 6156 002c 1B88     		ldrh	r3, [r3]
 6157 002e 002B     		cmp	r3, #0
 6158 0030 05D1     		bne	.L372
 6159              	.L371:
 6160 0032 FB68     		ldr	r3, [r7, #12]
 6161 0034 8022     		movs	r2, #128
 6162 0036 9200     		lsls	r2, r2, #2
 6163 0038 5A64     		str	r2, [r3, #68]
 6164 003a 0123     		movs	r3, #1
 6165 003c 92E0     		b	.L373
 6166              	.L372:
 6167 003e 4B4A     		ldr	r2, .L377
 6168 0040 FB68     		ldr	r3, [r7, #12]
 6169 0042 1100     		movs	r1, r2
 6170 0044 1800     		movs	r0, r3
 6171 0046 FFF7FEFF 		bl	I2C_Disable_IRQ
 6172 004a FB68     		ldr	r3, [r7, #12]
 6173 004c 4022     		movs	r2, #64
 6174 004e 9B5C     		ldrb	r3, [r3, r2]
 6175 0050 012B     		cmp	r3, #1
 6176 0052 01D1     		bne	.L374
 6177 0054 0223     		movs	r3, #2
 6178 0056 85E0     		b	.L373
 6179              	.L374:
 6180 0058 FB68     		ldr	r3, [r7, #12]
 6181 005a 4022     		movs	r2, #64
 6182 005c 0121     		movs	r1, #1
 6183 005e 9954     		strb	r1, [r3, r2]
 6184 0060 FB68     		ldr	r3, [r7, #12]
 6185 0062 4122     		movs	r2, #65
 6186 0064 9B5C     		ldrb	r3, [r3, r2]
 6187 0066 DBB2     		uxtb	r3, r3
 6188 0068 2A2B     		cmp	r3, #42
 6189 006a 2CD1     		bne	.L375
 6190 006c FB68     		ldr	r3, [r7, #12]
 6191 006e 0221     		movs	r1, #2
 6192 0070 1800     		movs	r0, r3
 6193 0072 FFF7FEFF 		bl	I2C_Disable_IRQ
 6194 0076 FB68     		ldr	r3, [r7, #12]
 6195 0078 1B68     		ldr	r3, [r3]
 6196 007a 1A68     		ldr	r2, [r3]
 6197 007c 8023     		movs	r3, #128
 6198 007e 1B02     		lsls	r3, r3, #8
 6199 0080 1A40     		ands	r2, r3
 6200 0082 8023     		movs	r3, #128
 6201 0084 1B02     		lsls	r3, r3, #8
 6202 0086 9A42     		cmp	r2, r3
 6203 0088 1DD1     		bne	.L375
 6204 008a FB68     		ldr	r3, [r7, #12]
 6205 008c 1B68     		ldr	r3, [r3]
 6206 008e 1A68     		ldr	r2, [r3]
 6207 0090 FB68     		ldr	r3, [r7, #12]
 6208 0092 1B68     		ldr	r3, [r3]
 6209 0094 3649     		ldr	r1, .L377+4
 6210 0096 0A40     		ands	r2, r1
 6211 0098 1A60     		str	r2, [r3]
ARM GAS  /tmp/ccnCrYSN.s 			page 109


 6212 009a FB68     		ldr	r3, [r7, #12]
 6213 009c DB6B     		ldr	r3, [r3, #60]
 6214 009e 002B     		cmp	r3, #0
 6215 00a0 11D0     		beq	.L375
 6216 00a2 FB68     		ldr	r3, [r7, #12]
 6217 00a4 DB6B     		ldr	r3, [r3, #60]
 6218 00a6 334A     		ldr	r2, .L377+8
 6219 00a8 5A63     		str	r2, [r3, #52]
 6220 00aa FB68     		ldr	r3, [r7, #12]
 6221 00ac DB6B     		ldr	r3, [r3, #60]
 6222 00ae 1800     		movs	r0, r3
 6223 00b0 FFF7FEFF 		bl	HAL_DMA_Abort_IT
 6224 00b4 031E     		subs	r3, r0, #0
 6225 00b6 06D0     		beq	.L375
 6226 00b8 FB68     		ldr	r3, [r7, #12]
 6227 00ba DB6B     		ldr	r3, [r3, #60]
 6228 00bc 5A6B     		ldr	r2, [r3, #52]
 6229 00be FB68     		ldr	r3, [r7, #12]
 6230 00c0 DB6B     		ldr	r3, [r3, #60]
 6231 00c2 1800     		movs	r0, r3
 6232 00c4 9047     		blx	r2
 6233              	.L375:
 6234 00c6 FB68     		ldr	r3, [r7, #12]
 6235 00c8 4122     		movs	r2, #65
 6236 00ca 2921     		movs	r1, #41
 6237 00cc 9954     		strb	r1, [r3, r2]
 6238 00ce FB68     		ldr	r3, [r7, #12]
 6239 00d0 4222     		movs	r2, #66
 6240 00d2 2021     		movs	r1, #32
 6241 00d4 9954     		strb	r1, [r3, r2]
 6242 00d6 FB68     		ldr	r3, [r7, #12]
 6243 00d8 0022     		movs	r2, #0
 6244 00da 5A64     		str	r2, [r3, #68]
 6245 00dc FB68     		ldr	r3, [r7, #12]
 6246 00de 1B68     		ldr	r3, [r3]
 6247 00e0 5A68     		ldr	r2, [r3, #4]
 6248 00e2 FB68     		ldr	r3, [r7, #12]
 6249 00e4 1B68     		ldr	r3, [r3]
 6250 00e6 2249     		ldr	r1, .L377+4
 6251 00e8 0A40     		ands	r2, r1
 6252 00ea 5A60     		str	r2, [r3, #4]
 6253 00ec FB68     		ldr	r3, [r7, #12]
 6254 00ee BA68     		ldr	r2, [r7, #8]
 6255 00f0 5A62     		str	r2, [r3, #36]
 6256 00f2 FB68     		ldr	r3, [r7, #12]
 6257 00f4 BA1D     		adds	r2, r7, #6
 6258 00f6 1288     		ldrh	r2, [r2]
 6259 00f8 5A85     		strh	r2, [r3, #42]
 6260 00fa FB68     		ldr	r3, [r7, #12]
 6261 00fc 5B8D     		ldrh	r3, [r3, #42]
 6262 00fe 9AB2     		uxth	r2, r3
 6263 0100 FB68     		ldr	r3, [r7, #12]
 6264 0102 1A85     		strh	r2, [r3, #40]
 6265 0104 FB68     		ldr	r3, [r7, #12]
 6266 0106 3A68     		ldr	r2, [r7]
 6267 0108 DA62     		str	r2, [r3, #44]
 6268 010a FB68     		ldr	r3, [r7, #12]
ARM GAS  /tmp/ccnCrYSN.s 			page 110


 6269 010c 1A4A     		ldr	r2, .L377+12
 6270 010e 5A63     		str	r2, [r3, #52]
 6271 0110 FB68     		ldr	r3, [r7, #12]
 6272 0112 1B68     		ldr	r3, [r3]
 6273 0114 9B69     		ldr	r3, [r3, #24]
 6274 0116 0822     		movs	r2, #8
 6275 0118 1340     		ands	r3, r2
 6276 011a 1B07     		lsls	r3, r3, #28
 6277 011c DB0F     		lsrs	r3, r3, #31
 6278 011e DAB2     		uxtb	r2, r3
 6279 0120 1721     		movs	r1, #23
 6280 0122 7B18     		adds	r3, r7, r1
 6281 0124 1A70     		strb	r2, [r3]
 6282 0126 FB68     		ldr	r3, [r7, #12]
 6283 0128 1B68     		ldr	r3, [r3]
 6284 012a 9B69     		ldr	r3, [r3, #24]
 6285 012c 1B0C     		lsrs	r3, r3, #16
 6286 012e DBB2     		uxtb	r3, r3
 6287 0130 0122     		movs	r2, #1
 6288 0132 1340     		ands	r3, r2
 6289 0134 DBB2     		uxtb	r3, r3
 6290 0136 012B     		cmp	r3, #1
 6291 0138 07D1     		bne	.L376
 6292 013a 7B18     		adds	r3, r7, r1
 6293 013c 1B78     		ldrb	r3, [r3]
 6294 013e 002B     		cmp	r3, #0
 6295 0140 03D0     		beq	.L376
 6296 0142 FB68     		ldr	r3, [r7, #12]
 6297 0144 1B68     		ldr	r3, [r3]
 6298 0146 0822     		movs	r2, #8
 6299 0148 DA61     		str	r2, [r3, #28]
 6300              	.L376:
 6301 014a FB68     		ldr	r3, [r7, #12]
 6302 014c 4022     		movs	r2, #64
 6303 014e 0021     		movs	r1, #0
 6304 0150 9954     		strb	r1, [r3, r2]
 6305 0152 064A     		ldr	r2, .L377
 6306 0154 FB68     		ldr	r3, [r7, #12]
 6307 0156 1100     		movs	r1, r2
 6308 0158 1800     		movs	r0, r3
 6309 015a FFF7FEFF 		bl	I2C_Enable_IRQ
 6310 015e 0023     		movs	r3, #0
 6311 0160 00E0     		b	.L373
 6312              	.L370:
 6313 0162 0123     		movs	r3, #1
 6314              	.L373:
 6315 0164 1800     		movs	r0, r3
 6316 0166 BD46     		mov	sp, r7
 6317 0168 06B0     		add	sp, sp, #24
 6318              		@ sp needed
 6319 016a 80BD     		pop	{r7, pc}
 6320              	.L378:
 6321              		.align	2
 6322              	.L377:
 6323 016c 01800000 		.word	32769
 6324 0170 FF7FFFFF 		.word	-32769
 6325 0174 00000000 		.word	I2C_DMAAbort
ARM GAS  /tmp/ccnCrYSN.s 			page 111


 6326 0178 00000000 		.word	I2C_Slave_ISR_IT
 6328              		.section	.text.HAL_I2C_Slave_Seq_Transmit_DMA,"ax",%progbits
 6329              		.align	1
 6330              		.global	HAL_I2C_Slave_Seq_Transmit_DMA
 6331              		.syntax unified
 6332              		.code	16
 6333              		.thumb_func
 6335              	HAL_I2C_Slave_Seq_Transmit_DMA:
 6336              		@ args = 0, pretend = 0, frame = 24
 6337              		@ frame_needed = 1, uses_anonymous_args = 0
 6338 0000 B0B5     		push	{r4, r5, r7, lr}
 6339 0002 86B0     		sub	sp, sp, #24
 6340 0004 00AF     		add	r7, sp, #0
 6341 0006 F860     		str	r0, [r7, #12]
 6342 0008 B960     		str	r1, [r7, #8]
 6343 000a 3B60     		str	r3, [r7]
 6344 000c BB1D     		adds	r3, r7, #6
 6345 000e 1A80     		strh	r2, [r3]
 6346 0010 FB68     		ldr	r3, [r7, #12]
 6347 0012 4122     		movs	r2, #65
 6348 0014 9B5C     		ldrb	r3, [r3, r2]
 6349 0016 DBB2     		uxtb	r3, r3
 6350 0018 1A00     		movs	r2, r3
 6351 001a 2823     		movs	r3, #40
 6352 001c 1340     		ands	r3, r2
 6353 001e 282B     		cmp	r3, #40
 6354 0020 00D0     		beq	.LCB6812
 6355 0022 35E1     		b	.L380	@long jump
 6356              	.LCB6812:
 6357 0024 BB68     		ldr	r3, [r7, #8]
 6358 0026 002B     		cmp	r3, #0
 6359 0028 03D0     		beq	.L381
 6360 002a BB1D     		adds	r3, r7, #6
 6361 002c 1B88     		ldrh	r3, [r3]
 6362 002e 002B     		cmp	r3, #0
 6363 0030 05D1     		bne	.L382
 6364              	.L381:
 6365 0032 FB68     		ldr	r3, [r7, #12]
 6366 0034 8022     		movs	r2, #128
 6367 0036 9200     		lsls	r2, r2, #2
 6368 0038 5A64     		str	r2, [r3, #68]
 6369 003a 0123     		movs	r3, #1
 6370 003c 29E1     		b	.L383
 6371              	.L382:
 6372 003e FB68     		ldr	r3, [r7, #12]
 6373 0040 4022     		movs	r2, #64
 6374 0042 9B5C     		ldrb	r3, [r3, r2]
 6375 0044 012B     		cmp	r3, #1
 6376 0046 01D1     		bne	.L384
 6377 0048 0223     		movs	r3, #2
 6378 004a 22E1     		b	.L383
 6379              	.L384:
 6380 004c FB68     		ldr	r3, [r7, #12]
 6381 004e 4022     		movs	r2, #64
 6382 0050 0121     		movs	r1, #1
 6383 0052 9954     		strb	r1, [r3, r2]
 6384 0054 914A     		ldr	r2, .L394
ARM GAS  /tmp/ccnCrYSN.s 			page 112


 6385 0056 FB68     		ldr	r3, [r7, #12]
 6386 0058 1100     		movs	r1, r2
 6387 005a 1800     		movs	r0, r3
 6388 005c FFF7FEFF 		bl	I2C_Disable_IRQ
 6389 0060 FB68     		ldr	r3, [r7, #12]
 6390 0062 4122     		movs	r2, #65
 6391 0064 9B5C     		ldrb	r3, [r3, r2]
 6392 0066 DBB2     		uxtb	r3, r3
 6393 0068 2A2B     		cmp	r3, #42
 6394 006a 2DD1     		bne	.L385
 6395 006c FB68     		ldr	r3, [r7, #12]
 6396 006e 0221     		movs	r1, #2
 6397 0070 1800     		movs	r0, r3
 6398 0072 FFF7FEFF 		bl	I2C_Disable_IRQ
 6399 0076 FB68     		ldr	r3, [r7, #12]
 6400 0078 1B68     		ldr	r3, [r3]
 6401 007a 1A68     		ldr	r2, [r3]
 6402 007c 8023     		movs	r3, #128
 6403 007e 1B02     		lsls	r3, r3, #8
 6404 0080 1A40     		ands	r2, r3
 6405 0082 8023     		movs	r3, #128
 6406 0084 1B02     		lsls	r3, r3, #8
 6407 0086 9A42     		cmp	r2, r3
 6408 0088 4CD1     		bne	.L386
 6409 008a FB68     		ldr	r3, [r7, #12]
 6410 008c DB6B     		ldr	r3, [r3, #60]
 6411 008e 002B     		cmp	r3, #0
 6412 0090 48D0     		beq	.L386
 6413 0092 FB68     		ldr	r3, [r7, #12]
 6414 0094 1B68     		ldr	r3, [r3]
 6415 0096 1A68     		ldr	r2, [r3]
 6416 0098 FB68     		ldr	r3, [r7, #12]
 6417 009a 1B68     		ldr	r3, [r3]
 6418 009c 8049     		ldr	r1, .L394+4
 6419 009e 0A40     		ands	r2, r1
 6420 00a0 1A60     		str	r2, [r3]
 6421 00a2 FB68     		ldr	r3, [r7, #12]
 6422 00a4 DB6B     		ldr	r3, [r3, #60]
 6423 00a6 7F4A     		ldr	r2, .L394+8
 6424 00a8 5A63     		str	r2, [r3, #52]
 6425 00aa FB68     		ldr	r3, [r7, #12]
 6426 00ac DB6B     		ldr	r3, [r3, #60]
 6427 00ae 1800     		movs	r0, r3
 6428 00b0 FFF7FEFF 		bl	HAL_DMA_Abort_IT
 6429 00b4 031E     		subs	r3, r0, #0
 6430 00b6 35D0     		beq	.L386
 6431 00b8 FB68     		ldr	r3, [r7, #12]
 6432 00ba DB6B     		ldr	r3, [r3, #60]
 6433 00bc 5A6B     		ldr	r2, [r3, #52]
 6434 00be FB68     		ldr	r3, [r7, #12]
 6435 00c0 DB6B     		ldr	r3, [r3, #60]
 6436 00c2 1800     		movs	r0, r3
 6437 00c4 9047     		blx	r2
 6438 00c6 2DE0     		b	.L386
 6439              	.L385:
 6440 00c8 FB68     		ldr	r3, [r7, #12]
 6441 00ca 4122     		movs	r2, #65
ARM GAS  /tmp/ccnCrYSN.s 			page 113


 6442 00cc 9B5C     		ldrb	r3, [r3, r2]
 6443 00ce DBB2     		uxtb	r3, r3
 6444 00d0 292B     		cmp	r3, #41
 6445 00d2 27D1     		bne	.L386
 6446 00d4 FB68     		ldr	r3, [r7, #12]
 6447 00d6 1B68     		ldr	r3, [r3]
 6448 00d8 1A68     		ldr	r2, [r3]
 6449 00da 8023     		movs	r3, #128
 6450 00dc DB01     		lsls	r3, r3, #7
 6451 00de 1A40     		ands	r2, r3
 6452 00e0 8023     		movs	r3, #128
 6453 00e2 DB01     		lsls	r3, r3, #7
 6454 00e4 9A42     		cmp	r2, r3
 6455 00e6 1DD1     		bne	.L386
 6456 00e8 FB68     		ldr	r3, [r7, #12]
 6457 00ea 1B68     		ldr	r3, [r3]
 6458 00ec 1A68     		ldr	r2, [r3]
 6459 00ee FB68     		ldr	r3, [r7, #12]
 6460 00f0 1B68     		ldr	r3, [r3]
 6461 00f2 6D49     		ldr	r1, .L394+12
 6462 00f4 0A40     		ands	r2, r1
 6463 00f6 1A60     		str	r2, [r3]
 6464 00f8 FB68     		ldr	r3, [r7, #12]
 6465 00fa 9B6B     		ldr	r3, [r3, #56]
 6466 00fc 002B     		cmp	r3, #0
 6467 00fe 11D0     		beq	.L386
 6468 0100 FB68     		ldr	r3, [r7, #12]
 6469 0102 9B6B     		ldr	r3, [r3, #56]
 6470 0104 674A     		ldr	r2, .L394+8
 6471 0106 5A63     		str	r2, [r3, #52]
 6472 0108 FB68     		ldr	r3, [r7, #12]
 6473 010a 9B6B     		ldr	r3, [r3, #56]
 6474 010c 1800     		movs	r0, r3
 6475 010e FFF7FEFF 		bl	HAL_DMA_Abort_IT
 6476 0112 031E     		subs	r3, r0, #0
 6477 0114 06D0     		beq	.L386
 6478 0116 FB68     		ldr	r3, [r7, #12]
 6479 0118 9B6B     		ldr	r3, [r3, #56]
 6480 011a 5A6B     		ldr	r2, [r3, #52]
 6481 011c FB68     		ldr	r3, [r7, #12]
 6482 011e 9B6B     		ldr	r3, [r3, #56]
 6483 0120 1800     		movs	r0, r3
 6484 0122 9047     		blx	r2
 6485              	.L386:
 6486 0124 FB68     		ldr	r3, [r7, #12]
 6487 0126 4122     		movs	r2, #65
 6488 0128 2921     		movs	r1, #41
 6489 012a 9954     		strb	r1, [r3, r2]
 6490 012c FB68     		ldr	r3, [r7, #12]
 6491 012e 4222     		movs	r2, #66
 6492 0130 2021     		movs	r1, #32
 6493 0132 9954     		strb	r1, [r3, r2]
 6494 0134 FB68     		ldr	r3, [r7, #12]
 6495 0136 0022     		movs	r2, #0
 6496 0138 5A64     		str	r2, [r3, #68]
 6497 013a FB68     		ldr	r3, [r7, #12]
 6498 013c 1B68     		ldr	r3, [r3]
ARM GAS  /tmp/ccnCrYSN.s 			page 114


 6499 013e 5A68     		ldr	r2, [r3, #4]
 6500 0140 FB68     		ldr	r3, [r7, #12]
 6501 0142 1B68     		ldr	r3, [r3]
 6502 0144 5649     		ldr	r1, .L394+4
 6503 0146 0A40     		ands	r2, r1
 6504 0148 5A60     		str	r2, [r3, #4]
 6505 014a FB68     		ldr	r3, [r7, #12]
 6506 014c BA68     		ldr	r2, [r7, #8]
 6507 014e 5A62     		str	r2, [r3, #36]
 6508 0150 FB68     		ldr	r3, [r7, #12]
 6509 0152 BA1D     		adds	r2, r7, #6
 6510 0154 1288     		ldrh	r2, [r2]
 6511 0156 5A85     		strh	r2, [r3, #42]
 6512 0158 FB68     		ldr	r3, [r7, #12]
 6513 015a 5B8D     		ldrh	r3, [r3, #42]
 6514 015c 9AB2     		uxth	r2, r3
 6515 015e FB68     		ldr	r3, [r7, #12]
 6516 0160 1A85     		strh	r2, [r3, #40]
 6517 0162 FB68     		ldr	r3, [r7, #12]
 6518 0164 3A68     		ldr	r2, [r7]
 6519 0166 DA62     		str	r2, [r3, #44]
 6520 0168 FB68     		ldr	r3, [r7, #12]
 6521 016a 504A     		ldr	r2, .L394+16
 6522 016c 5A63     		str	r2, [r3, #52]
 6523 016e FB68     		ldr	r3, [r7, #12]
 6524 0170 9B6B     		ldr	r3, [r3, #56]
 6525 0172 002B     		cmp	r3, #0
 6526 0174 23D0     		beq	.L387
 6527 0176 FB68     		ldr	r3, [r7, #12]
 6528 0178 9B6B     		ldr	r3, [r3, #56]
 6529 017a 4D4A     		ldr	r2, .L394+20
 6530 017c 9A62     		str	r2, [r3, #40]
 6531 017e FB68     		ldr	r3, [r7, #12]
 6532 0180 9B6B     		ldr	r3, [r3, #56]
 6533 0182 4C4A     		ldr	r2, .L394+24
 6534 0184 1A63     		str	r2, [r3, #48]
 6535 0186 FB68     		ldr	r3, [r7, #12]
 6536 0188 9B6B     		ldr	r3, [r3, #56]
 6537 018a 0022     		movs	r2, #0
 6538 018c DA62     		str	r2, [r3, #44]
 6539 018e FB68     		ldr	r3, [r7, #12]
 6540 0190 9B6B     		ldr	r3, [r3, #56]
 6541 0192 0022     		movs	r2, #0
 6542 0194 5A63     		str	r2, [r3, #52]
 6543 0196 FB68     		ldr	r3, [r7, #12]
 6544 0198 986B     		ldr	r0, [r3, #56]
 6545 019a B968     		ldr	r1, [r7, #8]
 6546 019c FB68     		ldr	r3, [r7, #12]
 6547 019e 1B68     		ldr	r3, [r3]
 6548 01a0 2833     		adds	r3, r3, #40
 6549 01a2 1A00     		movs	r2, r3
 6550 01a4 FB68     		ldr	r3, [r7, #12]
 6551 01a6 1B8D     		ldrh	r3, [r3, #40]
 6552 01a8 1725     		movs	r5, #23
 6553 01aa 7C19     		adds	r4, r7, r5
 6554 01ac FFF7FEFF 		bl	HAL_DMA_Start_IT
 6555 01b0 0300     		movs	r3, r0
ARM GAS  /tmp/ccnCrYSN.s 			page 115


 6556 01b2 2370     		strb	r3, [r4]
 6557 01b4 7B19     		adds	r3, r7, r5
 6558 01b6 1B78     		ldrb	r3, [r3]
 6559 01b8 002B     		cmp	r3, #0
 6560 01ba 36D1     		bne	.L389
 6561 01bc 13E0     		b	.L392
 6562              	.L387:
 6563 01be FB68     		ldr	r3, [r7, #12]
 6564 01c0 4122     		movs	r2, #65
 6565 01c2 2821     		movs	r1, #40
 6566 01c4 9954     		strb	r1, [r3, r2]
 6567 01c6 FB68     		ldr	r3, [r7, #12]
 6568 01c8 4222     		movs	r2, #66
 6569 01ca 0021     		movs	r1, #0
 6570 01cc 9954     		strb	r1, [r3, r2]
 6571 01ce FB68     		ldr	r3, [r7, #12]
 6572 01d0 5B6C     		ldr	r3, [r3, #68]
 6573 01d2 8022     		movs	r2, #128
 6574 01d4 1A43     		orrs	r2, r3
 6575 01d6 FB68     		ldr	r3, [r7, #12]
 6576 01d8 5A64     		str	r2, [r3, #68]
 6577 01da FB68     		ldr	r3, [r7, #12]
 6578 01dc 4022     		movs	r2, #64
 6579 01de 0021     		movs	r1, #0
 6580 01e0 9954     		strb	r1, [r3, r2]
 6581 01e2 0123     		movs	r3, #1
 6582 01e4 55E0     		b	.L383
 6583              	.L392:
 6584 01e6 FB68     		ldr	r3, [r7, #12]
 6585 01e8 5B8D     		ldrh	r3, [r3, #42]
 6586 01ea 9AB2     		uxth	r2, r3
 6587 01ec FB68     		ldr	r3, [r7, #12]
 6588 01ee 1B8D     		ldrh	r3, [r3, #40]
 6589 01f0 D31A     		subs	r3, r2, r3
 6590 01f2 9AB2     		uxth	r2, r3
 6591 01f4 FB68     		ldr	r3, [r7, #12]
 6592 01f6 5A85     		strh	r2, [r3, #42]
 6593 01f8 FB68     		ldr	r3, [r7, #12]
 6594 01fa 0022     		movs	r2, #0
 6595 01fc 1A85     		strh	r2, [r3, #40]
 6596 01fe FB68     		ldr	r3, [r7, #12]
 6597 0200 1B68     		ldr	r3, [r3]
 6598 0202 9B69     		ldr	r3, [r3, #24]
 6599 0204 0822     		movs	r2, #8
 6600 0206 1340     		ands	r3, r2
 6601 0208 1B07     		lsls	r3, r3, #28
 6602 020a DB0F     		lsrs	r3, r3, #31
 6603 020c DAB2     		uxtb	r2, r3
 6604 020e 1623     		movs	r3, #22
 6605 0210 FB18     		adds	r3, r7, r3
 6606 0212 1A70     		strb	r2, [r3]
 6607 0214 FB68     		ldr	r3, [r7, #12]
 6608 0216 1B68     		ldr	r3, [r3]
 6609 0218 9B69     		ldr	r3, [r3, #24]
 6610 021a 1B0C     		lsrs	r3, r3, #16
 6611 021c DBB2     		uxtb	r3, r3
 6612 021e 0122     		movs	r2, #1
ARM GAS  /tmp/ccnCrYSN.s 			page 116


 6613 0220 1340     		ands	r3, r2
 6614 0222 DBB2     		uxtb	r3, r3
 6615 0224 012B     		cmp	r3, #1
 6616 0226 1DD1     		bne	.L391
 6617 0228 13E0     		b	.L393
 6618              	.L389:
 6619 022a FB68     		ldr	r3, [r7, #12]
 6620 022c 4122     		movs	r2, #65
 6621 022e 2821     		movs	r1, #40
 6622 0230 9954     		strb	r1, [r3, r2]
 6623 0232 FB68     		ldr	r3, [r7, #12]
 6624 0234 4222     		movs	r2, #66
 6625 0236 0021     		movs	r1, #0
 6626 0238 9954     		strb	r1, [r3, r2]
 6627 023a FB68     		ldr	r3, [r7, #12]
 6628 023c 5B6C     		ldr	r3, [r3, #68]
 6629 023e 1022     		movs	r2, #16
 6630 0240 1A43     		orrs	r2, r3
 6631 0242 FB68     		ldr	r3, [r7, #12]
 6632 0244 5A64     		str	r2, [r3, #68]
 6633 0246 FB68     		ldr	r3, [r7, #12]
 6634 0248 4022     		movs	r2, #64
 6635 024a 0021     		movs	r1, #0
 6636 024c 9954     		strb	r1, [r3, r2]
 6637 024e 0123     		movs	r3, #1
 6638 0250 1FE0     		b	.L383
 6639              	.L393:
 6640 0252 1623     		movs	r3, #22
 6641 0254 FB18     		adds	r3, r7, r3
 6642 0256 1B78     		ldrb	r3, [r3]
 6643 0258 002B     		cmp	r3, #0
 6644 025a 03D0     		beq	.L391
 6645 025c FB68     		ldr	r3, [r7, #12]
 6646 025e 1B68     		ldr	r3, [r3]
 6647 0260 0822     		movs	r2, #8
 6648 0262 DA61     		str	r2, [r3, #28]
 6649              	.L391:
 6650 0264 FB68     		ldr	r3, [r7, #12]
 6651 0266 4022     		movs	r2, #64
 6652 0268 0021     		movs	r1, #0
 6653 026a 9954     		strb	r1, [r3, r2]
 6654 026c FB68     		ldr	r3, [r7, #12]
 6655 026e 1B68     		ldr	r3, [r3]
 6656 0270 1A68     		ldr	r2, [r3]
 6657 0272 FB68     		ldr	r3, [r7, #12]
 6658 0274 1B68     		ldr	r3, [r3]
 6659 0276 8021     		movs	r1, #128
 6660 0278 C901     		lsls	r1, r1, #7
 6661 027a 0A43     		orrs	r2, r1
 6662 027c 1A60     		str	r2, [r3]
 6663 027e 8023     		movs	r3, #128
 6664 0280 1A02     		lsls	r2, r3, #8
 6665 0282 FB68     		ldr	r3, [r7, #12]
 6666 0284 1100     		movs	r1, r2
 6667 0286 1800     		movs	r0, r3
 6668 0288 FFF7FEFF 		bl	I2C_Enable_IRQ
 6669 028c 0023     		movs	r3, #0
ARM GAS  /tmp/ccnCrYSN.s 			page 117


 6670 028e 00E0     		b	.L383
 6671              	.L380:
 6672 0290 0123     		movs	r3, #1
 6673              	.L383:
 6674 0292 1800     		movs	r0, r3
 6675 0294 BD46     		mov	sp, r7
 6676 0296 06B0     		add	sp, sp, #24
 6677              		@ sp needed
 6678 0298 B0BD     		pop	{r4, r5, r7, pc}
 6679              	.L395:
 6680 029a C046     		.align	2
 6681              	.L394:
 6682 029c 01800000 		.word	32769
 6683 02a0 FF7FFFFF 		.word	-32769
 6684 02a4 00000000 		.word	I2C_DMAAbort
 6685 02a8 FFBFFFFF 		.word	-16385
 6686 02ac 00000000 		.word	I2C_Slave_ISR_DMA
 6687 02b0 00000000 		.word	I2C_DMASlaveTransmitCplt
 6688 02b4 00000000 		.word	I2C_DMAError
 6690              		.section	.text.HAL_I2C_Slave_Seq_Receive_IT,"ax",%progbits
 6691              		.align	1
 6692              		.global	HAL_I2C_Slave_Seq_Receive_IT
 6693              		.syntax unified
 6694              		.code	16
 6695              		.thumb_func
 6697              	HAL_I2C_Slave_Seq_Receive_IT:
 6698              		@ args = 0, pretend = 0, frame = 24
 6699              		@ frame_needed = 1, uses_anonymous_args = 0
 6700 0000 80B5     		push	{r7, lr}
 6701 0002 86B0     		sub	sp, sp, #24
 6702 0004 00AF     		add	r7, sp, #0
 6703 0006 F860     		str	r0, [r7, #12]
 6704 0008 B960     		str	r1, [r7, #8]
 6705 000a 3B60     		str	r3, [r7]
 6706 000c BB1D     		adds	r3, r7, #6
 6707 000e 1A80     		strh	r2, [r3]
 6708 0010 FB68     		ldr	r3, [r7, #12]
 6709 0012 4122     		movs	r2, #65
 6710 0014 9B5C     		ldrb	r3, [r3, r2]
 6711 0016 DBB2     		uxtb	r3, r3
 6712 0018 1A00     		movs	r2, r3
 6713 001a 2823     		movs	r3, #40
 6714 001c 1340     		ands	r3, r2
 6715 001e 282B     		cmp	r3, #40
 6716 0020 00D0     		beq	.LCB7197
 6717 0022 9EE0     		b	.L397	@long jump
 6718              	.LCB7197:
 6719 0024 BB68     		ldr	r3, [r7, #8]
 6720 0026 002B     		cmp	r3, #0
 6721 0028 03D0     		beq	.L398
 6722 002a BB1D     		adds	r3, r7, #6
 6723 002c 1B88     		ldrh	r3, [r3]
