ARM GAS  /tmp/ccMgtgvm.s 			page 1


   1              		.arch armv6s-m
   2              		.fpu softvfp
   3              		.eabi_attribute 20, 1
   4              		.eabi_attribute 21, 1
   5              		.eabi_attribute 23, 3
   6              		.eabi_attribute 24, 1
   7              		.eabi_attribute 25, 1
   8              		.eabi_attribute 26, 1
   9              		.eabi_attribute 30, 6
  10              		.eabi_attribute 34, 0
  11              		.eabi_attribute 18, 4
  12              		.file	"stm32f0xx_it.c"
  13              		.text
  14              		.section	.rodata.CHANNEL_OFFSET_TAB,"a"
  15              		.align	2
  18              	CHANNEL_OFFSET_TAB:
  19 0000 081C3044 		.ascii	"\010\0340DXl\200"
  19      586C80
  20              		.global	string
  21              		.section	.bss.string,"aw",%nobits
  22              		.align	2
  25              	string:
  26 0000 00000000 		.space	100
  26      00000000 
  26      00000000 
  26      00000000 
  26      00000000 
  27              		.section	.text.NMI_Handler,"ax",%progbits
  28              		.align	1
  29              		.global	NMI_Handler
  30              		.syntax unified
  31              		.code	16
  32              		.thumb_func
  34              	NMI_Handler:
  35              		@ args = 0, pretend = 0, frame = 0
  36              		@ frame_needed = 1, uses_anonymous_args = 0
  37 0000 80B5     		push	{r7, lr}
  38 0002 00AF     		add	r7, sp, #0
  39              	.L2:
  40 0004 C046     		nop
  41 0006 FDE7     		b	.L2
  43              		.section	.text.HardFault_Handler,"ax",%progbits
  44              		.align	1
  45              		.global	HardFault_Handler
  46              		.syntax unified
  47              		.code	16
  48              		.thumb_func
  50              	HardFault_Handler:
  51              		@ args = 0, pretend = 0, frame = 0
  52              		@ frame_needed = 1, uses_anonymous_args = 0
  53 0000 80B5     		push	{r7, lr}
  54 0002 00AF     		add	r7, sp, #0
  55              	.L4:
  56 0004 C046     		nop
  57 0006 FDE7     		b	.L4
  59              		.section	.text.SVC_Handler,"ax",%progbits
  60              		.align	1
ARM GAS  /tmp/ccMgtgvm.s 			page 2


  61              		.global	SVC_Handler
  62              		.syntax unified
  63              		.code	16
  64              		.thumb_func
  66              	SVC_Handler:
  67              		@ args = 0, pretend = 0, frame = 0
  68              		@ frame_needed = 1, uses_anonymous_args = 0
  69 0000 80B5     		push	{r7, lr}
  70 0002 00AF     		add	r7, sp, #0
  71 0004 C046     		nop
  72 0006 BD46     		mov	sp, r7
  73              		@ sp needed
  74 0008 80BD     		pop	{r7, pc}
  76              		.section	.text.PendSV_Handler,"ax",%progbits
  77              		.align	1
  78              		.global	PendSV_Handler
  79              		.syntax unified
  80              		.code	16
  81              		.thumb_func
  83              	PendSV_Handler:
  84              		@ args = 0, pretend = 0, frame = 0
  85              		@ frame_needed = 1, uses_anonymous_args = 0
  86 0000 80B5     		push	{r7, lr}
  87 0002 00AF     		add	r7, sp, #0
  88 0004 C046     		nop
  89 0006 BD46     		mov	sp, r7
  90              		@ sp needed
  91 0008 80BD     		pop	{r7, pc}
  93              		.section	.text.SysTick_Handler,"ax",%progbits
  94              		.align	1
  95              		.global	SysTick_Handler
  96              		.syntax unified
  97              		.code	16
  98              		.thumb_func
 100              	SysTick_Handler:
 101              		@ args = 0, pretend = 0, frame = 0
 102              		@ frame_needed = 1, uses_anonymous_args = 0
 103 0000 80B5     		push	{r7, lr}
 104 0002 00AF     		add	r7, sp, #0
 105 0004 FFF7FEFF 		bl	HAL_IncTick
 106 0008 C046     		nop
 107 000a BD46     		mov	sp, r7
 108              		@ sp needed
 109 000c 80BD     		pop	{r7, pc}
 111              		.section	.text.USB_IRQHandler,"ax",%progbits
 112              		.align	1
 113              		.global	USB_IRQHandler
 114              		.syntax unified
 115              		.code	16
 116              		.thumb_func
 118              	USB_IRQHandler:
 119              		@ args = 0, pretend = 0, frame = 0
 120              		@ frame_needed = 1, uses_anonymous_args = 0
 121 0000 80B5     		push	{r7, lr}
 122 0002 00AF     		add	r7, sp, #0
 123 0004 034B     		ldr	r3, .L9
 124 0006 1800     		movs	r0, r3
ARM GAS  /tmp/ccMgtgvm.s 			page 3


 125 0008 FFF7FEFF 		bl	HAL_PCD_IRQHandler
 126 000c C046     		nop
 127 000e BD46     		mov	sp, r7
 128              		@ sp needed
 129 0010 80BD     		pop	{r7, pc}
 130              	.L10:
 131 0012 C046     		.align	2
 132              	.L9:
 133 0014 00000000 		.word	hpcd_USB_FS
 135              		.ident	"GCC: (crosstool-NG 1.28.0 - arm-cortexm0-eabi) 15.2.0"
ARM GAS  /tmp/ccMgtgvm.s 			page 4

