ARM GAS  /tmp/ccnCrYSN.s 			page 1


   1              		.arch armv6s-m
   2              		.fpu softvfp
   3              		.eabi_attribute 20, 1
   4              		.eabi_attribute 21, 1
   5              		.eabi_attribute 23, 3
   6              		.eabi_attribute 24, 1
   7              		.eabi_attribute 25, 1
   8              		.eabi_attribute 26, 1
   9              		.eabi_attribute 30, 6
  10              		.eabi_attribute 34, 0
  11              		.eabi_attribute 18, 4
  12              		.file	"stm32f0xx_hal_i2c.c"
  13              		.text
  14              		.section	.text.HAL_I2C_Init,"ax",%progbits
  15              		.align	1
  16              		.global	HAL_I2C_Init
  17              		.syntax unified
  18              		.code	16
  19              		.thumb_func
  21              	HAL_I2C_Init:
  22              		@ args = 0, pretend = 0, frame = 8
  23              		@ frame_needed = 1, uses_anonymous_args = 0
  24 0000 80B5     		push	{r7, lr}
  25 0002 82B0     		sub	sp, sp, #8
  26 0004 00AF     		add	r7, sp, #0
  27 0006 7860     		str	r0, [r7, #4]
  28 0008 7B68     		ldr	r3, [r7, #4]
  29 000a 002B     		cmp	r3, #0
  30 000c 01D1     		bne	.L2
  31 000e 0123     		movs	r3, #1
  32 0010 8FE0     		b	.L3
  33              	.L2:
  34 0012 7B68     		ldr	r3, [r7, #4]
  35 0014 4122     		movs	r2, #65
  36 0016 9B5C     		ldrb	r3, [r3, r2]
  37 0018 DBB2     		uxtb	r3, r3
  38 001a 002B     		cmp	r3, #0
  39 001c 07D1     		bne	.L4
  40 001e 7B68     		ldr	r3, [r7, #4]
  41 0020 4022     		movs	r2, #64
  42 0022 0021     		movs	r1, #0
  43 0024 9954     		strb	r1, [r3, r2]
  44 0026 7B68     		ldr	r3, [r7, #4]
  45 0028 1800     		movs	r0, r3
  46 002a FFF7FEFF 		bl	HAL_I2C_MspInit
  47              	.L4:
  48 002e 7B68     		ldr	r3, [r7, #4]
  49 0030 4122     		movs	r2, #65
  50 0032 2421     		movs	r1, #36
  51 0034 9954     		strb	r1, [r3, r2]
  52 0036 7B68     		ldr	r3, [r7, #4]
  53 0038 1B68     		ldr	r3, [r3]
  54 003a 1A68     		ldr	r2, [r3]
  55 003c 7B68     		ldr	r3, [r7, #4]
  56 003e 1B68     		ldr	r3, [r3]
  57 0040 0121     		movs	r1, #1
  58 0042 8A43     		bics	r2, r1
ARM GAS  /tmp/ccnCrYSN.s 			page 2


  59 0044 1A60     		str	r2, [r3]
  60 0046 7B68     		ldr	r3, [r7, #4]
  61 0048 5A68     		ldr	r2, [r3, #4]
  62 004a 7B68     		ldr	r3, [r7, #4]
  63 004c 1B68     		ldr	r3, [r3]
  64 004e 3B49     		ldr	r1, .L9
  65 0050 0A40     		ands	r2, r1
  66 0052 1A61     		str	r2, [r3, #16]
  67 0054 7B68     		ldr	r3, [r7, #4]
  68 0056 1B68     		ldr	r3, [r3]
  69 0058 9A68     		ldr	r2, [r3, #8]
  70 005a 7B68     		ldr	r3, [r7, #4]
  71 005c 1B68     		ldr	r3, [r3]
  72 005e 3849     		ldr	r1, .L9+4
  73 0060 0A40     		ands	r2, r1
  74 0062 9A60     		str	r2, [r3, #8]
  75 0064 7B68     		ldr	r3, [r7, #4]
  76 0066 DB68     		ldr	r3, [r3, #12]
  77 0068 012B     		cmp	r3, #1
  78 006a 08D1     		bne	.L5
  79 006c 7B68     		ldr	r3, [r7, #4]
  80 006e 9A68     		ldr	r2, [r3, #8]
  81 0070 7B68     		ldr	r3, [r7, #4]
  82 0072 1B68     		ldr	r3, [r3]
  83 0074 8021     		movs	r1, #128
  84 0076 0902     		lsls	r1, r1, #8
  85 0078 0A43     		orrs	r2, r1
  86 007a 9A60     		str	r2, [r3, #8]
  87 007c 07E0     		b	.L6
  88              	.L5:
  89 007e 7B68     		ldr	r3, [r7, #4]
  90 0080 9A68     		ldr	r2, [r3, #8]
  91 0082 7B68     		ldr	r3, [r7, #4]
  92 0084 1B68     		ldr	r3, [r3]
  93 0086 8421     		movs	r1, #132
  94 0088 0902     		lsls	r1, r1, #8
  95 008a 0A43     		orrs	r2, r1
  96 008c 9A60     		str	r2, [r3, #8]
  97              	.L6:
  98 008e 7B68     		ldr	r3, [r7, #4]
  99 0090 DB68     		ldr	r3, [r3, #12]
 100 0092 022B     		cmp	r3, #2
 101 0094 09D1     		bne	.L7
 102 0096 7B68     		ldr	r3, [r7, #4]
 103 0098 1B68     		ldr	r3, [r3]
 104 009a 5A68     		ldr	r2, [r3, #4]
 105 009c 7B68     		ldr	r3, [r7, #4]
 106 009e 1B68     		ldr	r3, [r3]
 107 00a0 8021     		movs	r1, #128
 108 00a2 0901     		lsls	r1, r1, #4
 109 00a4 0A43     		orrs	r2, r1
 110 00a6 5A60     		str	r2, [r3, #4]
 111 00a8 07E0     		b	.L8
 112              	.L7:
 113 00aa 7B68     		ldr	r3, [r7, #4]
 114 00ac 1B68     		ldr	r3, [r3]
 115 00ae 5A68     		ldr	r2, [r3, #4]
ARM GAS  /tmp/ccnCrYSN.s 			page 3


 116 00b0 7B68     		ldr	r3, [r7, #4]
 117 00b2 1B68     		ldr	r3, [r3]
 118 00b4 2349     		ldr	r1, .L9+8
 119 00b6 0A40     		ands	r2, r1
 120 00b8 5A60     		str	r2, [r3, #4]
 121              	.L8:
 122 00ba 7B68     		ldr	r3, [r7, #4]
 123 00bc 1B68     		ldr	r3, [r3]
 124 00be 5A68     		ldr	r2, [r3, #4]
 125 00c0 7B68     		ldr	r3, [r7, #4]
 126 00c2 1B68     		ldr	r3, [r3]
 127 00c4 2049     		ldr	r1, .L9+12
 128 00c6 0A43     		orrs	r2, r1
 129 00c8 5A60     		str	r2, [r3, #4]
 130 00ca 7B68     		ldr	r3, [r7, #4]
 131 00cc 1B68     		ldr	r3, [r3]
 132 00ce DA68     		ldr	r2, [r3, #12]
 133 00d0 7B68     		ldr	r3, [r7, #4]
 134 00d2 1B68     		ldr	r3, [r3]
 135 00d4 1A49     		ldr	r1, .L9+4
 136 00d6 0A40     		ands	r2, r1
 137 00d8 DA60     		str	r2, [r3, #12]
 138 00da 7B68     		ldr	r3, [r7, #4]
 139 00dc 1A69     		ldr	r2, [r3, #16]
 140 00de 7B68     		ldr	r3, [r7, #4]
 141 00e0 5B69     		ldr	r3, [r3, #20]
 142 00e2 1A43     		orrs	r2, r3
 143 00e4 1100     		movs	r1, r2
 144 00e6 7B68     		ldr	r3, [r7, #4]
 145 00e8 9B69     		ldr	r3, [r3, #24]
 146 00ea 1A02     		lsls	r2, r3, #8
 147 00ec 7B68     		ldr	r3, [r7, #4]
 148 00ee 1B68     		ldr	r3, [r3]
 149 00f0 0A43     		orrs	r2, r1
 150 00f2 DA60     		str	r2, [r3, #12]
 151 00f4 7B68     		ldr	r3, [r7, #4]
 152 00f6 D969     		ldr	r1, [r3, #28]
 153 00f8 7B68     		ldr	r3, [r7, #4]
 154 00fa 1A6A     		ldr	r2, [r3, #32]
 155 00fc 7B68     		ldr	r3, [r7, #4]
 156 00fe 1B68     		ldr	r3, [r3]
 157 0100 0A43     		orrs	r2, r1
 158 0102 1A60     		str	r2, [r3]
 159 0104 7B68     		ldr	r3, [r7, #4]
 160 0106 1B68     		ldr	r3, [r3]
 161 0108 1A68     		ldr	r2, [r3]
 162 010a 7B68     		ldr	r3, [r7, #4]
 163 010c 1B68     		ldr	r3, [r3]
 164 010e 0121     		movs	r1, #1
 165 0110 0A43     		orrs	r2, r1
 166 0112 1A60     		str	r2, [r3]
 167 0114 7B68     		ldr	r3, [r7, #4]
 168 0116 0022     		movs	r2, #0
 169 0118 5A64     		str	r2, [r3, #68]
 170 011a 7B68     		ldr	r3, [r7, #4]
 171 011c 4122     		movs	r2, #65
 172 011e 2021     		movs	r1, #32
ARM GAS  /tmp/ccnCrYSN.s 			page 4


 173 0120 9954     		strb	r1, [r3, r2]
 174 0122 7B68     		ldr	r3, [r7, #4]
 175 0124 0022     		movs	r2, #0
 176 0126 1A63     		str	r2, [r3, #48]
 177 0128 7B68     		ldr	r3, [r7, #4]
 178 012a 4222     		movs	r2, #66
 179 012c 0021     		movs	r1, #0
 180 012e 9954     		strb	r1, [r3, r2]
 181 0130 0023     		movs	r3, #0
 182              	.L3:
 183 0132 1800     		movs	r0, r3
 184 0134 BD46     		mov	sp, r7
 185 0136 02B0     		add	sp, sp, #8
 186              		@ sp needed
 187 0138 80BD     		pop	{r7, pc}
 188              	.L10:
 189 013a C046     		.align	2
 190              	.L9:
 191 013c FFFFFFF0 		.word	-251658241
 192 0140 FF7FFFFF 		.word	-32769
 193 0144 FFF7FFFF 		.word	-2049
 194 0148 00800002 		.word	33587200
 196              		.section	.text.HAL_I2C_DeInit,"ax",%progbits
 197              		.align	1
 198              		.global	HAL_I2C_DeInit
 199              		.syntax unified
 200              		.code	16
 201              		.thumb_func
 203              	HAL_I2C_DeInit:
 204              		@ args = 0, pretend = 0, frame = 8
 205              		@ frame_needed = 1, uses_anonymous_args = 0
 206 0000 80B5     		push	{r7, lr}
 207 0002 82B0     		sub	sp, sp, #8
 208 0004 00AF     		add	r7, sp, #0
 209 0006 7860     		str	r0, [r7, #4]
 210 0008 7B68     		ldr	r3, [r7, #4]
 211 000a 002B     		cmp	r3, #0
 212 000c 01D1     		bne	.L12
 213 000e 0123     		movs	r3, #1
 214 0010 22E0     		b	.L13
 215              	.L12:
 216 0012 7B68     		ldr	r3, [r7, #4]
 217 0014 4122     		movs	r2, #65
 218 0016 2421     		movs	r1, #36
 219 0018 9954     		strb	r1, [r3, r2]
 220 001a 7B68     		ldr	r3, [r7, #4]
 221 001c 1B68     		ldr	r3, [r3]
 222 001e 1A68     		ldr	r2, [r3]
 223 0020 7B68     		ldr	r3, [r7, #4]
 224 0022 1B68     		ldr	r3, [r3]
 225 0024 0121     		movs	r1, #1
 226 0026 8A43     		bics	r2, r1
 227 0028 1A60     		str	r2, [r3]
 228 002a 7B68     		ldr	r3, [r7, #4]
 229 002c 1800     		movs	r0, r3
 230 002e FFF7FEFF 		bl	HAL_I2C_MspDeInit
 231 0032 7B68     		ldr	r3, [r7, #4]
ARM GAS  /tmp/ccnCrYSN.s 			page 5


 232 0034 0022     		movs	r2, #0
 233 0036 5A64     		str	r2, [r3, #68]
 234 0038 7B68     		ldr	r3, [r7, #4]
 235 003a 4122     		movs	r2, #65
 236 003c 0021     		movs	r1, #0
 237 003e 9954     		strb	r1, [r3, r2]
 238 0040 7B68     		ldr	r3, [r7, #4]
 239 0042 0022     		movs	r2, #0
 240 0044 1A63     		str	r2, [r3, #48]
 241 0046 7B68     		ldr	r3, [r7, #4]
 242 0048 4222     		movs	r2, #66
 243 004a 0021     		movs	r1, #0
 244 004c 9954     		strb	r1, [r3, r2]
 245 004e 7B68     		ldr	r3, [r7, #4]
 246 0050 4022     		movs	r2, #64
 247 0052 0021     		movs	r1, #0
 248 0054 9954     		strb	r1, [r3, r2]
 249 0056 0023     		movs	r3, #0
 250              	.L13:
 251 0058 1800     		movs	r0, r3
 252 005a BD46     		mov	sp, r7
 253 005c 02B0     		add	sp, sp, #8
 254              		@ sp needed
 255 005e 80BD     		pop	{r7, pc}
 257              		.section	.text.HAL_I2C_MspInit,"ax",%progbits
 258              		.align	1
 259              		.weak	HAL_I2C_MspInit
 260              		.syntax unified
 261              		.code	16
 262              		.thumb_func
 264              	HAL_I2C_MspInit:
 265              		@ args = 0, pretend = 0, frame = 8
 266              		@ frame_needed = 1, uses_anonymous_args = 0
 267 0000 80B5     		push	{r7, lr}
 268 0002 82B0     		sub	sp, sp, #8
 269 0004 00AF     		add	r7, sp, #0
 270 0006 7860     		str	r0, [r7, #4]
 271 0008 C046     		nop
 272 000a BD46     		mov	sp, r7
 273 000c 02B0     		add	sp, sp, #8
 274              		@ sp needed
 275 000e 80BD     		pop	{r7, pc}
 277              		.section	.text.HAL_I2C_MspDeInit,"ax",%progbits
 278              		.align	1
 279              		.weak	HAL_I2C_MspDeInit
 280              		.syntax unified
 281              		.code	16
 282              		.thumb_func
 284              	HAL_I2C_MspDeInit:
 285              		@ args = 0, pretend = 0, frame = 8
 286              		@ frame_needed = 1, uses_anonymous_args = 0
 287 0000 80B5     		push	{r7, lr}
 288 0002 82B0     		sub	sp, sp, #8
 289 0004 00AF     		add	r7, sp, #0
 290 0006 7860     		str	r0, [r7, #4]
 291 0008 C046     		nop
 292 000a BD46     		mov	sp, r7
ARM GAS  /tmp/ccnCrYSN.s 			page 6


 293 000c 02B0     		add	sp, sp, #8
 294              		@ sp needed
 295 000e 80BD     		pop	{r7, pc}
 297              		.section	.text.HAL_I2C_Master_Transmit,"ax",%progbits
 298              		.align	1
 299              		.global	HAL_I2C_Master_Transmit
 300              		.syntax unified
 301              		.code	16
 302              		.thumb_func
 304              	HAL_I2C_Master_Transmit:
 305              		@ args = 4, pretend = 0, frame = 24
 306              		@ frame_needed = 1, uses_anonymous_args = 0
 307 0000 90B5     		push	{r4, r7, lr}
 308 0002 89B0     		sub	sp, sp, #36
 309 0004 02AF     		add	r7, sp, #8
 310 0006 F860     		str	r0, [r7, #12]
 311 0008 0800     		movs	r0, r1
 312 000a 7A60     		str	r2, [r7, #4]
 313 000c 1900     		movs	r1, r3
 314 000e 0A23     		movs	r3, #10
 315 0010 FB18     		adds	r3, r7, r3
 316 0012 021C     		adds	r2, r0, #0
 317 0014 1A80     		strh	r2, [r3]
 318 0016 0823     		movs	r3, #8
 319 0018 FB18     		adds	r3, r7, r3
 320 001a 0A1C     		adds	r2, r1, #0
 321 001c 1A80     		strh	r2, [r3]
 322 001e FB68     		ldr	r3, [r7, #12]
 323 0020 4122     		movs	r2, #65
 324 0022 9B5C     		ldrb	r3, [r3, r2]
 325 0024 DBB2     		uxtb	r3, r3
 326 0026 202B     		cmp	r3, #32
 327 0028 00D0     		beq	.LCB318
 328 002a 0AE1     		b	.L17	@long jump
 329              	.LCB318:
 330 002c FB68     		ldr	r3, [r7, #12]
 331 002e 4022     		movs	r2, #64
 332 0030 9B5C     		ldrb	r3, [r3, r2]
 333 0032 012B     		cmp	r3, #1
 334 0034 01D1     		bne	.L18
 335 0036 0223     		movs	r3, #2
 336 0038 04E1     		b	.L19
 337              	.L18:
 338 003a FB68     		ldr	r3, [r7, #12]
 339 003c 4022     		movs	r2, #64
 340 003e 0121     		movs	r1, #1
 341 0040 9954     		strb	r1, [r3, r2]
 342 0042 FFF7FEFF 		bl	HAL_GetTick
 343 0046 0300     		movs	r3, r0
 344 0048 3B61     		str	r3, [r7, #16]
 345 004a 8023     		movs	r3, #128
 346 004c 1902     		lsls	r1, r3, #8
 347 004e F868     		ldr	r0, [r7, #12]
 348 0050 3B69     		ldr	r3, [r7, #16]
 349 0052 0093     		str	r3, [sp]
 350 0054 1923     		movs	r3, #25
 351 0056 0122     		movs	r2, #1
ARM GAS  /tmp/ccnCrYSN.s 			page 7


 352 0058 FFF7FEFF 		bl	I2C_WaitOnFlagUntilTimeout
 353 005c 031E     		subs	r3, r0, #0
 354 005e 01D0     		beq	.L20
 355 0060 0123     		movs	r3, #1
 356 0062 EFE0     		b	.L19
 357              	.L20:
 358 0064 FB68     		ldr	r3, [r7, #12]
 359 0066 4122     		movs	r2, #65
 360 0068 2121     		movs	r1, #33
 361 006a 9954     		strb	r1, [r3, r2]
 362 006c FB68     		ldr	r3, [r7, #12]
 363 006e 4222     		movs	r2, #66
 364 0070 1021     		movs	r1, #16
 365 0072 9954     		strb	r1, [r3, r2]
 366 0074 FB68     		ldr	r3, [r7, #12]
 367 0076 0022     		movs	r2, #0
 368 0078 5A64     		str	r2, [r3, #68]
 369 007a FB68     		ldr	r3, [r7, #12]
 370 007c 7A68     		ldr	r2, [r7, #4]
 371 007e 5A62     		str	r2, [r3, #36]
 372 0080 FB68     		ldr	r3, [r7, #12]
 373 0082 0822     		movs	r2, #8
 374 0084 BA18     		adds	r2, r7, r2
 375 0086 1288     		ldrh	r2, [r2]
 376 0088 5A85     		strh	r2, [r3, #42]
 377 008a FB68     		ldr	r3, [r7, #12]
 378 008c 0022     		movs	r2, #0
 379 008e 5A63     		str	r2, [r3, #52]
 380 0090 FB68     		ldr	r3, [r7, #12]
 381 0092 5B8D     		ldrh	r3, [r3, #42]
 382 0094 9BB2     		uxth	r3, r3
 383 0096 FF2B     		cmp	r3, #255
 384 0098 06D9     		bls	.L21
 385 009a FB68     		ldr	r3, [r7, #12]
 386 009c FF22     		movs	r2, #255
 387 009e 1A85     		strh	r2, [r3, #40]
 388 00a0 8023     		movs	r3, #128
 389 00a2 5B04     		lsls	r3, r3, #17
 390 00a4 7B61     		str	r3, [r7, #20]
 391 00a6 07E0     		b	.L22
 392              	.L21:
 393 00a8 FB68     		ldr	r3, [r7, #12]
 394 00aa 5B8D     		ldrh	r3, [r3, #42]
 395 00ac 9AB2     		uxth	r2, r3
 396 00ae FB68     		ldr	r3, [r7, #12]
 397 00b0 1A85     		strh	r2, [r3, #40]
 398 00b2 8023     		movs	r3, #128
 399 00b4 9B04     		lsls	r3, r3, #18
 400 00b6 7B61     		str	r3, [r7, #20]
 401              	.L22:
 402 00b8 FB68     		ldr	r3, [r7, #12]
 403 00ba 1B8D     		ldrh	r3, [r3, #40]
 404 00bc 002B     		cmp	r3, #0
 405 00be 27D0     		beq	.L23
 406 00c0 FB68     		ldr	r3, [r7, #12]
 407 00c2 5B6A     		ldr	r3, [r3, #36]
 408 00c4 1A78     		ldrb	r2, [r3]
ARM GAS  /tmp/ccnCrYSN.s 			page 8


 409 00c6 FB68     		ldr	r3, [r7, #12]
 410 00c8 1B68     		ldr	r3, [r3]
 411 00ca 9A62     		str	r2, [r3, #40]
 412 00cc FB68     		ldr	r3, [r7, #12]
 413 00ce 5B6A     		ldr	r3, [r3, #36]
 414 00d0 5A1C     		adds	r2, r3, #1
 415 00d2 FB68     		ldr	r3, [r7, #12]
 416 00d4 5A62     		str	r2, [r3, #36]
 417 00d6 FB68     		ldr	r3, [r7, #12]
 418 00d8 5B8D     		ldrh	r3, [r3, #42]
 419 00da 9BB2     		uxth	r3, r3
 420 00dc 013B     		subs	r3, r3, #1
 421 00de 9AB2     		uxth	r2, r3
 422 00e0 FB68     		ldr	r3, [r7, #12]
 423 00e2 5A85     		strh	r2, [r3, #42]
 424 00e4 FB68     		ldr	r3, [r7, #12]
 425 00e6 1B8D     		ldrh	r3, [r3, #40]
 426 00e8 013B     		subs	r3, r3, #1
 427 00ea 9AB2     		uxth	r2, r3
 428 00ec FB68     		ldr	r3, [r7, #12]
 429 00ee 1A85     		strh	r2, [r3, #40]
 430 00f0 FB68     		ldr	r3, [r7, #12]
 431 00f2 1B8D     		ldrh	r3, [r3, #40]
 432 00f4 DBB2     		uxtb	r3, r3
 433 00f6 0133     		adds	r3, r3, #1
 434 00f8 DAB2     		uxtb	r2, r3
 435 00fa 7C69     		ldr	r4, [r7, #20]
 436 00fc 0A23     		movs	r3, #10
 437 00fe FB18     		adds	r3, r7, r3
 438 0100 1988     		ldrh	r1, [r3]
 439 0102 F868     		ldr	r0, [r7, #12]
 440 0104 514B     		ldr	r3, .L32
 441 0106 0093     		str	r3, [sp]
 442 0108 2300     		movs	r3, r4
 443 010a FFF7FEFF 		bl	I2C_TransferConfig
 444 010e 6FE0     		b	.L25
 445              	.L23:
 446 0110 FB68     		ldr	r3, [r7, #12]
 447 0112 1B8D     		ldrh	r3, [r3, #40]
 448 0114 DAB2     		uxtb	r2, r3
 449 0116 7C69     		ldr	r4, [r7, #20]
 450 0118 0A23     		movs	r3, #10
 451 011a FB18     		adds	r3, r7, r3
 452 011c 1988     		ldrh	r1, [r3]
 453 011e F868     		ldr	r0, [r7, #12]
 454 0120 4A4B     		ldr	r3, .L32
 455 0122 0093     		str	r3, [sp]
 456 0124 2300     		movs	r3, r4
 457 0126 FFF7FEFF 		bl	I2C_TransferConfig
 458 012a 61E0     		b	.L25
 459              	.L30:
 460 012c 3A69     		ldr	r2, [r7, #16]
 461 012e B96A     		ldr	r1, [r7, #40]
 462 0130 FB68     		ldr	r3, [r7, #12]
 463 0132 1800     		movs	r0, r3
 464 0134 FFF7FEFF 		bl	I2C_WaitOnTXISFlagUntilTimeout
 465 0138 031E     		subs	r3, r0, #0
ARM GAS  /tmp/ccnCrYSN.s 			page 9


 466 013a 01D0     		beq	.L26
 467 013c 0123     		movs	r3, #1
 468 013e 81E0     		b	.L19
 469              	.L26:
 470 0140 FB68     		ldr	r3, [r7, #12]
 471 0142 5B6A     		ldr	r3, [r3, #36]
 472 0144 1A78     		ldrb	r2, [r3]
 473 0146 FB68     		ldr	r3, [r7, #12]
 474 0148 1B68     		ldr	r3, [r3]
 475 014a 9A62     		str	r2, [r3, #40]
 476 014c FB68     		ldr	r3, [r7, #12]
 477 014e 5B6A     		ldr	r3, [r3, #36]
 478 0150 5A1C     		adds	r2, r3, #1
 479 0152 FB68     		ldr	r3, [r7, #12]
 480 0154 5A62     		str	r2, [r3, #36]
 481 0156 FB68     		ldr	r3, [r7, #12]
 482 0158 5B8D     		ldrh	r3, [r3, #42]
 483 015a 9BB2     		uxth	r3, r3
 484 015c 013B     		subs	r3, r3, #1
 485 015e 9AB2     		uxth	r2, r3
 486 0160 FB68     		ldr	r3, [r7, #12]
 487 0162 5A85     		strh	r2, [r3, #42]
 488 0164 FB68     		ldr	r3, [r7, #12]
 489 0166 1B8D     		ldrh	r3, [r3, #40]
 490 0168 013B     		subs	r3, r3, #1
 491 016a 9AB2     		uxth	r2, r3
 492 016c FB68     		ldr	r3, [r7, #12]
 493 016e 1A85     		strh	r2, [r3, #40]
 494 0170 FB68     		ldr	r3, [r7, #12]
 495 0172 5B8D     		ldrh	r3, [r3, #42]
 496 0174 9BB2     		uxth	r3, r3
 497 0176 002B     		cmp	r3, #0
 498 0178 3AD0     		beq	.L25
 499 017a FB68     		ldr	r3, [r7, #12]
 500 017c 1B8D     		ldrh	r3, [r3, #40]
 501 017e 002B     		cmp	r3, #0
 502 0180 36D1     		bne	.L25
 503 0182 BA6A     		ldr	r2, [r7, #40]
 504 0184 F868     		ldr	r0, [r7, #12]
 505 0186 3B69     		ldr	r3, [r7, #16]
 506 0188 0093     		str	r3, [sp]
 507 018a 1300     		movs	r3, r2
 508 018c 0022     		movs	r2, #0
 509 018e 8021     		movs	r1, #128
 510 0190 FFF7FEFF 		bl	I2C_WaitOnFlagUntilTimeout
 511 0194 031E     		subs	r3, r0, #0
 512 0196 01D0     		beq	.L28
 513 0198 0123     		movs	r3, #1
 514 019a 53E0     		b	.L19
 515              	.L28:
 516 019c FB68     		ldr	r3, [r7, #12]
 517 019e 5B8D     		ldrh	r3, [r3, #42]
 518 01a0 9BB2     		uxth	r3, r3
 519 01a2 FF2B     		cmp	r3, #255
 520 01a4 11D9     		bls	.L29
 521 01a6 FB68     		ldr	r3, [r7, #12]
 522 01a8 FF22     		movs	r2, #255
ARM GAS  /tmp/ccnCrYSN.s 			page 10


 523 01aa 1A85     		strh	r2, [r3, #40]
 524 01ac FB68     		ldr	r3, [r7, #12]
 525 01ae 1B8D     		ldrh	r3, [r3, #40]
 526 01b0 DAB2     		uxtb	r2, r3
 527 01b2 8023     		movs	r3, #128
 528 01b4 5C04     		lsls	r4, r3, #17
 529 01b6 0A23     		movs	r3, #10
 530 01b8 FB18     		adds	r3, r7, r3
 531 01ba 1988     		ldrh	r1, [r3]
 532 01bc F868     		ldr	r0, [r7, #12]
 533 01be 0023     		movs	r3, #0
 534 01c0 0093     		str	r3, [sp]
 535 01c2 2300     		movs	r3, r4
 536 01c4 FFF7FEFF 		bl	I2C_TransferConfig
 537 01c8 12E0     		b	.L25
 538              	.L29:
 539 01ca FB68     		ldr	r3, [r7, #12]
 540 01cc 5B8D     		ldrh	r3, [r3, #42]
 541 01ce 9AB2     		uxth	r2, r3
 542 01d0 FB68     		ldr	r3, [r7, #12]
 543 01d2 1A85     		strh	r2, [r3, #40]
 544 01d4 FB68     		ldr	r3, [r7, #12]
 545 01d6 1B8D     		ldrh	r3, [r3, #40]
 546 01d8 DAB2     		uxtb	r2, r3
 547 01da 8023     		movs	r3, #128
 548 01dc 9C04     		lsls	r4, r3, #18
 549 01de 0A23     		movs	r3, #10
 550 01e0 FB18     		adds	r3, r7, r3
 551 01e2 1988     		ldrh	r1, [r3]
 552 01e4 F868     		ldr	r0, [r7, #12]
 553 01e6 0023     		movs	r3, #0
 554 01e8 0093     		str	r3, [sp]
 555 01ea 2300     		movs	r3, r4
 556 01ec FFF7FEFF 		bl	I2C_TransferConfig
 557              	.L25:
 558 01f0 FB68     		ldr	r3, [r7, #12]
 559 01f2 5B8D     		ldrh	r3, [r3, #42]
 560 01f4 9BB2     		uxth	r3, r3
 561 01f6 002B     		cmp	r3, #0
 562 01f8 98D1     		bne	.L30
 563 01fa 3A69     		ldr	r2, [r7, #16]
 564 01fc B96A     		ldr	r1, [r7, #40]
 565 01fe FB68     		ldr	r3, [r7, #12]
 566 0200 1800     		movs	r0, r3
 567 0202 FFF7FEFF 		bl	I2C_WaitOnSTOPFlagUntilTimeout
 568 0206 031E     		subs	r3, r0, #0
 569 0208 01D0     		beq	.L31
 570 020a 0123     		movs	r3, #1
 571 020c 1AE0     		b	.L19
 572              	.L31:
 573 020e FB68     		ldr	r3, [r7, #12]
 574 0210 1B68     		ldr	r3, [r3]
 575 0212 2022     		movs	r2, #32
 576 0214 DA61     		str	r2, [r3, #28]
 577 0216 FB68     		ldr	r3, [r7, #12]
 578 0218 1B68     		ldr	r3, [r3]
 579 021a 5A68     		ldr	r2, [r3, #4]
ARM GAS  /tmp/ccnCrYSN.s 			page 11


 580 021c FB68     		ldr	r3, [r7, #12]
 581 021e 1B68     		ldr	r3, [r3]
 582 0220 0B49     		ldr	r1, .L32+4
 583 0222 0A40     		ands	r2, r1
 584 0224 5A60     		str	r2, [r3, #4]
 585 0226 FB68     		ldr	r3, [r7, #12]
 586 0228 4122     		movs	r2, #65
 587 022a 2021     		movs	r1, #32
 588 022c 9954     		strb	r1, [r3, r2]
 589 022e FB68     		ldr	r3, [r7, #12]
 590 0230 4222     		movs	r2, #66
 591 0232 0021     		movs	r1, #0
 592 0234 9954     		strb	r1, [r3, r2]
 593 0236 FB68     		ldr	r3, [r7, #12]
 594 0238 4022     		movs	r2, #64
 595 023a 0021     		movs	r1, #0
 596 023c 9954     		strb	r1, [r3, r2]
 597 023e 0023     		movs	r3, #0
 598 0240 00E0     		b	.L19
 599              	.L17:
 600 0242 0223     		movs	r3, #2
 601              	.L19:
 602 0244 1800     		movs	r0, r3
 603 0246 BD46     		mov	sp, r7
 604 0248 07B0     		add	sp, sp, #28
 605              		@ sp needed
 606 024a 90BD     		pop	{r4, r7, pc}
 607              	.L33:
 608              		.align	2
 609              	.L32:
 610 024c 00200080 		.word	-2147475456
 611 0250 00E800FE 		.word	-33495040
 613              		.section	.text.HAL_I2C_Master_Receive,"ax",%progbits
 614              		.align	1
 615              		.global	HAL_I2C_Master_Receive
 616              		.syntax unified
 617              		.code	16
 618              		.thumb_func
 620              	HAL_I2C_Master_Receive:
 621              		@ args = 4, pretend = 0, frame = 24
 622              		@ frame_needed = 1, uses_anonymous_args = 0
 623 0000 90B5     		push	{r4, r7, lr}
 624 0002 89B0     		sub	sp, sp, #36
 625 0004 02AF     		add	r7, sp, #8
 626 0006 F860     		str	r0, [r7, #12]
 627 0008 0800     		movs	r0, r1
 628 000a 7A60     		str	r2, [r7, #4]
 629 000c 1900     		movs	r1, r3
 630 000e 0A23     		movs	r3, #10
 631 0010 FB18     		adds	r3, r7, r3
 632 0012 021C     		adds	r2, r0, #0
 633 0014 1A80     		strh	r2, [r3]
 634 0016 0823     		movs	r3, #8
 635 0018 FB18     		adds	r3, r7, r3
 636 001a 0A1C     		adds	r2, r1, #0
 637 001c 1A80     		strh	r2, [r3]
 638 001e FB68     		ldr	r3, [r7, #12]
ARM GAS  /tmp/ccnCrYSN.s 			page 12


 639 0020 4122     		movs	r2, #65
 640 0022 9B5C     		ldrb	r3, [r3, r2]
 641 0024 DBB2     		uxtb	r3, r3
 642 0026 202B     		cmp	r3, #32
 643 0028 00D0     		beq	.LCB661
 644 002a E8E0     		b	.L35	@long jump
 645              	.LCB661:
 646 002c FB68     		ldr	r3, [r7, #12]
 647 002e 4022     		movs	r2, #64
 648 0030 9B5C     		ldrb	r3, [r3, r2]
 649 0032 012B     		cmp	r3, #1
 650 0034 01D1     		bne	.L36
 651 0036 0223     		movs	r3, #2
 652 0038 E2E0     		b	.L37
 653              	.L36:
 654 003a FB68     		ldr	r3, [r7, #12]
 655 003c 4022     		movs	r2, #64
 656 003e 0121     		movs	r1, #1
 657 0040 9954     		strb	r1, [r3, r2]
 658 0042 FFF7FEFF 		bl	HAL_GetTick
 659 0046 0300     		movs	r3, r0
 660 0048 7B61     		str	r3, [r7, #20]
 661 004a 8023     		movs	r3, #128
 662 004c 1902     		lsls	r1, r3, #8
 663 004e F868     		ldr	r0, [r7, #12]
 664 0050 7B69     		ldr	r3, [r7, #20]
 665 0052 0093     		str	r3, [sp]
 666 0054 1923     		movs	r3, #25
 667 0056 0122     		movs	r2, #1
 668 0058 FFF7FEFF 		bl	I2C_WaitOnFlagUntilTimeout
 669 005c 031E     		subs	r3, r0, #0
 670 005e 01D0     		beq	.L38
 671 0060 0123     		movs	r3, #1
 672 0062 CDE0     		b	.L37
 673              	.L38:
 674 0064 FB68     		ldr	r3, [r7, #12]
 675 0066 4122     		movs	r2, #65
 676 0068 2221     		movs	r1, #34
 677 006a 9954     		strb	r1, [r3, r2]
 678 006c FB68     		ldr	r3, [r7, #12]
 679 006e 4222     		movs	r2, #66
 680 0070 1021     		movs	r1, #16
 681 0072 9954     		strb	r1, [r3, r2]
 682 0074 FB68     		ldr	r3, [r7, #12]
 683 0076 0022     		movs	r2, #0
 684 0078 5A64     		str	r2, [r3, #68]
 685 007a FB68     		ldr	r3, [r7, #12]
 686 007c 7A68     		ldr	r2, [r7, #4]
 687 007e 5A62     		str	r2, [r3, #36]
 688 0080 FB68     		ldr	r3, [r7, #12]
 689 0082 0822     		movs	r2, #8
 690 0084 BA18     		adds	r2, r7, r2
 691 0086 1288     		ldrh	r2, [r2]
 692 0088 5A85     		strh	r2, [r3, #42]
 693 008a FB68     		ldr	r3, [r7, #12]
 694 008c 0022     		movs	r2, #0
 695 008e 5A63     		str	r2, [r3, #52]
ARM GAS  /tmp/ccnCrYSN.s 			page 13


 696 0090 FB68     		ldr	r3, [r7, #12]
 697 0092 5B8D     		ldrh	r3, [r3, #42]
 698 0094 9BB2     		uxth	r3, r3
 699 0096 FF2B     		cmp	r3, #255
 700 0098 11D9     		bls	.L39
 701 009a FB68     		ldr	r3, [r7, #12]
 702 009c 0122     		movs	r2, #1
 703 009e 1A85     		strh	r2, [r3, #40]
 704 00a0 FB68     		ldr	r3, [r7, #12]
 705 00a2 1B8D     		ldrh	r3, [r3, #40]
 706 00a4 DAB2     		uxtb	r2, r3
 707 00a6 8023     		movs	r3, #128
 708 00a8 5C04     		lsls	r4, r3, #17
 709 00aa 0A23     		movs	r3, #10
 710 00ac FB18     		adds	r3, r7, r3
 711 00ae 1988     		ldrh	r1, [r3]
 712 00b0 F868     		ldr	r0, [r7, #12]
 713 00b2 554B     		ldr	r3, .L48
 714 00b4 0093     		str	r3, [sp]
 715 00b6 2300     		movs	r3, r4
 716 00b8 FFF7FEFF 		bl	I2C_TransferConfig
 717 00bc 76E0     		b	.L41
 718              	.L39:
 719 00be FB68     		ldr	r3, [r7, #12]
 720 00c0 5B8D     		ldrh	r3, [r3, #42]
 721 00c2 9AB2     		uxth	r2, r3
 722 00c4 FB68     		ldr	r3, [r7, #12]
 723 00c6 1A85     		strh	r2, [r3, #40]
 724 00c8 FB68     		ldr	r3, [r7, #12]
 725 00ca 1B8D     		ldrh	r3, [r3, #40]
 726 00cc DAB2     		uxtb	r2, r3
 727 00ce 8023     		movs	r3, #128
 728 00d0 9C04     		lsls	r4, r3, #18
 729 00d2 0A23     		movs	r3, #10
 730 00d4 FB18     		adds	r3, r7, r3
 731 00d6 1988     		ldrh	r1, [r3]
 732 00d8 F868     		ldr	r0, [r7, #12]
 733 00da 4B4B     		ldr	r3, .L48
 734 00dc 0093     		str	r3, [sp]
 735 00de 2300     		movs	r3, r4
 736 00e0 FFF7FEFF 		bl	I2C_TransferConfig
 737 00e4 62E0     		b	.L41
 738              	.L46:
 739 00e6 7A69     		ldr	r2, [r7, #20]
 740 00e8 B96A     		ldr	r1, [r7, #40]
 741 00ea FB68     		ldr	r3, [r7, #12]
 742 00ec 1800     		movs	r0, r3
 743 00ee FFF7FEFF 		bl	I2C_WaitOnRXNEFlagUntilTimeout
 744 00f2 031E     		subs	r3, r0, #0
 745 00f4 01D0     		beq	.L42
 746 00f6 0123     		movs	r3, #1
 747 00f8 82E0     		b	.L37
 748              	.L42:
 749 00fa FB68     		ldr	r3, [r7, #12]
 750 00fc 1B68     		ldr	r3, [r3]
 751 00fe 5A6A     		ldr	r2, [r3, #36]
 752 0100 FB68     		ldr	r3, [r7, #12]
ARM GAS  /tmp/ccnCrYSN.s 			page 14


 753 0102 5B6A     		ldr	r3, [r3, #36]
 754 0104 D2B2     		uxtb	r2, r2
 755 0106 1A70     		strb	r2, [r3]
 756 0108 FB68     		ldr	r3, [r7, #12]
 757 010a 5B6A     		ldr	r3, [r3, #36]
 758 010c 5A1C     		adds	r2, r3, #1
 759 010e FB68     		ldr	r3, [r7, #12]
 760 0110 5A62     		str	r2, [r3, #36]
 761 0112 FB68     		ldr	r3, [r7, #12]
 762 0114 1B8D     		ldrh	r3, [r3, #40]
 763 0116 013B     		subs	r3, r3, #1
 764 0118 9AB2     		uxth	r2, r3
 765 011a FB68     		ldr	r3, [r7, #12]
 766 011c 1A85     		strh	r2, [r3, #40]
 767 011e FB68     		ldr	r3, [r7, #12]
 768 0120 5B8D     		ldrh	r3, [r3, #42]
 769 0122 9BB2     		uxth	r3, r3
 770 0124 013B     		subs	r3, r3, #1
 771 0126 9AB2     		uxth	r2, r3
 772 0128 FB68     		ldr	r3, [r7, #12]
 773 012a 5A85     		strh	r2, [r3, #42]
 774 012c FB68     		ldr	r3, [r7, #12]
 775 012e 5B8D     		ldrh	r3, [r3, #42]
 776 0130 9BB2     		uxth	r3, r3
 777 0132 002B     		cmp	r3, #0
 778 0134 3AD0     		beq	.L41
 779 0136 FB68     		ldr	r3, [r7, #12]
 780 0138 1B8D     		ldrh	r3, [r3, #40]
 781 013a 002B     		cmp	r3, #0
 782 013c 36D1     		bne	.L41
 783 013e BA6A     		ldr	r2, [r7, #40]
 784 0140 F868     		ldr	r0, [r7, #12]
 785 0142 7B69     		ldr	r3, [r7, #20]
 786 0144 0093     		str	r3, [sp]
 787 0146 1300     		movs	r3, r2
 788 0148 0022     		movs	r2, #0
 789 014a 8021     		movs	r1, #128
 790 014c FFF7FEFF 		bl	I2C_WaitOnFlagUntilTimeout
 791 0150 031E     		subs	r3, r0, #0
 792 0152 01D0     		beq	.L44
 793 0154 0123     		movs	r3, #1
 794 0156 53E0     		b	.L37
 795              	.L44:
 796 0158 FB68     		ldr	r3, [r7, #12]
 797 015a 5B8D     		ldrh	r3, [r3, #42]
 798 015c 9BB2     		uxth	r3, r3
 799 015e FF2B     		cmp	r3, #255
 800 0160 11D9     		bls	.L45
 801 0162 FB68     		ldr	r3, [r7, #12]
 802 0164 FF22     		movs	r2, #255
 803 0166 1A85     		strh	r2, [r3, #40]
 804 0168 FB68     		ldr	r3, [r7, #12]
 805 016a 1B8D     		ldrh	r3, [r3, #40]
 806 016c DAB2     		uxtb	r2, r3
 807 016e 8023     		movs	r3, #128
 808 0170 5C04     		lsls	r4, r3, #17
 809 0172 0A23     		movs	r3, #10
ARM GAS  /tmp/ccnCrYSN.s 			page 15


 810 0174 FB18     		adds	r3, r7, r3
 811 0176 1988     		ldrh	r1, [r3]
 812 0178 F868     		ldr	r0, [r7, #12]
 813 017a 0023     		movs	r3, #0
 814 017c 0093     		str	r3, [sp]
 815 017e 2300     		movs	r3, r4
 816 0180 FFF7FEFF 		bl	I2C_TransferConfig
 817 0184 12E0     		b	.L41
 818              	.L45:
 819 0186 FB68     		ldr	r3, [r7, #12]
 820 0188 5B8D     		ldrh	r3, [r3, #42]
 821 018a 9AB2     		uxth	r2, r3
 822 018c FB68     		ldr	r3, [r7, #12]
 823 018e 1A85     		strh	r2, [r3, #40]
 824 0190 FB68     		ldr	r3, [r7, #12]
 825 0192 1B8D     		ldrh	r3, [r3, #40]
 826 0194 DAB2     		uxtb	r2, r3
 827 0196 8023     		movs	r3, #128
 828 0198 9C04     		lsls	r4, r3, #18
 829 019a 0A23     		movs	r3, #10
 830 019c FB18     		adds	r3, r7, r3
 831 019e 1988     		ldrh	r1, [r3]
 832 01a0 F868     		ldr	r0, [r7, #12]
 833 01a2 0023     		movs	r3, #0
 834 01a4 0093     		str	r3, [sp]
 835 01a6 2300     		movs	r3, r4
 836 01a8 FFF7FEFF 		bl	I2C_TransferConfig
 837              	.L41:
 838 01ac FB68     		ldr	r3, [r7, #12]
 839 01ae 5B8D     		ldrh	r3, [r3, #42]
 840 01b0 9BB2     		uxth	r3, r3
 841 01b2 002B     		cmp	r3, #0
 842 01b4 97D1     		bne	.L46
 843 01b6 7A69     		ldr	r2, [r7, #20]
 844 01b8 B96A     		ldr	r1, [r7, #40]
 845 01ba FB68     		ldr	r3, [r7, #12]
 846 01bc 1800     		movs	r0, r3
 847 01be FFF7FEFF 		bl	I2C_WaitOnSTOPFlagUntilTimeout
 848 01c2 031E     		subs	r3, r0, #0
 849 01c4 01D0     		beq	.L47
 850 01c6 0123     		movs	r3, #1
 851 01c8 1AE0     		b	.L37
 852              	.L47:
 853 01ca FB68     		ldr	r3, [r7, #12]
 854 01cc 1B68     		ldr	r3, [r3]
 855 01ce 2022     		movs	r2, #32
 856 01d0 DA61     		str	r2, [r3, #28]
 857 01d2 FB68     		ldr	r3, [r7, #12]
 858 01d4 1B68     		ldr	r3, [r3]
 859 01d6 5A68     		ldr	r2, [r3, #4]
 860 01d8 FB68     		ldr	r3, [r7, #12]
 861 01da 1B68     		ldr	r3, [r3]
 862 01dc 0B49     		ldr	r1, .L48+4
 863 01de 0A40     		ands	r2, r1
 864 01e0 5A60     		str	r2, [r3, #4]
 865 01e2 FB68     		ldr	r3, [r7, #12]
 866 01e4 4122     		movs	r2, #65
ARM GAS  /tmp/ccnCrYSN.s 			page 16


 867 01e6 2021     		movs	r1, #32
 868 01e8 9954     		strb	r1, [r3, r2]
 869 01ea FB68     		ldr	r3, [r7, #12]
 870 01ec 4222     		movs	r2, #66
 871 01ee 0021     		movs	r1, #0
 872 01f0 9954     		strb	r1, [r3, r2]
 873 01f2 FB68     		ldr	r3, [r7, #12]
 874 01f4 4022     		movs	r2, #64
 875 01f6 0021     		movs	r1, #0
 876 01f8 9954     		strb	r1, [r3, r2]
 877 01fa 0023     		movs	r3, #0
 878 01fc 00E0     		b	.L37
 879              	.L35:
 880 01fe 0223     		movs	r3, #2
 881              	.L37:
 882 0200 1800     		movs	r0, r3
 883 0202 BD46     		mov	sp, r7
 884 0204 07B0     		add	sp, sp, #28
 885              		@ sp needed
 886 0206 90BD     		pop	{r4, r7, pc}
 887              	.L49:
 888              		.align	2
 889              	.L48:
 890 0208 00240080 		.word	-2147474432
 891 020c 00E800FE 		.word	-33495040
 893              		.section	.text.HAL_I2C_Slave_Transmit,"ax",%progbits
 894              		.align	1
 895              		.global	HAL_I2C_Slave_Transmit
 896              		.syntax unified
 897              		.code	16
 898              		.thumb_func
 900              	HAL_I2C_Slave_Transmit:
 901              		@ args = 0, pretend = 0, frame = 24
 902              		@ frame_needed = 1, uses_anonymous_args = 0
 903 0000 B0B5     		push	{r4, r5, r7, lr}
 904 0002 88B0     		sub	sp, sp, #32
 905 0004 02AF     		add	r7, sp, #8
 906 0006 F860     		str	r0, [r7, #12]
 907 0008 B960     		str	r1, [r7, #8]
 908 000a 3B60     		str	r3, [r7]
 909 000c BB1D     		adds	r3, r7, #6
 910 000e 1A80     		strh	r2, [r3]
 911 0010 FB68     		ldr	r3, [r7, #12]
 912 0012 4122     		movs	r2, #65
 913 0014 9B5C     		ldrb	r3, [r3, r2]
 914 0016 DBB2     		uxtb	r3, r3
 915 0018 202B     		cmp	r3, #32
 916 001a 00D0     		beq	.LCB958
 917 001c 4FE1     		b	.L51	@long jump
 918              	.LCB958:
 919 001e BB68     		ldr	r3, [r7, #8]
 920 0020 002B     		cmp	r3, #0
 921 0022 03D0     		beq	.L52
 922 0024 BB1D     		adds	r3, r7, #6
 923 0026 1B88     		ldrh	r3, [r3]
 924 0028 002B     		cmp	r3, #0
 925 002a 05D1     		bne	.L53
ARM GAS  /tmp/ccnCrYSN.s 			page 17


 926              	.L52:
 927 002c FB68     		ldr	r3, [r7, #12]
 928 002e 8022     		movs	r2, #128
 929 0030 9200     		lsls	r2, r2, #2
 930 0032 5A64     		str	r2, [r3, #68]
 931 0034 0123     		movs	r3, #1
 932 0036 43E1     		b	.L54
 933              	.L53:
 934 0038 FB68     		ldr	r3, [r7, #12]
 935 003a 4022     		movs	r2, #64
 936 003c 9B5C     		ldrb	r3, [r3, r2]
 937 003e 012B     		cmp	r3, #1
 938 0040 01D1     		bne	.L55
 939 0042 0223     		movs	r3, #2
 940 0044 3CE1     		b	.L54
 941              	.L55:
 942 0046 FB68     		ldr	r3, [r7, #12]
 943 0048 4022     		movs	r2, #64
 944 004a 0121     		movs	r1, #1
 945 004c 9954     		strb	r1, [r3, r2]
 946 004e FFF7FEFF 		bl	HAL_GetTick
 947 0052 0300     		movs	r3, r0
 948 0054 7B61     		str	r3, [r7, #20]
 949 0056 FB68     		ldr	r3, [r7, #12]
 950 0058 4122     		movs	r2, #65
 951 005a 2121     		movs	r1, #33
 952 005c 9954     		strb	r1, [r3, r2]
 953 005e FB68     		ldr	r3, [r7, #12]
 954 0060 4222     		movs	r2, #66
 955 0062 2021     		movs	r1, #32
 956 0064 9954     		strb	r1, [r3, r2]
 957 0066 FB68     		ldr	r3, [r7, #12]
 958 0068 0022     		movs	r2, #0
 959 006a 5A64     		str	r2, [r3, #68]
 960 006c FB68     		ldr	r3, [r7, #12]
 961 006e BA68     		ldr	r2, [r7, #8]
 962 0070 5A62     		str	r2, [r3, #36]
 963 0072 FB68     		ldr	r3, [r7, #12]
 964 0074 BA1D     		adds	r2, r7, #6
 965 0076 1288     		ldrh	r2, [r2]
 966 0078 5A85     		strh	r2, [r3, #42]
 967 007a FB68     		ldr	r3, [r7, #12]
 968 007c 0022     		movs	r2, #0
 969 007e 5A63     		str	r2, [r3, #52]
 970 0080 FB68     		ldr	r3, [r7, #12]
 971 0082 1B68     		ldr	r3, [r3]
 972 0084 5A68     		ldr	r2, [r3, #4]
 973 0086 FB68     		ldr	r3, [r7, #12]
 974 0088 1B68     		ldr	r3, [r3]
 975 008a 8F49     		ldr	r1, .L69
 976 008c 0A40     		ands	r2, r1
 977 008e 5A60     		str	r2, [r3, #4]
 978 0090 FB68     		ldr	r3, [r7, #12]
 979 0092 1A6A     		ldr	r2, [r3, #32]
 980 0094 8023     		movs	r3, #128
 981 0096 9B02     		lsls	r3, r3, #10
 982 0098 9A42     		cmp	r2, r3
ARM GAS  /tmp/ccnCrYSN.s 			page 18


 983 009a 11D1     		bne	.L56
 984 009c FB68     		ldr	r3, [r7, #12]
 985 009e 5B6A     		ldr	r3, [r3, #36]
 986 00a0 1A78     		ldrb	r2, [r3]
 987 00a2 FB68     		ldr	r3, [r7, #12]
 988 00a4 1B68     		ldr	r3, [r3]
 989 00a6 9A62     		str	r2, [r3, #40]
 990 00a8 FB68     		ldr	r3, [r7, #12]
 991 00aa 5B6A     		ldr	r3, [r3, #36]
 992 00ac 5A1C     		adds	r2, r3, #1
 993 00ae FB68     		ldr	r3, [r7, #12]
 994 00b0 5A62     		str	r2, [r3, #36]
 995 00b2 FB68     		ldr	r3, [r7, #12]
 996 00b4 5B8D     		ldrh	r3, [r3, #42]
 997 00b6 9BB2     		uxth	r3, r3
 998 00b8 013B     		subs	r3, r3, #1
 999 00ba 9AB2     		uxth	r2, r3
 1000 00bc FB68     		ldr	r3, [r7, #12]
 1001 00be 5A85     		strh	r2, [r3, #42]
 1002              	.L56:
 1003 00c0 3A68     		ldr	r2, [r7]
 1004 00c2 F868     		ldr	r0, [r7, #12]
 1005 00c4 7B69     		ldr	r3, [r7, #20]
 1006 00c6 0093     		str	r3, [sp]
 1007 00c8 1300     		movs	r3, r2
 1008 00ca 0022     		movs	r2, #0
 1009 00cc 0821     		movs	r1, #8
 1010 00ce FFF7FEFF 		bl	I2C_WaitOnFlagUntilTimeout
 1011 00d2 031E     		subs	r3, r0, #0
 1012 00d4 0ED0     		beq	.L57
 1013 00d6 FB68     		ldr	r3, [r7, #12]
 1014 00d8 1B68     		ldr	r3, [r3]
 1015 00da 5A68     		ldr	r2, [r3, #4]
 1016 00dc FB68     		ldr	r3, [r7, #12]
 1017 00de 1B68     		ldr	r3, [r3]
 1018 00e0 8021     		movs	r1, #128
 1019 00e2 0902     		lsls	r1, r1, #8
 1020 00e4 0A43     		orrs	r2, r1
 1021 00e6 5A60     		str	r2, [r3, #4]
 1022 00e8 FB68     		ldr	r3, [r7, #12]
 1023 00ea 1800     		movs	r0, r3
 1024 00ec FFF7FEFF 		bl	I2C_Flush_TXDR
 1025 00f0 0123     		movs	r3, #1
 1026 00f2 E5E0     		b	.L54
 1027              	.L57:
 1028 00f4 FB68     		ldr	r3, [r7, #12]
 1029 00f6 1B68     		ldr	r3, [r3]
 1030 00f8 0822     		movs	r2, #8
 1031 00fa DA61     		str	r2, [r3, #28]
 1032 00fc FB68     		ldr	r3, [r7, #12]
 1033 00fe DB68     		ldr	r3, [r3, #12]
 1034 0100 022B     		cmp	r3, #2
 1035 0102 1DD1     		bne	.L58
 1036 0104 3A68     		ldr	r2, [r7]
 1037 0106 F868     		ldr	r0, [r7, #12]
 1038 0108 7B69     		ldr	r3, [r7, #20]
 1039 010a 0093     		str	r3, [sp]
ARM GAS  /tmp/ccnCrYSN.s 			page 19


 1040 010c 1300     		movs	r3, r2
 1041 010e 0022     		movs	r2, #0
 1042 0110 0821     		movs	r1, #8
 1043 0112 FFF7FEFF 		bl	I2C_WaitOnFlagUntilTimeout
 1044 0116 031E     		subs	r3, r0, #0
 1045 0118 0ED0     		beq	.L59
 1046 011a FB68     		ldr	r3, [r7, #12]
 1047 011c 1B68     		ldr	r3, [r3]
 1048 011e 5A68     		ldr	r2, [r3, #4]
 1049 0120 FB68     		ldr	r3, [r7, #12]
 1050 0122 1B68     		ldr	r3, [r3]
 1051 0124 8021     		movs	r1, #128
 1052 0126 0902     		lsls	r1, r1, #8
 1053 0128 0A43     		orrs	r2, r1
 1054 012a 5A60     		str	r2, [r3, #4]
 1055 012c FB68     		ldr	r3, [r7, #12]
 1056 012e 1800     		movs	r0, r3
 1057 0130 FFF7FEFF 		bl	I2C_Flush_TXDR
 1058 0134 0123     		movs	r3, #1
 1059 0136 C3E0     		b	.L54
 1060              	.L59:
 1061 0138 FB68     		ldr	r3, [r7, #12]
 1062 013a 1B68     		ldr	r3, [r3]
 1063 013c 0822     		movs	r2, #8
 1064 013e DA61     		str	r2, [r3, #28]
 1065              	.L58:
 1066 0140 3A68     		ldr	r2, [r7]
 1067 0142 8023     		movs	r3, #128
 1068 0144 5902     		lsls	r1, r3, #9
 1069 0146 F868     		ldr	r0, [r7, #12]
 1070 0148 7B69     		ldr	r3, [r7, #20]
 1071 014a 0093     		str	r3, [sp]
 1072 014c 1300     		movs	r3, r2
 1073 014e 0022     		movs	r2, #0
 1074 0150 FFF7FEFF 		bl	I2C_WaitOnFlagUntilTimeout
 1075 0154 031E     		subs	r3, r0, #0
 1076 0156 33D0     		beq	.L61
 1077 0158 FB68     		ldr	r3, [r7, #12]
 1078 015a 1B68     		ldr	r3, [r3]
 1079 015c 5A68     		ldr	r2, [r3, #4]
 1080 015e FB68     		ldr	r3, [r7, #12]
 1081 0160 1B68     		ldr	r3, [r3]
 1082 0162 8021     		movs	r1, #128
 1083 0164 0902     		lsls	r1, r1, #8
 1084 0166 0A43     		orrs	r2, r1
 1085 0168 5A60     		str	r2, [r3, #4]
 1086 016a FB68     		ldr	r3, [r7, #12]
 1087 016c 1800     		movs	r0, r3
 1088 016e FFF7FEFF 		bl	I2C_Flush_TXDR
 1089 0172 0123     		movs	r3, #1
 1090 0174 A4E0     		b	.L54
 1091              	.L63:
 1092 0176 7A69     		ldr	r2, [r7, #20]
 1093 0178 3968     		ldr	r1, [r7]
 1094 017a FB68     		ldr	r3, [r7, #12]
 1095 017c 1800     		movs	r0, r3
 1096 017e FFF7FEFF 		bl	I2C_WaitOnTXISFlagUntilTimeout
ARM GAS  /tmp/ccnCrYSN.s 			page 20


 1097 0182 031E     		subs	r3, r0, #0
 1098 0184 0AD0     		beq	.L62
 1099 0186 FB68     		ldr	r3, [r7, #12]
 1100 0188 1B68     		ldr	r3, [r3]
 1101 018a 5A68     		ldr	r2, [r3, #4]
 1102 018c FB68     		ldr	r3, [r7, #12]
 1103 018e 1B68     		ldr	r3, [r3]
 1104 0190 8021     		movs	r1, #128
 1105 0192 0902     		lsls	r1, r1, #8
 1106 0194 0A43     		orrs	r2, r1
 1107 0196 5A60     		str	r2, [r3, #4]
 1108 0198 0123     		movs	r3, #1
 1109 019a 91E0     		b	.L54
 1110              	.L62:
 1111 019c FB68     		ldr	r3, [r7, #12]
 1112 019e 5B6A     		ldr	r3, [r3, #36]
 1113 01a0 1A78     		ldrb	r2, [r3]
 1114 01a2 FB68     		ldr	r3, [r7, #12]
 1115 01a4 1B68     		ldr	r3, [r3]
 1116 01a6 9A62     		str	r2, [r3, #40]
 1117 01a8 FB68     		ldr	r3, [r7, #12]
 1118 01aa 5B6A     		ldr	r3, [r3, #36]
 1119 01ac 5A1C     		adds	r2, r3, #1
 1120 01ae FB68     		ldr	r3, [r7, #12]
 1121 01b0 5A62     		str	r2, [r3, #36]
 1122 01b2 FB68     		ldr	r3, [r7, #12]
 1123 01b4 5B8D     		ldrh	r3, [r3, #42]
 1124 01b6 9BB2     		uxth	r3, r3
 1125 01b8 013B     		subs	r3, r3, #1
 1126 01ba 9AB2     		uxth	r2, r3
 1127 01bc FB68     		ldr	r3, [r7, #12]
 1128 01be 5A85     		strh	r2, [r3, #42]
 1129              	.L61:
 1130 01c0 FB68     		ldr	r3, [r7, #12]
 1131 01c2 5B8D     		ldrh	r3, [r3, #42]
 1132 01c4 9BB2     		uxth	r3, r3
 1133 01c6 002B     		cmp	r3, #0
 1134 01c8 D5D1     		bne	.L63
 1135 01ca 1325     		movs	r5, #19
 1136 01cc 7C19     		adds	r4, r7, r5
 1137 01ce 3A68     		ldr	r2, [r7]
 1138 01d0 F868     		ldr	r0, [r7, #12]
 1139 01d2 7B69     		ldr	r3, [r7, #20]
 1140 01d4 0093     		str	r3, [sp]
 1141 01d6 1300     		movs	r3, r2
 1142 01d8 0022     		movs	r2, #0
 1143 01da 1021     		movs	r1, #16
 1144 01dc FFF7FEFF 		bl	I2C_WaitOnFlagUntilTimeout
 1145 01e0 0300     		movs	r3, r0
 1146 01e2 2370     		strb	r3, [r4]
 1147 01e4 7B19     		adds	r3, r7, r5
 1148 01e6 1B78     		ldrb	r3, [r3]
 1149 01e8 002B     		cmp	r3, #0
 1150 01ea 1BD0     		beq	.L64
 1151 01ec 1021     		movs	r1, #16
 1152 01ee 7B18     		adds	r3, r7, r1
 1153 01f0 FA68     		ldr	r2, [r7, #12]
ARM GAS  /tmp/ccnCrYSN.s 			page 21


 1154 01f2 528D     		ldrh	r2, [r2, #42]
 1155 01f4 1A80     		strh	r2, [r3]
 1156 01f6 FB68     		ldr	r3, [r7, #12]
 1157 01f8 5B6C     		ldr	r3, [r3, #68]
 1158 01fa 042B     		cmp	r3, #4
 1159 01fc 07D1     		bne	.L65
 1160 01fe 7B18     		adds	r3, r7, r1
 1161 0200 1B88     		ldrh	r3, [r3]
 1162 0202 002B     		cmp	r3, #0
 1163 0204 03D1     		bne	.L65
 1164 0206 FB68     		ldr	r3, [r7, #12]
 1165 0208 0022     		movs	r2, #0
 1166 020a 5A64     		str	r2, [r3, #68]
 1167 020c 29E0     		b	.L66
 1168              	.L65:
 1169 020e FB68     		ldr	r3, [r7, #12]
 1170 0210 1B68     		ldr	r3, [r3]
 1171 0212 5A68     		ldr	r2, [r3, #4]
 1172 0214 FB68     		ldr	r3, [r7, #12]
 1173 0216 1B68     		ldr	r3, [r3]
 1174 0218 8021     		movs	r1, #128
 1175 021a 0902     		lsls	r1, r1, #8
 1176 021c 0A43     		orrs	r2, r1
 1177 021e 5A60     		str	r2, [r3, #4]
 1178 0220 0123     		movs	r3, #1
 1179 0222 4DE0     		b	.L54
 1180              	.L64:
 1181 0224 FB68     		ldr	r3, [r7, #12]
 1182 0226 1800     		movs	r0, r3
 1183 0228 FFF7FEFF 		bl	I2C_Flush_TXDR
 1184 022c FB68     		ldr	r3, [r7, #12]
 1185 022e 1B68     		ldr	r3, [r3]
 1186 0230 1022     		movs	r2, #16
 1187 0232 DA61     		str	r2, [r3, #28]
 1188 0234 7A69     		ldr	r2, [r7, #20]
 1189 0236 3968     		ldr	r1, [r7]
 1190 0238 FB68     		ldr	r3, [r7, #12]
 1191 023a 1800     		movs	r0, r3
 1192 023c FFF7FEFF 		bl	I2C_WaitOnSTOPFlagUntilTimeout
 1193 0240 031E     		subs	r3, r0, #0
 1194 0242 0AD0     		beq	.L67
 1195 0244 FB68     		ldr	r3, [r7, #12]
 1196 0246 1B68     		ldr	r3, [r3]
 1197 0248 5A68     		ldr	r2, [r3, #4]
 1198 024a FB68     		ldr	r3, [r7, #12]
 1199 024c 1B68     		ldr	r3, [r3]
 1200 024e 8021     		movs	r1, #128
 1201 0250 0902     		lsls	r1, r1, #8
 1202 0252 0A43     		orrs	r2, r1
 1203 0254 5A60     		str	r2, [r3, #4]
 1204 0256 0123     		movs	r3, #1
 1205 0258 32E0     		b	.L54
 1206              	.L67:
 1207 025a FB68     		ldr	r3, [r7, #12]
 1208 025c 1B68     		ldr	r3, [r3]
 1209 025e 2022     		movs	r2, #32
 1210 0260 DA61     		str	r2, [r3, #28]
ARM GAS  /tmp/ccnCrYSN.s 			page 22


 1211              	.L66:
 1212 0262 3A68     		ldr	r2, [r7]
 1213 0264 8023     		movs	r3, #128
 1214 0266 1902     		lsls	r1, r3, #8
 1215 0268 F868     		ldr	r0, [r7, #12]
 1216 026a 7B69     		ldr	r3, [r7, #20]
 1217 026c 0093     		str	r3, [sp]
 1218 026e 1300     		movs	r3, r2
 1219 0270 0122     		movs	r2, #1
 1220 0272 FFF7FEFF 		bl	I2C_WaitOnFlagUntilTimeout
 1221 0276 031E     		subs	r3, r0, #0
 1222 0278 0AD0     		beq	.L68
 1223 027a FB68     		ldr	r3, [r7, #12]
 1224 027c 1B68     		ldr	r3, [r3]
 1225 027e 5A68     		ldr	r2, [r3, #4]
 1226 0280 FB68     		ldr	r3, [r7, #12]
 1227 0282 1B68     		ldr	r3, [r3]
 1228 0284 8021     		movs	r1, #128
 1229 0286 0902     		lsls	r1, r1, #8
 1230 0288 0A43     		orrs	r2, r1
 1231 028a 5A60     		str	r2, [r3, #4]
 1232 028c 0123     		movs	r3, #1
 1233 028e 17E0     		b	.L54
 1234              	.L68:
 1235 0290 FB68     		ldr	r3, [r7, #12]
 1236 0292 1B68     		ldr	r3, [r3]
 1237 0294 5A68     		ldr	r2, [r3, #4]
 1238 0296 FB68     		ldr	r3, [r7, #12]
 1239 0298 1B68     		ldr	r3, [r3]
 1240 029a 8021     		movs	r1, #128
 1241 029c 0902     		lsls	r1, r1, #8
 1242 029e 0A43     		orrs	r2, r1
 1243 02a0 5A60     		str	r2, [r3, #4]
 1244 02a2 FB68     		ldr	r3, [r7, #12]
 1245 02a4 4122     		movs	r2, #65
 1246 02a6 2021     		movs	r1, #32
 1247 02a8 9954     		strb	r1, [r3, r2]
 1248 02aa FB68     		ldr	r3, [r7, #12]
 1249 02ac 4222     		movs	r2, #66
 1250 02ae 0021     		movs	r1, #0
 1251 02b0 9954     		strb	r1, [r3, r2]
 1252 02b2 FB68     		ldr	r3, [r7, #12]
 1253 02b4 4022     		movs	r2, #64
 1254 02b6 0021     		movs	r1, #0
 1255 02b8 9954     		strb	r1, [r3, r2]
 1256 02ba 0023     		movs	r3, #0
 1257 02bc 00E0     		b	.L54
 1258              	.L51:
 1259 02be 0223     		movs	r3, #2
 1260              	.L54:
 1261 02c0 1800     		movs	r0, r3
 1262 02c2 BD46     		mov	sp, r7
 1263 02c4 06B0     		add	sp, sp, #24
 1264              		@ sp needed
 1265 02c6 B0BD     		pop	{r4, r5, r7, pc}
 1266              	.L70:
 1267              		.align	2
ARM GAS  /tmp/ccnCrYSN.s 			page 23


 1268              	.L69:
 1269 02c8 FF7FFFFF 		.word	-32769
 1271              		.section	.text.HAL_I2C_Slave_Receive,"ax",%progbits
 1272              		.align	1
 1273              		.global	HAL_I2C_Slave_Receive
 1274              		.syntax unified
 1275              		.code	16
 1276              		.thumb_func
 1278              	HAL_I2C_Slave_Receive:
 1279              		@ args = 0, pretend = 0, frame = 24
 1280              		@ frame_needed = 1, uses_anonymous_args = 0
 1281 0000 80B5     		push	{r7, lr}
 1282 0002 88B0     		sub	sp, sp, #32
 1283 0004 02AF     		add	r7, sp, #8
 1284 0006 F860     		str	r0, [r7, #12]
 1285 0008 B960     		str	r1, [r7, #8]
 1286 000a 3B60     		str	r3, [r7]
 1287 000c BB1D     		adds	r3, r7, #6
 1288 000e 1A80     		strh	r2, [r3]
 1289 0010 FB68     		ldr	r3, [r7, #12]
 1290 0012 4122     		movs	r2, #65
 1291 0014 9B5C     		ldrb	r3, [r3, r2]
 1292 0016 DBB2     		uxtb	r3, r3
 1293 0018 202B     		cmp	r3, #32
 1294 001a 00D0     		beq	.LCB1372
 1295 001c 04E1     		b	.L72	@long jump
 1296              	.LCB1372:
 1297 001e BB68     		ldr	r3, [r7, #8]
 1298 0020 002B     		cmp	r3, #0
 1299 0022 03D0     		beq	.L73
 1300 0024 BB1D     		adds	r3, r7, #6
 1301 0026 1B88     		ldrh	r3, [r3]
 1302 0028 002B     		cmp	r3, #0
 1303 002a 05D1     		bne	.L74
 1304              	.L73:
 1305 002c FB68     		ldr	r3, [r7, #12]
 1306 002e 8022     		movs	r2, #128
 1307 0030 9200     		lsls	r2, r2, #2
 1308 0032 5A64     		str	r2, [r3, #68]
 1309 0034 0123     		movs	r3, #1
 1310 0036 F8E0     		b	.L75
 1311              	.L74:
 1312 0038 FB68     		ldr	r3, [r7, #12]
 1313 003a 4022     		movs	r2, #64
 1314 003c 9B5C     		ldrb	r3, [r3, r2]
 1315 003e 012B     		cmp	r3, #1
 1316 0040 01D1     		bne	.L76
 1317 0042 0223     		movs	r3, #2
 1318 0044 F1E0     		b	.L75
 1319              	.L76:
 1320 0046 FB68     		ldr	r3, [r7, #12]
 1321 0048 4022     		movs	r2, #64
 1322 004a 0121     		movs	r1, #1
 1323 004c 9954     		strb	r1, [r3, r2]
 1324 004e FFF7FEFF 		bl	HAL_GetTick
 1325 0052 0300     		movs	r3, r0
 1326 0054 7B61     		str	r3, [r7, #20]
ARM GAS  /tmp/ccnCrYSN.s 			page 24


 1327 0056 FB68     		ldr	r3, [r7, #12]
 1328 0058 4122     		movs	r2, #65
 1329 005a 2221     		movs	r1, #34
 1330 005c 9954     		strb	r1, [r3, r2]
 1331 005e FB68     		ldr	r3, [r7, #12]
 1332 0060 4222     		movs	r2, #66
 1333 0062 2021     		movs	r1, #32
 1334 0064 9954     		strb	r1, [r3, r2]
 1335 0066 FB68     		ldr	r3, [r7, #12]
 1336 0068 0022     		movs	r2, #0
 1337 006a 5A64     		str	r2, [r3, #68]
 1338 006c FB68     		ldr	r3, [r7, #12]
 1339 006e BA68     		ldr	r2, [r7, #8]
 1340 0070 5A62     		str	r2, [r3, #36]
 1341 0072 FB68     		ldr	r3, [r7, #12]
 1342 0074 BA1D     		adds	r2, r7, #6
 1343 0076 1288     		ldrh	r2, [r2]
 1344 0078 5A85     		strh	r2, [r3, #42]
 1345 007a FB68     		ldr	r3, [r7, #12]
 1346 007c 5B8D     		ldrh	r3, [r3, #42]
 1347 007e 9AB2     		uxth	r2, r3
 1348 0080 FB68     		ldr	r3, [r7, #12]
 1349 0082 1A85     		strh	r2, [r3, #40]
 1350 0084 FB68     		ldr	r3, [r7, #12]
 1351 0086 0022     		movs	r2, #0
 1352 0088 5A63     		str	r2, [r3, #52]
 1353 008a FB68     		ldr	r3, [r7, #12]
 1354 008c 1B68     		ldr	r3, [r3]
 1355 008e 5A68     		ldr	r2, [r3, #4]
 1356 0090 FB68     		ldr	r3, [r7, #12]
 1357 0092 1B68     		ldr	r3, [r3]
 1358 0094 6749     		ldr	r1, .L85
 1359 0096 0A40     		ands	r2, r1
 1360 0098 5A60     		str	r2, [r3, #4]
 1361 009a 3A68     		ldr	r2, [r7]
 1362 009c F868     		ldr	r0, [r7, #12]
 1363 009e 7B69     		ldr	r3, [r7, #20]
 1364 00a0 0093     		str	r3, [sp]
 1365 00a2 1300     		movs	r3, r2
 1366 00a4 0022     		movs	r2, #0
 1367 00a6 0821     		movs	r1, #8
 1368 00a8 FFF7FEFF 		bl	I2C_WaitOnFlagUntilTimeout
 1369 00ac 031E     		subs	r3, r0, #0
 1370 00ae 0AD0     		beq	.L77
 1371 00b0 FB68     		ldr	r3, [r7, #12]
 1372 00b2 1B68     		ldr	r3, [r3]
 1373 00b4 5A68     		ldr	r2, [r3, #4]
 1374 00b6 FB68     		ldr	r3, [r7, #12]
 1375 00b8 1B68     		ldr	r3, [r3]
 1376 00ba 8021     		movs	r1, #128
 1377 00bc 0902     		lsls	r1, r1, #8
 1378 00be 0A43     		orrs	r2, r1
 1379 00c0 5A60     		str	r2, [r3, #4]
 1380 00c2 0123     		movs	r3, #1
 1381 00c4 B1E0     		b	.L75
 1382              	.L77:
 1383 00c6 FB68     		ldr	r3, [r7, #12]
ARM GAS  /tmp/ccnCrYSN.s 			page 25


 1384 00c8 1B68     		ldr	r3, [r3]
 1385 00ca 0822     		movs	r2, #8
 1386 00cc DA61     		str	r2, [r3, #28]
 1387 00ce 3A68     		ldr	r2, [r7]
 1388 00d0 8023     		movs	r3, #128
 1389 00d2 5902     		lsls	r1, r3, #9
 1390 00d4 F868     		ldr	r0, [r7, #12]
 1391 00d6 7B69     		ldr	r3, [r7, #20]
 1392 00d8 0093     		str	r3, [sp]
 1393 00da 1300     		movs	r3, r2
 1394 00dc 0122     		movs	r2, #1
 1395 00de FFF7FEFF 		bl	I2C_WaitOnFlagUntilTimeout
 1396 00e2 031E     		subs	r3, r0, #0
 1397 00e4 56D0     		beq	.L79
 1398 00e6 FB68     		ldr	r3, [r7, #12]
 1399 00e8 1B68     		ldr	r3, [r3]
 1400 00ea 5A68     		ldr	r2, [r3, #4]
 1401 00ec FB68     		ldr	r3, [r7, #12]
 1402 00ee 1B68     		ldr	r3, [r3]
 1403 00f0 8021     		movs	r1, #128
 1404 00f2 0902     		lsls	r1, r1, #8
 1405 00f4 0A43     		orrs	r2, r1
 1406 00f6 5A60     		str	r2, [r3, #4]
 1407 00f8 0123     		movs	r3, #1
 1408 00fa 96E0     		b	.L75
 1409              	.L82:
 1410 00fc 7A69     		ldr	r2, [r7, #20]
 1411 00fe 3968     		ldr	r1, [r7]
 1412 0100 FB68     		ldr	r3, [r7, #12]
 1413 0102 1800     		movs	r0, r3
 1414 0104 FFF7FEFF 		bl	I2C_WaitOnRXNEFlagUntilTimeout
 1415 0108 031E     		subs	r3, r0, #0
 1416 010a 2AD0     		beq	.L80
 1417 010c FB68     		ldr	r3, [r7, #12]
 1418 010e 1B68     		ldr	r3, [r3]
 1419 0110 5A68     		ldr	r2, [r3, #4]
 1420 0112 FB68     		ldr	r3, [r7, #12]
 1421 0114 1B68     		ldr	r3, [r3]
 1422 0116 8021     		movs	r1, #128
 1423 0118 0902     		lsls	r1, r1, #8
 1424 011a 0A43     		orrs	r2, r1
 1425 011c 5A60     		str	r2, [r3, #4]
 1426 011e FB68     		ldr	r3, [r7, #12]
 1427 0120 1B68     		ldr	r3, [r3]
 1428 0122 9B69     		ldr	r3, [r3, #24]
 1429 0124 0422     		movs	r2, #4
 1430 0126 1340     		ands	r3, r2
 1431 0128 042B     		cmp	r3, #4
 1432 012a 18D1     		bne	.L81
 1433 012c FB68     		ldr	r3, [r7, #12]
 1434 012e 1B68     		ldr	r3, [r3]
 1435 0130 5A6A     		ldr	r2, [r3, #36]
 1436 0132 FB68     		ldr	r3, [r7, #12]
 1437 0134 5B6A     		ldr	r3, [r3, #36]
 1438 0136 D2B2     		uxtb	r2, r2
 1439 0138 1A70     		strb	r2, [r3]
 1440 013a FB68     		ldr	r3, [r7, #12]
ARM GAS  /tmp/ccnCrYSN.s 			page 26


 1441 013c 5B6A     		ldr	r3, [r3, #36]
 1442 013e 5A1C     		adds	r2, r3, #1
 1443 0140 FB68     		ldr	r3, [r7, #12]
 1444 0142 5A62     		str	r2, [r3, #36]
 1445 0144 FB68     		ldr	r3, [r7, #12]
 1446 0146 5B8D     		ldrh	r3, [r3, #42]
 1447 0148 9BB2     		uxth	r3, r3
 1448 014a 013B     		subs	r3, r3, #1
 1449 014c 9AB2     		uxth	r2, r3
 1450 014e FB68     		ldr	r3, [r7, #12]
 1451 0150 5A85     		strh	r2, [r3, #42]
 1452 0152 FB68     		ldr	r3, [r7, #12]
 1453 0154 1B8D     		ldrh	r3, [r3, #40]
 1454 0156 013B     		subs	r3, r3, #1
 1455 0158 9AB2     		uxth	r2, r3
 1456 015a FB68     		ldr	r3, [r7, #12]
 1457 015c 1A85     		strh	r2, [r3, #40]
 1458              	.L81:
 1459 015e 0123     		movs	r3, #1
 1460 0160 63E0     		b	.L75
 1461              	.L80:
 1462 0162 FB68     		ldr	r3, [r7, #12]
 1463 0164 1B68     		ldr	r3, [r3]
 1464 0166 5A6A     		ldr	r2, [r3, #36]
 1465 0168 FB68     		ldr	r3, [r7, #12]
 1466 016a 5B6A     		ldr	r3, [r3, #36]
 1467 016c D2B2     		uxtb	r2, r2
 1468 016e 1A70     		strb	r2, [r3]
 1469 0170 FB68     		ldr	r3, [r7, #12]
 1470 0172 5B6A     		ldr	r3, [r3, #36]
 1471 0174 5A1C     		adds	r2, r3, #1
 1472 0176 FB68     		ldr	r3, [r7, #12]
 1473 0178 5A62     		str	r2, [r3, #36]
 1474 017a FB68     		ldr	r3, [r7, #12]
 1475 017c 5B8D     		ldrh	r3, [r3, #42]
 1476 017e 9BB2     		uxth	r3, r3
 1477 0180 013B     		subs	r3, r3, #1
 1478 0182 9AB2     		uxth	r2, r3
 1479 0184 FB68     		ldr	r3, [r7, #12]
 1480 0186 5A85     		strh	r2, [r3, #42]
 1481 0188 FB68     		ldr	r3, [r7, #12]
 1482 018a 1B8D     		ldrh	r3, [r3, #40]
 1483 018c 013B     		subs	r3, r3, #1
 1484 018e 9AB2     		uxth	r2, r3
 1485 0190 FB68     		ldr	r3, [r7, #12]
 1486 0192 1A85     		strh	r2, [r3, #40]
 1487              	.L79:
 1488 0194 FB68     		ldr	r3, [r7, #12]
 1489 0196 5B8D     		ldrh	r3, [r3, #42]
 1490 0198 9BB2     		uxth	r3, r3
 1491 019a 002B     		cmp	r3, #0
 1492 019c AED1     		bne	.L82
 1493 019e 7A69     		ldr	r2, [r7, #20]
 1494 01a0 3968     		ldr	r1, [r7]
 1495 01a2 FB68     		ldr	r3, [r7, #12]
 1496 01a4 1800     		movs	r0, r3
 1497 01a6 FFF7FEFF 		bl	I2C_WaitOnSTOPFlagUntilTimeout
ARM GAS  /tmp/ccnCrYSN.s 			page 27


 1498 01aa 031E     		subs	r3, r0, #0
 1499 01ac 0AD0     		beq	.L83
 1500 01ae FB68     		ldr	r3, [r7, #12]
 1501 01b0 1B68     		ldr	r3, [r3]
 1502 01b2 5A68     		ldr	r2, [r3, #4]
 1503 01b4 FB68     		ldr	r3, [r7, #12]
 1504 01b6 1B68     		ldr	r3, [r3]
 1505 01b8 8021     		movs	r1, #128
 1506 01ba 0902     		lsls	r1, r1, #8
 1507 01bc 0A43     		orrs	r2, r1
 1508 01be 5A60     		str	r2, [r3, #4]
 1509 01c0 0123     		movs	r3, #1
 1510 01c2 32E0     		b	.L75
 1511              	.L83:
 1512 01c4 FB68     		ldr	r3, [r7, #12]
 1513 01c6 1B68     		ldr	r3, [r3]
 1514 01c8 2022     		movs	r2, #32
 1515 01ca DA61     		str	r2, [r3, #28]
 1516 01cc 3A68     		ldr	r2, [r7]
 1517 01ce 8023     		movs	r3, #128
 1518 01d0 1902     		lsls	r1, r3, #8
 1519 01d2 F868     		ldr	r0, [r7, #12]
 1520 01d4 7B69     		ldr	r3, [r7, #20]
 1521 01d6 0093     		str	r3, [sp]
 1522 01d8 1300     		movs	r3, r2
 1523 01da 0122     		movs	r2, #1
 1524 01dc FFF7FEFF 		bl	I2C_WaitOnFlagUntilTimeout
 1525 01e0 031E     		subs	r3, r0, #0
 1526 01e2 0AD0     		beq	.L84
 1527 01e4 FB68     		ldr	r3, [r7, #12]
 1528 01e6 1B68     		ldr	r3, [r3]
 1529 01e8 5A68     		ldr	r2, [r3, #4]
 1530 01ea FB68     		ldr	r3, [r7, #12]
 1531 01ec 1B68     		ldr	r3, [r3]
 1532 01ee 8021     		movs	r1, #128
 1533 01f0 0902     		lsls	r1, r1, #8
 1534 01f2 0A43     		orrs	r2, r1
 1535 01f4 5A60     		str	r2, [r3, #4]
 1536 01f6 0123     		movs	r3, #1
 1537 01f8 17E0     		b	.L75
 1538              	.L84:
 1539 01fa FB68     		ldr	r3, [r7, #12]
 1540 01fc 1B68     		ldr	r3, [r3]
 1541 01fe 5A68     		ldr	r2, [r3, #4]
 1542 0200 FB68     		ldr	r3, [r7, #12]
 1543 0202 1B68     		ldr	r3, [r3]
 1544 0204 8021     		movs	r1, #128
 1545 0206 0902     		lsls	r1, r1, #8
 1546 0208 0A43     		orrs	r2, r1
 1547 020a 5A60     		str	r2, [r3, #4]
 1548 020c FB68     		ldr	r3, [r7, #12]
 1549 020e 4122     		movs	r2, #65
 1550 0210 2021     		movs	r1, #32
 1551 0212 9954     		strb	r1, [r3, r2]
 1552 0214 FB68     		ldr	r3, [r7, #12]
 1553 0216 4222     		movs	r2, #66
 1554 0218 0021     		movs	r1, #0
ARM GAS  /tmp/ccnCrYSN.s 			page 28


 1555 021a 9954     		strb	r1, [r3, r2]
 1556 021c FB68     		ldr	r3, [r7, #12]
 1557 021e 4022     		movs	r2, #64
 1558 0220 0021     		movs	r1, #0
 1559 0222 9954     		strb	r1, [r3, r2]
 1560 0224 0023     		movs	r3, #0
 1561 0226 00E0     		b	.L75
 1562              	.L72:
 1563 0228 0223     		movs	r3, #2
 1564              	.L75:
 1565 022a 1800     		movs	r0, r3
 1566 022c BD46     		mov	sp, r7
 1567 022e 06B0     		add	sp, sp, #24
 1568              		@ sp needed
 1569 0230 80BD     		pop	{r7, pc}
 1570              	.L86:
 1571 0232 C046     		.align	2
 1572              	.L85:
 1573 0234 FF7FFFFF 		.word	-32769
 1575              		.section	.text.HAL_I2C_Master_Transmit_IT,"ax",%progbits
 1576              		.align	1
 1577              		.global	HAL_I2C_Master_Transmit_IT
 1578              		.syntax unified
 1579              		.code	16
 1580              		.thumb_func
 1582              	HAL_I2C_Master_Transmit_IT:
 1583              		@ args = 0, pretend = 0, frame = 24
 1584              		@ frame_needed = 1, uses_anonymous_args = 0
 1585 0000 90B5     		push	{r4, r7, lr}
 1586 0002 89B0     		sub	sp, sp, #36
 1587 0004 02AF     		add	r7, sp, #8
 1588 0006 F860     		str	r0, [r7, #12]
 1589 0008 0800     		movs	r0, r1
 1590 000a 7A60     		str	r2, [r7, #4]
 1591 000c 1900     		movs	r1, r3
 1592 000e 0A23     		movs	r3, #10
 1593 0010 FB18     		adds	r3, r7, r3
 1594 0012 021C     		adds	r2, r0, #0
 1595 0014 1A80     		strh	r2, [r3]
 1596 0016 0823     		movs	r3, #8
 1597 0018 FB18     		adds	r3, r7, r3
 1598 001a 0A1C     		adds	r2, r1, #0
 1599 001c 1A80     		strh	r2, [r3]
 1600 001e FB68     		ldr	r3, [r7, #12]
 1601 0020 4122     		movs	r2, #65
 1602 0022 9B5C     		ldrb	r3, [r3, r2]
 1603 0024 DBB2     		uxtb	r3, r3
 1604 0026 202B     		cmp	r3, #32
 1605 0028 00D0     		beq	.LCB1706
 1606 002a 87E0     		b	.L88	@long jump
 1607              	.LCB1706:
 1608 002c FB68     		ldr	r3, [r7, #12]
 1609 002e 1B68     		ldr	r3, [r3]
 1610 0030 9A69     		ldr	r2, [r3, #24]
 1611 0032 8023     		movs	r3, #128
 1612 0034 1B02     		lsls	r3, r3, #8
 1613 0036 1A40     		ands	r2, r3
ARM GAS  /tmp/ccnCrYSN.s 			page 29


 1614 0038 8023     		movs	r3, #128
 1615 003a 1B02     		lsls	r3, r3, #8
 1616 003c 9A42     		cmp	r2, r3
 1617 003e 01D1     		bne	.L89
 1618 0040 0223     		movs	r3, #2
 1619 0042 7CE0     		b	.L90
 1620              	.L89:
 1621 0044 FB68     		ldr	r3, [r7, #12]
 1622 0046 4022     		movs	r2, #64
 1623 0048 9B5C     		ldrb	r3, [r3, r2]
 1624 004a 012B     		cmp	r3, #1
 1625 004c 01D1     		bne	.L91
 1626 004e 0223     		movs	r3, #2
 1627 0050 75E0     		b	.L90
 1628              	.L91:
 1629 0052 FB68     		ldr	r3, [r7, #12]
 1630 0054 4022     		movs	r2, #64
 1631 0056 0121     		movs	r1, #1
 1632 0058 9954     		strb	r1, [r3, r2]
 1633 005a FB68     		ldr	r3, [r7, #12]
 1634 005c 4122     		movs	r2, #65
 1635 005e 2121     		movs	r1, #33
 1636 0060 9954     		strb	r1, [r3, r2]
 1637 0062 FB68     		ldr	r3, [r7, #12]
 1638 0064 4222     		movs	r2, #66
 1639 0066 1021     		movs	r1, #16
 1640 0068 9954     		strb	r1, [r3, r2]
 1641 006a FB68     		ldr	r3, [r7, #12]
 1642 006c 0022     		movs	r2, #0
 1643 006e 5A64     		str	r2, [r3, #68]
 1644 0070 FB68     		ldr	r3, [r7, #12]
 1645 0072 7A68     		ldr	r2, [r7, #4]
 1646 0074 5A62     		str	r2, [r3, #36]
 1647 0076 FB68     		ldr	r3, [r7, #12]
 1648 0078 0822     		movs	r2, #8
 1649 007a BA18     		adds	r2, r7, r2
 1650 007c 1288     		ldrh	r2, [r2]
 1651 007e 5A85     		strh	r2, [r3, #42]
 1652 0080 FB68     		ldr	r3, [r7, #12]
 1653 0082 314A     		ldr	r2, .L96
 1654 0084 DA62     		str	r2, [r3, #44]
 1655 0086 FB68     		ldr	r3, [r7, #12]
 1656 0088 304A     		ldr	r2, .L96+4
 1657 008a 5A63     		str	r2, [r3, #52]
 1658 008c FB68     		ldr	r3, [r7, #12]
 1659 008e 5B8D     		ldrh	r3, [r3, #42]
 1660 0090 9BB2     		uxth	r3, r3
 1661 0092 FF2B     		cmp	r3, #255
 1662 0094 06D9     		bls	.L92
 1663 0096 FB68     		ldr	r3, [r7, #12]
 1664 0098 FF22     		movs	r2, #255
 1665 009a 1A85     		strh	r2, [r3, #40]
 1666 009c 8023     		movs	r3, #128
 1667 009e 5B04     		lsls	r3, r3, #17
 1668 00a0 7B61     		str	r3, [r7, #20]
 1669 00a2 07E0     		b	.L93
 1670              	.L92:
ARM GAS  /tmp/ccnCrYSN.s 			page 30


 1671 00a4 FB68     		ldr	r3, [r7, #12]
 1672 00a6 5B8D     		ldrh	r3, [r3, #42]
 1673 00a8 9AB2     		uxth	r2, r3
 1674 00aa FB68     		ldr	r3, [r7, #12]
 1675 00ac 1A85     		strh	r2, [r3, #40]
 1676 00ae 8023     		movs	r3, #128
 1677 00b0 9B04     		lsls	r3, r3, #18
 1678 00b2 7B61     		str	r3, [r7, #20]
 1679              	.L93:
 1680 00b4 FB68     		ldr	r3, [r7, #12]
 1681 00b6 1B8D     		ldrh	r3, [r3, #40]
 1682 00b8 002B     		cmp	r3, #0
 1683 00ba 27D0     		beq	.L94
 1684 00bc FB68     		ldr	r3, [r7, #12]
 1685 00be 5B6A     		ldr	r3, [r3, #36]
 1686 00c0 1A78     		ldrb	r2, [r3]
 1687 00c2 FB68     		ldr	r3, [r7, #12]
 1688 00c4 1B68     		ldr	r3, [r3]
 1689 00c6 9A62     		str	r2, [r3, #40]
 1690 00c8 FB68     		ldr	r3, [r7, #12]
 1691 00ca 5B6A     		ldr	r3, [r3, #36]
 1692 00cc 5A1C     		adds	r2, r3, #1
 1693 00ce FB68     		ldr	r3, [r7, #12]
 1694 00d0 5A62     		str	r2, [r3, #36]
 1695 00d2 FB68     		ldr	r3, [r7, #12]
 1696 00d4 5B8D     		ldrh	r3, [r3, #42]
 1697 00d6 9BB2     		uxth	r3, r3
 1698 00d8 013B     		subs	r3, r3, #1
 1699 00da 9AB2     		uxth	r2, r3
 1700 00dc FB68     		ldr	r3, [r7, #12]
 1701 00de 5A85     		strh	r2, [r3, #42]
 1702 00e0 FB68     		ldr	r3, [r7, #12]
 1703 00e2 1B8D     		ldrh	r3, [r3, #40]
 1704 00e4 013B     		subs	r3, r3, #1
 1705 00e6 9AB2     		uxth	r2, r3
 1706 00e8 FB68     		ldr	r3, [r7, #12]
 1707 00ea 1A85     		strh	r2, [r3, #40]
 1708 00ec FB68     		ldr	r3, [r7, #12]
 1709 00ee 1B8D     		ldrh	r3, [r3, #40]
 1710 00f0 DBB2     		uxtb	r3, r3
 1711 00f2 0133     		adds	r3, r3, #1
 1712 00f4 DAB2     		uxtb	r2, r3
 1713 00f6 7C69     		ldr	r4, [r7, #20]
 1714 00f8 0A23     		movs	r3, #10
 1715 00fa FB18     		adds	r3, r7, r3
 1716 00fc 1988     		ldrh	r1, [r3]
 1717 00fe F868     		ldr	r0, [r7, #12]
 1718 0100 134B     		ldr	r3, .L96+8
 1719 0102 0093     		str	r3, [sp]
 1720 0104 2300     		movs	r3, r4
 1721 0106 FFF7FEFF 		bl	I2C_TransferConfig
 1722 010a 0CE0     		b	.L95
 1723              	.L94:
 1724 010c FB68     		ldr	r3, [r7, #12]
 1725 010e 1B8D     		ldrh	r3, [r3, #40]
 1726 0110 DAB2     		uxtb	r2, r3
 1727 0112 7C69     		ldr	r4, [r7, #20]
ARM GAS  /tmp/ccnCrYSN.s 			page 31


 1728 0114 0A23     		movs	r3, #10
 1729 0116 FB18     		adds	r3, r7, r3
 1730 0118 1988     		ldrh	r1, [r3]
 1731 011a F868     		ldr	r0, [r7, #12]
 1732 011c 0C4B     		ldr	r3, .L96+8
 1733 011e 0093     		str	r3, [sp]
 1734 0120 2300     		movs	r3, r4
 1735 0122 FFF7FEFF 		bl	I2C_TransferConfig
 1736              	.L95:
 1737 0126 FB68     		ldr	r3, [r7, #12]
 1738 0128 4022     		movs	r2, #64
 1739 012a 0021     		movs	r1, #0
 1740 012c 9954     		strb	r1, [r3, r2]
 1741 012e FB68     		ldr	r3, [r7, #12]
 1742 0130 0121     		movs	r1, #1
 1743 0132 1800     		movs	r0, r3
 1744 0134 FFF7FEFF 		bl	I2C_Enable_IRQ
 1745 0138 0023     		movs	r3, #0
 1746 013a 00E0     		b	.L90
 1747              	.L88:
 1748 013c 0223     		movs	r3, #2
 1749              	.L90:
 1750 013e 1800     		movs	r0, r3
 1751 0140 BD46     		mov	sp, r7
 1752 0142 07B0     		add	sp, sp, #28
 1753              		@ sp needed
 1754 0144 90BD     		pop	{r4, r7, pc}
 1755              	.L97:
 1756 0146 C046     		.align	2
 1757              	.L96:
 1758 0148 0000FFFF 		.word	-65536
 1759 014c 00000000 		.word	I2C_Master_ISR_IT
 1760 0150 00200080 		.word	-2147475456
 1762              		.section	.text.HAL_I2C_Master_Receive_IT,"ax",%progbits
 1763              		.align	1
 1764              		.global	HAL_I2C_Master_Receive_IT
 1765              		.syntax unified
 1766              		.code	16
 1767              		.thumb_func
 1769              	HAL_I2C_Master_Receive_IT:
 1770              		@ args = 0, pretend = 0, frame = 24
 1771              		@ frame_needed = 1, uses_anonymous_args = 0
 1772 0000 90B5     		push	{r4, r7, lr}
 1773 0002 89B0     		sub	sp, sp, #36
 1774 0004 02AF     		add	r7, sp, #8
 1775 0006 F860     		str	r0, [r7, #12]
 1776 0008 0800     		movs	r0, r1
 1777 000a 7A60     		str	r2, [r7, #4]
 1778 000c 1900     		movs	r1, r3
 1779 000e 0A23     		movs	r3, #10
 1780 0010 FB18     		adds	r3, r7, r3
 1781 0012 021C     		adds	r2, r0, #0
 1782 0014 1A80     		strh	r2, [r3]
 1783 0016 0823     		movs	r3, #8
 1784 0018 FB18     		adds	r3, r7, r3
 1785 001a 0A1C     		adds	r2, r1, #0
 1786 001c 1A80     		strh	r2, [r3]
ARM GAS  /tmp/ccnCrYSN.s 			page 32


 1787 001e FB68     		ldr	r3, [r7, #12]
 1788 0020 4122     		movs	r2, #65
 1789 0022 9B5C     		ldrb	r3, [r3, r2]
 1790 0024 DBB2     		uxtb	r3, r3
 1791 0026 202B     		cmp	r3, #32
 1792 0028 5BD1     		bne	.L99
 1793 002a FB68     		ldr	r3, [r7, #12]
 1794 002c 1B68     		ldr	r3, [r3]
 1795 002e 9A69     		ldr	r2, [r3, #24]
 1796 0030 8023     		movs	r3, #128
 1797 0032 1B02     		lsls	r3, r3, #8
 1798 0034 1A40     		ands	r2, r3
 1799 0036 8023     		movs	r3, #128
 1800 0038 1B02     		lsls	r3, r3, #8
 1801 003a 9A42     		cmp	r2, r3
 1802 003c 01D1     		bne	.L100
 1803 003e 0223     		movs	r3, #2
 1804 0040 50E0     		b	.L101
 1805              	.L100:
 1806 0042 FB68     		ldr	r3, [r7, #12]
 1807 0044 4022     		movs	r2, #64
 1808 0046 9B5C     		ldrb	r3, [r3, r2]
 1809 0048 012B     		cmp	r3, #1
 1810 004a 01D1     		bne	.L102
 1811 004c 0223     		movs	r3, #2
 1812 004e 49E0     		b	.L101
 1813              	.L102:
 1814 0050 FB68     		ldr	r3, [r7, #12]
 1815 0052 4022     		movs	r2, #64
 1816 0054 0121     		movs	r1, #1
 1817 0056 9954     		strb	r1, [r3, r2]
 1818 0058 FB68     		ldr	r3, [r7, #12]
 1819 005a 4122     		movs	r2, #65
 1820 005c 2221     		movs	r1, #34
 1821 005e 9954     		strb	r1, [r3, r2]
 1822 0060 FB68     		ldr	r3, [r7, #12]
 1823 0062 4222     		movs	r2, #66
 1824 0064 1021     		movs	r1, #16
 1825 0066 9954     		strb	r1, [r3, r2]
 1826 0068 FB68     		ldr	r3, [r7, #12]
 1827 006a 0022     		movs	r2, #0
 1828 006c 5A64     		str	r2, [r3, #68]
 1829 006e FB68     		ldr	r3, [r7, #12]
 1830 0070 7A68     		ldr	r2, [r7, #4]
 1831 0072 5A62     		str	r2, [r3, #36]
 1832 0074 FB68     		ldr	r3, [r7, #12]
 1833 0076 0822     		movs	r2, #8
 1834 0078 BA18     		adds	r2, r7, r2
 1835 007a 1288     		ldrh	r2, [r2]
 1836 007c 5A85     		strh	r2, [r3, #42]
 1837 007e FB68     		ldr	r3, [r7, #12]
 1838 0080 1A4A     		ldr	r2, .L105
 1839 0082 DA62     		str	r2, [r3, #44]
 1840 0084 FB68     		ldr	r3, [r7, #12]
 1841 0086 1A4A     		ldr	r2, .L105+4
 1842 0088 5A63     		str	r2, [r3, #52]
 1843 008a FB68     		ldr	r3, [r7, #12]
ARM GAS  /tmp/ccnCrYSN.s 			page 33


 1844 008c 5B8D     		ldrh	r3, [r3, #42]
 1845 008e 9BB2     		uxth	r3, r3
 1846 0090 FF2B     		cmp	r3, #255
 1847 0092 06D9     		bls	.L103
 1848 0094 FB68     		ldr	r3, [r7, #12]
 1849 0096 0122     		movs	r2, #1
 1850 0098 1A85     		strh	r2, [r3, #40]
 1851 009a 8023     		movs	r3, #128
 1852 009c 5B04     		lsls	r3, r3, #17
 1853 009e 7B61     		str	r3, [r7, #20]
 1854 00a0 07E0     		b	.L104
 1855              	.L103:
 1856 00a2 FB68     		ldr	r3, [r7, #12]
 1857 00a4 5B8D     		ldrh	r3, [r3, #42]
 1858 00a6 9AB2     		uxth	r2, r3
 1859 00a8 FB68     		ldr	r3, [r7, #12]
 1860 00aa 1A85     		strh	r2, [r3, #40]
 1861 00ac 8023     		movs	r3, #128
 1862 00ae 9B04     		lsls	r3, r3, #18
 1863 00b0 7B61     		str	r3, [r7, #20]
 1864              	.L104:
 1865 00b2 FB68     		ldr	r3, [r7, #12]
 1866 00b4 1B8D     		ldrh	r3, [r3, #40]
 1867 00b6 DAB2     		uxtb	r2, r3
 1868 00b8 7C69     		ldr	r4, [r7, #20]
 1869 00ba 0A23     		movs	r3, #10
 1870 00bc FB18     		adds	r3, r7, r3
 1871 00be 1988     		ldrh	r1, [r3]
 1872 00c0 F868     		ldr	r0, [r7, #12]
 1873 00c2 0C4B     		ldr	r3, .L105+8
 1874 00c4 0093     		str	r3, [sp]
 1875 00c6 2300     		movs	r3, r4
 1876 00c8 FFF7FEFF 		bl	I2C_TransferConfig
 1877 00cc FB68     		ldr	r3, [r7, #12]
 1878 00ce 4022     		movs	r2, #64
 1879 00d0 0021     		movs	r1, #0
 1880 00d2 9954     		strb	r1, [r3, r2]
 1881 00d4 FB68     		ldr	r3, [r7, #12]
 1882 00d6 0221     		movs	r1, #2
 1883 00d8 1800     		movs	r0, r3
 1884 00da FFF7FEFF 		bl	I2C_Enable_IRQ
 1885 00de 0023     		movs	r3, #0
 1886 00e0 00E0     		b	.L101
 1887              	.L99:
 1888 00e2 0223     		movs	r3, #2
 1889              	.L101:
 1890 00e4 1800     		movs	r0, r3
 1891 00e6 BD46     		mov	sp, r7
 1892 00e8 07B0     		add	sp, sp, #28
 1893              		@ sp needed
 1894 00ea 90BD     		pop	{r4, r7, pc}
 1895              	.L106:
 1896              		.align	2
 1897              	.L105:
 1898 00ec 0000FFFF 		.word	-65536
 1899 00f0 00000000 		.word	I2C_Master_ISR_IT
 1900 00f4 00240080 		.word	-2147474432
ARM GAS  /tmp/ccnCrYSN.s 			page 34


 1902              		.section	.text.HAL_I2C_Slave_Transmit_IT,"ax",%progbits
 1903              		.align	1
 1904              		.global	HAL_I2C_Slave_Transmit_IT
 1905              		.syntax unified
 1906              		.code	16
 1907              		.thumb_func
 1909              	HAL_I2C_Slave_Transmit_IT:
 1910              		@ args = 0, pretend = 0, frame = 16
 1911              		@ frame_needed = 1, uses_anonymous_args = 0
 1912 0000 80B5     		push	{r7, lr}
 1913 0002 84B0     		sub	sp, sp, #16
 1914 0004 00AF     		add	r7, sp, #0
 1915 0006 F860     		str	r0, [r7, #12]
 1916 0008 B960     		str	r1, [r7, #8]
 1917 000a BB1D     		adds	r3, r7, #6
 1918 000c 1A80     		strh	r2, [r3]
 1919 000e FB68     		ldr	r3, [r7, #12]
 1920 0010 4122     		movs	r2, #65
 1921 0012 9B5C     		ldrb	r3, [r3, r2]
 1922 0014 DBB2     		uxtb	r3, r3
 1923 0016 202B     		cmp	r3, #32
 1924 0018 59D1     		bne	.L108
 1925 001a FB68     		ldr	r3, [r7, #12]
 1926 001c 4022     		movs	r2, #64
 1927 001e 9B5C     		ldrb	r3, [r3, r2]
 1928 0020 012B     		cmp	r3, #1
 1929 0022 01D1     		bne	.L109
 1930 0024 0223     		movs	r3, #2
 1931 0026 53E0     		b	.L110
 1932              	.L109:
 1933 0028 FB68     		ldr	r3, [r7, #12]
 1934 002a 4022     		movs	r2, #64
 1935 002c 0121     		movs	r1, #1
 1936 002e 9954     		strb	r1, [r3, r2]
 1937 0030 FB68     		ldr	r3, [r7, #12]
 1938 0032 4122     		movs	r2, #65
 1939 0034 2121     		movs	r1, #33
 1940 0036 9954     		strb	r1, [r3, r2]
 1941 0038 FB68     		ldr	r3, [r7, #12]
 1942 003a 4222     		movs	r2, #66
 1943 003c 2021     		movs	r1, #32
 1944 003e 9954     		strb	r1, [r3, r2]
 1945 0040 FB68     		ldr	r3, [r7, #12]
 1946 0042 0022     		movs	r2, #0
 1947 0044 5A64     		str	r2, [r3, #68]
 1948 0046 FB68     		ldr	r3, [r7, #12]
 1949 0048 1B68     		ldr	r3, [r3]
 1950 004a 5A68     		ldr	r2, [r3, #4]
 1951 004c FB68     		ldr	r3, [r7, #12]
 1952 004e 1B68     		ldr	r3, [r3]
 1953 0050 2149     		ldr	r1, .L112
 1954 0052 0A40     		ands	r2, r1
 1955 0054 5A60     		str	r2, [r3, #4]
 1956 0056 FB68     		ldr	r3, [r7, #12]
 1957 0058 BA68     		ldr	r2, [r7, #8]
 1958 005a 5A62     		str	r2, [r3, #36]
 1959 005c FB68     		ldr	r3, [r7, #12]
ARM GAS  /tmp/ccnCrYSN.s 			page 35


 1960 005e BA1D     		adds	r2, r7, #6
 1961 0060 1288     		ldrh	r2, [r2]
 1962 0062 5A85     		strh	r2, [r3, #42]
 1963 0064 FB68     		ldr	r3, [r7, #12]
 1964 0066 5B8D     		ldrh	r3, [r3, #42]
 1965 0068 9AB2     		uxth	r2, r3
 1966 006a FB68     		ldr	r3, [r7, #12]
 1967 006c 1A85     		strh	r2, [r3, #40]
 1968 006e FB68     		ldr	r3, [r7, #12]
 1969 0070 1A4A     		ldr	r2, .L112+4
 1970 0072 DA62     		str	r2, [r3, #44]
 1971 0074 FB68     		ldr	r3, [r7, #12]
 1972 0076 1A4A     		ldr	r2, .L112+8
 1973 0078 5A63     		str	r2, [r3, #52]
 1974 007a FB68     		ldr	r3, [r7, #12]
 1975 007c 1A6A     		ldr	r2, [r3, #32]
 1976 007e 8023     		movs	r3, #128
 1977 0080 9B02     		lsls	r3, r3, #10
 1978 0082 9A42     		cmp	r2, r3
 1979 0084 17D1     		bne	.L111
 1980 0086 FB68     		ldr	r3, [r7, #12]
 1981 0088 5B6A     		ldr	r3, [r3, #36]
 1982 008a 1A78     		ldrb	r2, [r3]
 1983 008c FB68     		ldr	r3, [r7, #12]
 1984 008e 1B68     		ldr	r3, [r3]
 1985 0090 9A62     		str	r2, [r3, #40]
 1986 0092 FB68     		ldr	r3, [r7, #12]
 1987 0094 5B6A     		ldr	r3, [r3, #36]
 1988 0096 5A1C     		adds	r2, r3, #1
 1989 0098 FB68     		ldr	r3, [r7, #12]
 1990 009a 5A62     		str	r2, [r3, #36]
 1991 009c FB68     		ldr	r3, [r7, #12]
 1992 009e 5B8D     		ldrh	r3, [r3, #42]
 1993 00a0 9BB2     		uxth	r3, r3
 1994 00a2 013B     		subs	r3, r3, #1
 1995 00a4 9AB2     		uxth	r2, r3
 1996 00a6 FB68     		ldr	r3, [r7, #12]
 1997 00a8 5A85     		strh	r2, [r3, #42]
 1998 00aa FB68     		ldr	r3, [r7, #12]
 1999 00ac 1B8D     		ldrh	r3, [r3, #40]
 2000 00ae 013B     		subs	r3, r3, #1
 2001 00b0 9AB2     		uxth	r2, r3
 2002 00b2 FB68     		ldr	r3, [r7, #12]
 2003 00b4 1A85     		strh	r2, [r3, #40]
 2004              	.L111:
 2005 00b6 FB68     		ldr	r3, [r7, #12]
 2006 00b8 4022     		movs	r2, #64
 2007 00ba 0021     		movs	r1, #0
 2008 00bc 9954     		strb	r1, [r3, r2]
 2009 00be 094A     		ldr	r2, .L112+12
 2010 00c0 FB68     		ldr	r3, [r7, #12]
 2011 00c2 1100     		movs	r1, r2
 2012 00c4 1800     		movs	r0, r3
 2013 00c6 FFF7FEFF 		bl	I2C_Enable_IRQ
 2014 00ca 0023     		movs	r3, #0
 2015 00cc 00E0     		b	.L110
 2016              	.L108:
ARM GAS  /tmp/ccnCrYSN.s 			page 36


 2017 00ce 0223     		movs	r3, #2
 2018              	.L110:
 2019 00d0 1800     		movs	r0, r3
 2020 00d2 BD46     		mov	sp, r7
 2021 00d4 04B0     		add	sp, sp, #16
 2022              		@ sp needed
 2023 00d6 80BD     		pop	{r7, pc}
 2024              	.L113:
 2025              		.align	2
 2026              	.L112:
 2027 00d8 FF7FFFFF 		.word	-32769
 2028 00dc 0000FFFF 		.word	-65536
 2029 00e0 00000000 		.word	I2C_Slave_ISR_IT
 2030 00e4 01800000 		.word	32769
 2032              		.section	.text.HAL_I2C_Slave_Receive_IT,"ax",%progbits
 2033              		.align	1
 2034              		.global	HAL_I2C_Slave_Receive_IT
 2035              		.syntax unified
 2036              		.code	16
 2037              		.thumb_func
 2039              	HAL_I2C_Slave_Receive_IT:
 2040              		@ args = 0, pretend = 0, frame = 16
 2041              		@ frame_needed = 1, uses_anonymous_args = 0
 2042 0000 80B5     		push	{r7, lr}
 2043 0002 84B0     		sub	sp, sp, #16
 2044 0004 00AF     		add	r7, sp, #0
 2045 0006 F860     		str	r0, [r7, #12]
 2046 0008 B960     		str	r1, [r7, #8]
 2047 000a BB1D     		adds	r3, r7, #6
 2048 000c 1A80     		strh	r2, [r3]
 2049 000e FB68     		ldr	r3, [r7, #12]
 2050 0010 4122     		movs	r2, #65
 2051 0012 9B5C     		ldrb	r3, [r3, r2]
 2052 0014 DBB2     		uxtb	r3, r3
 2053 0016 202B     		cmp	r3, #32
 2054 0018 3BD1     		bne	.L115
 2055 001a FB68     		ldr	r3, [r7, #12]
 2056 001c 4022     		movs	r2, #64
 2057 001e 9B5C     		ldrb	r3, [r3, r2]
 2058 0020 012B     		cmp	r3, #1
 2059 0022 01D1     		bne	.L116
 2060 0024 0223     		movs	r3, #2
 2061 0026 35E0     		b	.L117
 2062              	.L116:
 2063 0028 FB68     		ldr	r3, [r7, #12]
 2064 002a 4022     		movs	r2, #64
 2065 002c 0121     		movs	r1, #1
 2066 002e 9954     		strb	r1, [r3, r2]
 2067 0030 FB68     		ldr	r3, [r7, #12]
 2068 0032 4122     		movs	r2, #65
 2069 0034 2221     		movs	r1, #34
 2070 0036 9954     		strb	r1, [r3, r2]
 2071 0038 FB68     		ldr	r3, [r7, #12]
 2072 003a 4222     		movs	r2, #66
 2073 003c 2021     		movs	r1, #32
 2074 003e 9954     		strb	r1, [r3, r2]
 2075 0040 FB68     		ldr	r3, [r7, #12]
ARM GAS  /tmp/ccnCrYSN.s 			page 37


 2076 0042 0022     		movs	r2, #0
 2077 0044 5A64     		str	r2, [r3, #68]
 2078 0046 FB68     		ldr	r3, [r7, #12]
 2079 0048 1B68     		ldr	r3, [r3]
 2080 004a 5A68     		ldr	r2, [r3, #4]
 2081 004c FB68     		ldr	r3, [r7, #12]
 2082 004e 1B68     		ldr	r3, [r3]
 2083 0050 1249     		ldr	r1, .L118
 2084 0052 0A40     		ands	r2, r1
 2085 0054 5A60     		str	r2, [r3, #4]
 2086 0056 FB68     		ldr	r3, [r7, #12]
 2087 0058 BA68     		ldr	r2, [r7, #8]
 2088 005a 5A62     		str	r2, [r3, #36]
 2089 005c FB68     		ldr	r3, [r7, #12]
 2090 005e BA1D     		adds	r2, r7, #6
 2091 0060 1288     		ldrh	r2, [r2]
 2092 0062 5A85     		strh	r2, [r3, #42]
 2093 0064 FB68     		ldr	r3, [r7, #12]
 2094 0066 5B8D     		ldrh	r3, [r3, #42]
 2095 0068 9AB2     		uxth	r2, r3
 2096 006a FB68     		ldr	r3, [r7, #12]
 2097 006c 1A85     		strh	r2, [r3, #40]
 2098 006e FB68     		ldr	r3, [r7, #12]
 2099 0070 0B4A     		ldr	r2, .L118+4
 2100 0072 DA62     		str	r2, [r3, #44]
 2101 0074 FB68     		ldr	r3, [r7, #12]
 2102 0076 0B4A     		ldr	r2, .L118+8
 2103 0078 5A63     		str	r2, [r3, #52]
 2104 007a FB68     		ldr	r3, [r7, #12]
 2105 007c 4022     		movs	r2, #64
 2106 007e 0021     		movs	r1, #0
 2107 0080 9954     		strb	r1, [r3, r2]
 2108 0082 094A     		ldr	r2, .L118+12
 2109 0084 FB68     		ldr	r3, [r7, #12]
 2110 0086 1100     		movs	r1, r2
 2111 0088 1800     		movs	r0, r3
 2112 008a FFF7FEFF 		bl	I2C_Enable_IRQ
 2113 008e 0023     		movs	r3, #0
 2114 0090 00E0     		b	.L117
 2115              	.L115:
 2116 0092 0223     		movs	r3, #2
 2117              	.L117:
 2118 0094 1800     		movs	r0, r3
 2119 0096 BD46     		mov	sp, r7
 2120 0098 04B0     		add	sp, sp, #16
 2121              		@ sp needed
 2122 009a 80BD     		pop	{r7, pc}
 2123              	.L119:
 2124              		.align	2
 2125              	.L118:
 2126 009c FF7FFFFF 		.word	-32769
 2127 00a0 0000FFFF 		.word	-65536
 2128 00a4 00000000 		.word	I2C_Slave_ISR_IT
 2129 00a8 02800000 		.word	32770
 2131              		.section	.text.HAL_I2C_Master_Transmit_DMA,"ax",%progbits
 2132              		.align	1
 2133              		.global	HAL_I2C_Master_Transmit_DMA
ARM GAS  /tmp/ccnCrYSN.s 			page 38


 2134              		.syntax unified
 2135              		.code	16
 2136              		.thumb_func
 2138              	HAL_I2C_Master_Transmit_DMA:
 2139              		@ args = 0, pretend = 0, frame = 32
 2140              		@ frame_needed = 1, uses_anonymous_args = 0
 2141 0000 B0B5     		push	{r4, r5, r7, lr}
 2142 0002 8AB0     		sub	sp, sp, #40
 2143 0004 02AF     		add	r7, sp, #8
 2144 0006 F860     		str	r0, [r7, #12]
 2145 0008 0800     		movs	r0, r1
 2146 000a 7A60     		str	r2, [r7, #4]
 2147 000c 1900     		movs	r1, r3
 2148 000e 0A23     		movs	r3, #10
 2149 0010 FB18     		adds	r3, r7, r3
 2150 0012 021C     		adds	r2, r0, #0
 2151 0014 1A80     		strh	r2, [r3]
 2152 0016 0823     		movs	r3, #8
 2153 0018 FB18     		adds	r3, r7, r3
 2154 001a 0A1C     		adds	r2, r1, #0
 2155 001c 1A80     		strh	r2, [r3]
 2156 001e 0023     		movs	r3, #0
 2157 0020 BB61     		str	r3, [r7, #24]
 2158 0022 FB68     		ldr	r3, [r7, #12]
 2159 0024 4122     		movs	r2, #65
 2160 0026 9B5C     		ldrb	r3, [r3, r2]
 2161 0028 DBB2     		uxtb	r3, r3
 2162 002a 202B     		cmp	r3, #32
 2163 002c 00D0     		beq	.LCB2302
 2164 002e FFE0     		b	.L121	@long jump
 2165              	.LCB2302:
 2166 0030 FB68     		ldr	r3, [r7, #12]
 2167 0032 1B68     		ldr	r3, [r3]
 2168 0034 9A69     		ldr	r2, [r3, #24]
 2169 0036 8023     		movs	r3, #128
 2170 0038 1B02     		lsls	r3, r3, #8
 2171 003a 1A40     		ands	r2, r3
 2172 003c 8023     		movs	r3, #128
 2173 003e 1B02     		lsls	r3, r3, #8
 2174 0040 9A42     		cmp	r2, r3
 2175 0042 01D1     		bne	.L122
 2176 0044 0223     		movs	r3, #2
 2177 0046 F4E0     		b	.L123
 2178              	.L122:
 2179 0048 FB68     		ldr	r3, [r7, #12]
 2180 004a 4022     		movs	r2, #64
 2181 004c 9B5C     		ldrb	r3, [r3, r2]
 2182 004e 012B     		cmp	r3, #1
 2183 0050 01D1     		bne	.L124
 2184 0052 0223     		movs	r3, #2
 2185 0054 EDE0     		b	.L123
 2186              	.L124:
 2187 0056 FB68     		ldr	r3, [r7, #12]
 2188 0058 4022     		movs	r2, #64
 2189 005a 0121     		movs	r1, #1
 2190 005c 9954     		strb	r1, [r3, r2]
 2191 005e FB68     		ldr	r3, [r7, #12]
ARM GAS  /tmp/ccnCrYSN.s 			page 39


 2192 0060 4122     		movs	r2, #65
 2193 0062 2121     		movs	r1, #33
 2194 0064 9954     		strb	r1, [r3, r2]
 2195 0066 FB68     		ldr	r3, [r7, #12]
 2196 0068 4222     		movs	r2, #66
 2197 006a 1021     		movs	r1, #16
 2198 006c 9954     		strb	r1, [r3, r2]
 2199 006e FB68     		ldr	r3, [r7, #12]
 2200 0070 0022     		movs	r2, #0
 2201 0072 5A64     		str	r2, [r3, #68]
 2202 0074 FB68     		ldr	r3, [r7, #12]
 2203 0076 7A68     		ldr	r2, [r7, #4]
 2204 0078 5A62     		str	r2, [r3, #36]
 2205 007a FB68     		ldr	r3, [r7, #12]
 2206 007c 0822     		movs	r2, #8
 2207 007e BA18     		adds	r2, r7, r2
 2208 0080 1288     		ldrh	r2, [r2]
 2209 0082 5A85     		strh	r2, [r3, #42]
 2210 0084 FB68     		ldr	r3, [r7, #12]
 2211 0086 6D4A     		ldr	r2, .L134
 2212 0088 DA62     		str	r2, [r3, #44]
 2213 008a FB68     		ldr	r3, [r7, #12]
 2214 008c 6C4A     		ldr	r2, .L134+4
 2215 008e 5A63     		str	r2, [r3, #52]
 2216 0090 FB68     		ldr	r3, [r7, #12]
 2217 0092 5B8D     		ldrh	r3, [r3, #42]
 2218 0094 9BB2     		uxth	r3, r3
 2219 0096 FF2B     		cmp	r3, #255
 2220 0098 06D9     		bls	.L125
 2221 009a FB68     		ldr	r3, [r7, #12]
 2222 009c FF22     		movs	r2, #255
 2223 009e 1A85     		strh	r2, [r3, #40]
 2224 00a0 8023     		movs	r3, #128
 2225 00a2 5B04     		lsls	r3, r3, #17
 2226 00a4 FB61     		str	r3, [r7, #28]
 2227 00a6 07E0     		b	.L126
 2228              	.L125:
 2229 00a8 FB68     		ldr	r3, [r7, #12]
 2230 00aa 5B8D     		ldrh	r3, [r3, #42]
 2231 00ac 9AB2     		uxth	r2, r3
 2232 00ae FB68     		ldr	r3, [r7, #12]
 2233 00b0 1A85     		strh	r2, [r3, #40]
 2234 00b2 8023     		movs	r3, #128
 2235 00b4 9B04     		lsls	r3, r3, #18
 2236 00b6 FB61     		str	r3, [r7, #28]
 2237              	.L126:
 2238 00b8 FB68     		ldr	r3, [r7, #12]
 2239 00ba 1B8D     		ldrh	r3, [r3, #40]
 2240 00bc 002B     		cmp	r3, #0
 2241 00be 1AD0     		beq	.L127
 2242 00c0 FB68     		ldr	r3, [r7, #12]
 2243 00c2 5B6A     		ldr	r3, [r3, #36]
 2244 00c4 1A78     		ldrb	r2, [r3]
 2245 00c6 FB68     		ldr	r3, [r7, #12]
 2246 00c8 1B68     		ldr	r3, [r3]
 2247 00ca 9A62     		str	r2, [r3, #40]
 2248 00cc FB68     		ldr	r3, [r7, #12]
ARM GAS  /tmp/ccnCrYSN.s 			page 40


 2249 00ce 5B6A     		ldr	r3, [r3, #36]
 2250 00d0 5A1C     		adds	r2, r3, #1
 2251 00d2 FB68     		ldr	r3, [r7, #12]
 2252 00d4 5A62     		str	r2, [r3, #36]
 2253 00d6 FB68     		ldr	r3, [r7, #12]
 2254 00d8 1B8D     		ldrh	r3, [r3, #40]
 2255 00da BB61     		str	r3, [r7, #24]
 2256 00dc FB68     		ldr	r3, [r7, #12]
 2257 00de 5B8D     		ldrh	r3, [r3, #42]
 2258 00e0 9BB2     		uxth	r3, r3
 2259 00e2 013B     		subs	r3, r3, #1
 2260 00e4 9AB2     		uxth	r2, r3
 2261 00e6 FB68     		ldr	r3, [r7, #12]
 2262 00e8 5A85     		strh	r2, [r3, #42]
 2263 00ea FB68     		ldr	r3, [r7, #12]
 2264 00ec 1B8D     		ldrh	r3, [r3, #40]
 2265 00ee 013B     		subs	r3, r3, #1
 2266 00f0 9AB2     		uxth	r2, r3
 2267 00f2 FB68     		ldr	r3, [r7, #12]
 2268 00f4 1A85     		strh	r2, [r3, #40]
 2269              	.L127:
 2270 00f6 FB68     		ldr	r3, [r7, #12]
 2271 00f8 1B8D     		ldrh	r3, [r3, #40]
 2272 00fa 002B     		cmp	r3, #0
 2273 00fc 00D1     		bne	.LCB2418
 2274 00fe 7CE0     		b	.L128	@long jump
 2275              	.LCB2418:
 2276 0100 FB68     		ldr	r3, [r7, #12]
 2277 0102 9B6B     		ldr	r3, [r3, #56]
 2278 0104 002B     		cmp	r3, #0
 2279 0106 25D0     		beq	.L129
 2280 0108 FB68     		ldr	r3, [r7, #12]
 2281 010a 9B6B     		ldr	r3, [r3, #56]
 2282 010c 4D4A     		ldr	r2, .L134+8
 2283 010e 9A62     		str	r2, [r3, #40]
 2284 0110 FB68     		ldr	r3, [r7, #12]
 2285 0112 9B6B     		ldr	r3, [r3, #56]
 2286 0114 4C4A     		ldr	r2, .L134+12
 2287 0116 1A63     		str	r2, [r3, #48]
 2288 0118 FB68     		ldr	r3, [r7, #12]
 2289 011a 9B6B     		ldr	r3, [r3, #56]
 2290 011c 0022     		movs	r2, #0
 2291 011e DA62     		str	r2, [r3, #44]
 2292 0120 FB68     		ldr	r3, [r7, #12]
 2293 0122 9B6B     		ldr	r3, [r3, #56]
 2294 0124 0022     		movs	r2, #0
 2295 0126 5A63     		str	r2, [r3, #52]
 2296 0128 FB68     		ldr	r3, [r7, #12]
 2297 012a 986B     		ldr	r0, [r3, #56]
 2298 012c FB68     		ldr	r3, [r7, #12]
 2299 012e 5B6A     		ldr	r3, [r3, #36]
 2300 0130 1900     		movs	r1, r3
 2301 0132 FB68     		ldr	r3, [r7, #12]
 2302 0134 1B68     		ldr	r3, [r3]
 2303 0136 2833     		adds	r3, r3, #40
 2304 0138 1A00     		movs	r2, r3
 2305 013a FB68     		ldr	r3, [r7, #12]
ARM GAS  /tmp/ccnCrYSN.s 			page 41


 2306 013c 1B8D     		ldrh	r3, [r3, #40]
 2307 013e 1725     		movs	r5, #23
 2308 0140 7C19     		adds	r4, r7, r5
 2309 0142 FFF7FEFF 		bl	HAL_DMA_Start_IT
 2310 0146 0300     		movs	r3, r0
 2311 0148 2370     		strb	r3, [r4]
 2312 014a 7B19     		adds	r3, r7, r5
 2313 014c 1B78     		ldrb	r3, [r3]
 2314 014e 002B     		cmp	r3, #0
 2315 0150 3FD1     		bne	.L131
 2316 0152 13E0     		b	.L133
 2317              	.L129:
 2318 0154 FB68     		ldr	r3, [r7, #12]
 2319 0156 4122     		movs	r2, #65
 2320 0158 2021     		movs	r1, #32
 2321 015a 9954     		strb	r1, [r3, r2]
 2322 015c FB68     		ldr	r3, [r7, #12]
 2323 015e 4222     		movs	r2, #66
 2324 0160 0021     		movs	r1, #0
 2325 0162 9954     		strb	r1, [r3, r2]
 2326 0164 FB68     		ldr	r3, [r7, #12]
 2327 0166 5B6C     		ldr	r3, [r3, #68]
 2328 0168 8022     		movs	r2, #128
 2329 016a 1A43     		orrs	r2, r3
 2330 016c FB68     		ldr	r3, [r7, #12]
 2331 016e 5A64     		str	r2, [r3, #68]
 2332 0170 FB68     		ldr	r3, [r7, #12]
 2333 0172 4022     		movs	r2, #64
 2334 0174 0021     		movs	r1, #0
 2335 0176 9954     		strb	r1, [r3, r2]
 2336 0178 0123     		movs	r3, #1
 2337 017a 5AE0     		b	.L123
 2338              	.L133:
 2339 017c FB68     		ldr	r3, [r7, #12]
 2340 017e 1B8D     		ldrh	r3, [r3, #40]
 2341 0180 DBB2     		uxtb	r3, r3
 2342 0182 0133     		adds	r3, r3, #1
 2343 0184 DAB2     		uxtb	r2, r3
 2344 0186 FC69     		ldr	r4, [r7, #28]
 2345 0188 0A23     		movs	r3, #10
 2346 018a FB18     		adds	r3, r7, r3
 2347 018c 1988     		ldrh	r1, [r3]
 2348 018e F868     		ldr	r0, [r7, #12]
 2349 0190 2E4B     		ldr	r3, .L134+16
 2350 0192 0093     		str	r3, [sp]
 2351 0194 2300     		movs	r3, r4
 2352 0196 FFF7FEFF 		bl	I2C_TransferConfig
 2353 019a FB68     		ldr	r3, [r7, #12]
 2354 019c 5B8D     		ldrh	r3, [r3, #42]
 2355 019e 9AB2     		uxth	r2, r3
 2356 01a0 FB68     		ldr	r3, [r7, #12]
 2357 01a2 1B8D     		ldrh	r3, [r3, #40]
 2358 01a4 D31A     		subs	r3, r2, r3
 2359 01a6 9AB2     		uxth	r2, r3
 2360 01a8 FB68     		ldr	r3, [r7, #12]
 2361 01aa 5A85     		strh	r2, [r3, #42]
 2362 01ac FB68     		ldr	r3, [r7, #12]
ARM GAS  /tmp/ccnCrYSN.s 			page 42


 2363 01ae 4022     		movs	r2, #64
 2364 01b0 0021     		movs	r1, #0
 2365 01b2 9954     		strb	r1, [r3, r2]
 2366 01b4 FB68     		ldr	r3, [r7, #12]
 2367 01b6 1021     		movs	r1, #16
 2368 01b8 1800     		movs	r0, r3
 2369 01ba FFF7FEFF 		bl	I2C_Enable_IRQ
 2370 01be FB68     		ldr	r3, [r7, #12]
 2371 01c0 1B68     		ldr	r3, [r3]
 2372 01c2 1A68     		ldr	r2, [r3]
 2373 01c4 FB68     		ldr	r3, [r7, #12]
 2374 01c6 1B68     		ldr	r3, [r3]
 2375 01c8 8021     		movs	r1, #128
 2376 01ca C901     		lsls	r1, r1, #7
 2377 01cc 0A43     		orrs	r2, r1
 2378 01ce 1A60     		str	r2, [r3]
 2379 01d0 2CE0     		b	.L132
 2380              	.L131:
 2381 01d2 FB68     		ldr	r3, [r7, #12]
 2382 01d4 4122     		movs	r2, #65
 2383 01d6 2021     		movs	r1, #32
 2384 01d8 9954     		strb	r1, [r3, r2]
 2385 01da FB68     		ldr	r3, [r7, #12]
 2386 01dc 4222     		movs	r2, #66
 2387 01de 0021     		movs	r1, #0
 2388 01e0 9954     		strb	r1, [r3, r2]
 2389 01e2 FB68     		ldr	r3, [r7, #12]
 2390 01e4 5B6C     		ldr	r3, [r3, #68]
 2391 01e6 1022     		movs	r2, #16
 2392 01e8 1A43     		orrs	r2, r3
 2393 01ea FB68     		ldr	r3, [r7, #12]
 2394 01ec 5A64     		str	r2, [r3, #68]
 2395 01ee FB68     		ldr	r3, [r7, #12]
 2396 01f0 4022     		movs	r2, #64
 2397 01f2 0021     		movs	r1, #0
 2398 01f4 9954     		strb	r1, [r3, r2]
 2399 01f6 0123     		movs	r3, #1
 2400 01f8 1BE0     		b	.L123
 2401              	.L128:
 2402 01fa FB68     		ldr	r3, [r7, #12]
 2403 01fc 144A     		ldr	r2, .L134+20
 2404 01fe 5A63     		str	r2, [r3, #52]
 2405 0200 BB69     		ldr	r3, [r7, #24]
 2406 0202 DAB2     		uxtb	r2, r3
 2407 0204 8023     		movs	r3, #128
 2408 0206 9C04     		lsls	r4, r3, #18
 2409 0208 0A23     		movs	r3, #10
 2410 020a FB18     		adds	r3, r7, r3
 2411 020c 1988     		ldrh	r1, [r3]
 2412 020e F868     		ldr	r0, [r7, #12]
 2413 0210 0E4B     		ldr	r3, .L134+16
 2414 0212 0093     		str	r3, [sp]
 2415 0214 2300     		movs	r3, r4
 2416 0216 FFF7FEFF 		bl	I2C_TransferConfig
 2417 021a FB68     		ldr	r3, [r7, #12]
 2418 021c 4022     		movs	r2, #64
 2419 021e 0021     		movs	r1, #0
ARM GAS  /tmp/ccnCrYSN.s 			page 43


 2420 0220 9954     		strb	r1, [r3, r2]
 2421 0222 FB68     		ldr	r3, [r7, #12]
 2422 0224 0121     		movs	r1, #1
 2423 0226 1800     		movs	r0, r3
 2424 0228 FFF7FEFF 		bl	I2C_Enable_IRQ
 2425              	.L132:
 2426 022c 0023     		movs	r3, #0
 2427 022e 00E0     		b	.L123
 2428              	.L121:
 2429 0230 0223     		movs	r3, #2
 2430              	.L123:
 2431 0232 1800     		movs	r0, r3
 2432 0234 BD46     		mov	sp, r7
 2433 0236 08B0     		add	sp, sp, #32
 2434              		@ sp needed
 2435 0238 B0BD     		pop	{r4, r5, r7, pc}
 2436              	.L135:
 2437 023a C046     		.align	2
 2438              	.L134:
 2439 023c 0000FFFF 		.word	-65536
 2440 0240 00000000 		.word	I2C_Master_ISR_DMA
 2441 0244 00000000 		.word	I2C_DMAMasterTransmitCplt
 2442 0248 00000000 		.word	I2C_DMAError
 2443 024c 00200080 		.word	-2147475456
 2444 0250 00000000 		.word	I2C_Master_ISR_IT
 2446              		.section	.text.HAL_I2C_Master_Receive_DMA,"ax",%progbits
 2447              		.align	1
 2448              		.global	HAL_I2C_Master_Receive_DMA
 2449              		.syntax unified
 2450              		.code	16
 2451              		.thumb_func
 2453              	HAL_I2C_Master_Receive_DMA:
 2454              		@ args = 0, pretend = 0, frame = 24
 2455              		@ frame_needed = 1, uses_anonymous_args = 0
 2456 0000 B0B5     		push	{r4, r5, r7, lr}
 2457 0002 88B0     		sub	sp, sp, #32
 2458 0004 02AF     		add	r7, sp, #8
 2459 0006 F860     		str	r0, [r7, #12]
 2460 0008 0800     		movs	r0, r1
 2461 000a 7A60     		str	r2, [r7, #4]
 2462 000c 1900     		movs	r1, r3
 2463 000e 0A23     		movs	r3, #10
 2464 0010 FB18     		adds	r3, r7, r3
 2465 0012 021C     		adds	r2, r0, #0
 2466 0014 1A80     		strh	r2, [r3]
 2467 0016 0823     		movs	r3, #8
 2468 0018 FB18     		adds	r3, r7, r3
 2469 001a 0A1C     		adds	r2, r1, #0
 2470 001c 1A80     		strh	r2, [r3]
 2471 001e FB68     		ldr	r3, [r7, #12]
 2472 0020 4122     		movs	r2, #65
 2473 0022 9B5C     		ldrb	r3, [r3, r2]
 2474 0024 DBB2     		uxtb	r3, r3
 2475 0026 202B     		cmp	r3, #32
 2476 0028 00D0     		beq	.LCB2635
 2477 002a DDE0     		b	.L137	@long jump
 2478              	.LCB2635:
ARM GAS  /tmp/ccnCrYSN.s 			page 44


 2479 002c FB68     		ldr	r3, [r7, #12]
 2480 002e 1B68     		ldr	r3, [r3]
 2481 0030 9A69     		ldr	r2, [r3, #24]
 2482 0032 8023     		movs	r3, #128
 2483 0034 1B02     		lsls	r3, r3, #8
 2484 0036 1A40     		ands	r2, r3
 2485 0038 8023     		movs	r3, #128
 2486 003a 1B02     		lsls	r3, r3, #8
 2487 003c 9A42     		cmp	r2, r3
 2488 003e 01D1     		bne	.L138
 2489 0040 0223     		movs	r3, #2
 2490 0042 D2E0     		b	.L139
 2491              	.L138:
 2492 0044 FB68     		ldr	r3, [r7, #12]
 2493 0046 4022     		movs	r2, #64
 2494 0048 9B5C     		ldrb	r3, [r3, r2]
 2495 004a 012B     		cmp	r3, #1
 2496 004c 01D1     		bne	.L140
 2497 004e 0223     		movs	r3, #2
 2498 0050 CBE0     		b	.L139
 2499              	.L140:
 2500 0052 FB68     		ldr	r3, [r7, #12]
 2501 0054 4022     		movs	r2, #64
 2502 0056 0121     		movs	r1, #1
 2503 0058 9954     		strb	r1, [r3, r2]
 2504 005a FB68     		ldr	r3, [r7, #12]
 2505 005c 4122     		movs	r2, #65
 2506 005e 2221     		movs	r1, #34
 2507 0060 9954     		strb	r1, [r3, r2]
 2508 0062 FB68     		ldr	r3, [r7, #12]
 2509 0064 4222     		movs	r2, #66
 2510 0066 1021     		movs	r1, #16
 2511 0068 9954     		strb	r1, [r3, r2]
 2512 006a FB68     		ldr	r3, [r7, #12]
 2513 006c 0022     		movs	r2, #0
 2514 006e 5A64     		str	r2, [r3, #68]
 2515 0070 FB68     		ldr	r3, [r7, #12]
 2516 0072 7A68     		ldr	r2, [r7, #4]
 2517 0074 5A62     		str	r2, [r3, #36]
 2518 0076 FB68     		ldr	r3, [r7, #12]
 2519 0078 0822     		movs	r2, #8
 2520 007a BA18     		adds	r2, r7, r2
 2521 007c 1288     		ldrh	r2, [r2]
 2522 007e 5A85     		strh	r2, [r3, #42]
 2523 0080 FB68     		ldr	r3, [r7, #12]
 2524 0082 5C4A     		ldr	r2, .L149
 2525 0084 DA62     		str	r2, [r3, #44]
 2526 0086 FB68     		ldr	r3, [r7, #12]
 2527 0088 5B4A     		ldr	r2, .L149+4
 2528 008a 5A63     		str	r2, [r3, #52]
 2529 008c FB68     		ldr	r3, [r7, #12]
 2530 008e 5B8D     		ldrh	r3, [r3, #42]
 2531 0090 9BB2     		uxth	r3, r3
 2532 0092 FF2B     		cmp	r3, #255
 2533 0094 06D9     		bls	.L141
 2534 0096 FB68     		ldr	r3, [r7, #12]
 2535 0098 0122     		movs	r2, #1
ARM GAS  /tmp/ccnCrYSN.s 			page 45


 2536 009a 1A85     		strh	r2, [r3, #40]
 2537 009c 8023     		movs	r3, #128
 2538 009e 5B04     		lsls	r3, r3, #17
 2539 00a0 7B61     		str	r3, [r7, #20]
 2540 00a2 07E0     		b	.L142
 2541              	.L141:
 2542 00a4 FB68     		ldr	r3, [r7, #12]
 2543 00a6 5B8D     		ldrh	r3, [r3, #42]
 2544 00a8 9AB2     		uxth	r2, r3
 2545 00aa FB68     		ldr	r3, [r7, #12]
 2546 00ac 1A85     		strh	r2, [r3, #40]
 2547 00ae 8023     		movs	r3, #128
 2548 00b0 9B04     		lsls	r3, r3, #18
 2549 00b2 7B61     		str	r3, [r7, #20]
 2550              	.L142:
 2551 00b4 FB68     		ldr	r3, [r7, #12]
 2552 00b6 1B8D     		ldrh	r3, [r3, #40]
 2553 00b8 002B     		cmp	r3, #0
 2554 00ba 00D1     		bne	.LCB2718
 2555 00bc 78E0     		b	.L143	@long jump
 2556              	.LCB2718:
 2557 00be FB68     		ldr	r3, [r7, #12]
 2558 00c0 DB6B     		ldr	r3, [r3, #60]
 2559 00c2 002B     		cmp	r3, #0
 2560 00c4 23D0     		beq	.L144
 2561 00c6 FB68     		ldr	r3, [r7, #12]
 2562 00c8 DB6B     		ldr	r3, [r3, #60]
 2563 00ca 4C4A     		ldr	r2, .L149+8
 2564 00cc 9A62     		str	r2, [r3, #40]
 2565 00ce FB68     		ldr	r3, [r7, #12]
 2566 00d0 DB6B     		ldr	r3, [r3, #60]
 2567 00d2 4B4A     		ldr	r2, .L149+12
 2568 00d4 1A63     		str	r2, [r3, #48]
 2569 00d6 FB68     		ldr	r3, [r7, #12]
 2570 00d8 DB6B     		ldr	r3, [r3, #60]
 2571 00da 0022     		movs	r2, #0
 2572 00dc DA62     		str	r2, [r3, #44]
 2573 00de FB68     		ldr	r3, [r7, #12]
 2574 00e0 DB6B     		ldr	r3, [r3, #60]
 2575 00e2 0022     		movs	r2, #0
 2576 00e4 5A63     		str	r2, [r3, #52]
 2577 00e6 FB68     		ldr	r3, [r7, #12]
 2578 00e8 D86B     		ldr	r0, [r3, #60]
 2579 00ea FB68     		ldr	r3, [r7, #12]
 2580 00ec 1B68     		ldr	r3, [r3]
 2581 00ee 2433     		adds	r3, r3, #36
 2582 00f0 1900     		movs	r1, r3
 2583 00f2 7A68     		ldr	r2, [r7, #4]
 2584 00f4 FB68     		ldr	r3, [r7, #12]
 2585 00f6 1B8D     		ldrh	r3, [r3, #40]
 2586 00f8 1325     		movs	r5, #19
 2587 00fa 7C19     		adds	r4, r7, r5
 2588 00fc FFF7FEFF 		bl	HAL_DMA_Start_IT
 2589 0100 0300     		movs	r3, r0
 2590 0102 2370     		strb	r3, [r4]
 2591 0104 7B19     		adds	r3, r7, r5
 2592 0106 1B78     		ldrb	r3, [r3]
ARM GAS  /tmp/ccnCrYSN.s 			page 46


 2593 0108 002B     		cmp	r3, #0
 2594 010a 3DD1     		bne	.L146
 2595 010c 13E0     		b	.L148
 2596              	.L144:
 2597 010e FB68     		ldr	r3, [r7, #12]
 2598 0110 4122     		movs	r2, #65
 2599 0112 2021     		movs	r1, #32
 2600 0114 9954     		strb	r1, [r3, r2]
 2601 0116 FB68     		ldr	r3, [r7, #12]
 2602 0118 4222     		movs	r2, #66
 2603 011a 0021     		movs	r1, #0
 2604 011c 9954     		strb	r1, [r3, r2]
 2605 011e FB68     		ldr	r3, [r7, #12]
 2606 0120 5B6C     		ldr	r3, [r3, #68]
 2607 0122 8022     		movs	r2, #128
 2608 0124 1A43     		orrs	r2, r3
 2609 0126 FB68     		ldr	r3, [r7, #12]
 2610 0128 5A64     		str	r2, [r3, #68]
 2611 012a FB68     		ldr	r3, [r7, #12]
 2612 012c 4022     		movs	r2, #64
 2613 012e 0021     		movs	r1, #0
 2614 0130 9954     		strb	r1, [r3, r2]
 2615 0132 0123     		movs	r3, #1
 2616 0134 59E0     		b	.L139
 2617              	.L148:
 2618 0136 FB68     		ldr	r3, [r7, #12]
 2619 0138 1B8D     		ldrh	r3, [r3, #40]
 2620 013a DAB2     		uxtb	r2, r3
 2621 013c 7C69     		ldr	r4, [r7, #20]
 2622 013e 0A23     		movs	r3, #10
 2623 0140 FB18     		adds	r3, r7, r3
 2624 0142 1988     		ldrh	r1, [r3]
 2625 0144 F868     		ldr	r0, [r7, #12]
 2626 0146 2F4B     		ldr	r3, .L149+16
 2627 0148 0093     		str	r3, [sp]
 2628 014a 2300     		movs	r3, r4
 2629 014c FFF7FEFF 		bl	I2C_TransferConfig
 2630 0150 FB68     		ldr	r3, [r7, #12]
 2631 0152 5B8D     		ldrh	r3, [r3, #42]
 2632 0154 9AB2     		uxth	r2, r3
 2633 0156 FB68     		ldr	r3, [r7, #12]
 2634 0158 1B8D     		ldrh	r3, [r3, #40]
 2635 015a D31A     		subs	r3, r2, r3
 2636 015c 9AB2     		uxth	r2, r3
 2637 015e FB68     		ldr	r3, [r7, #12]
 2638 0160 5A85     		strh	r2, [r3, #42]
 2639 0162 FB68     		ldr	r3, [r7, #12]
 2640 0164 4022     		movs	r2, #64
 2641 0166 0021     		movs	r1, #0
 2642 0168 9954     		strb	r1, [r3, r2]
 2643 016a FB68     		ldr	r3, [r7, #12]
 2644 016c 1021     		movs	r1, #16
 2645 016e 1800     		movs	r0, r3
 2646 0170 FFF7FEFF 		bl	I2C_Enable_IRQ
 2647 0174 FB68     		ldr	r3, [r7, #12]
 2648 0176 1B68     		ldr	r3, [r3]
 2649 0178 1A68     		ldr	r2, [r3]
ARM GAS  /tmp/ccnCrYSN.s 			page 47


 2650 017a FB68     		ldr	r3, [r7, #12]
 2651 017c 1B68     		ldr	r3, [r3]
 2652 017e 8021     		movs	r1, #128
 2653 0180 0902     		lsls	r1, r1, #8
 2654 0182 0A43     		orrs	r2, r1
 2655 0184 1A60     		str	r2, [r3]
 2656 0186 2DE0     		b	.L147
 2657              	.L146:
 2658 0188 FB68     		ldr	r3, [r7, #12]
 2659 018a 4122     		movs	r2, #65
 2660 018c 2021     		movs	r1, #32
 2661 018e 9954     		strb	r1, [r3, r2]
 2662 0190 FB68     		ldr	r3, [r7, #12]
 2663 0192 4222     		movs	r2, #66
 2664 0194 0021     		movs	r1, #0
 2665 0196 9954     		strb	r1, [r3, r2]
 2666 0198 FB68     		ldr	r3, [r7, #12]
 2667 019a 5B6C     		ldr	r3, [r3, #68]
 2668 019c 1022     		movs	r2, #16
 2669 019e 1A43     		orrs	r2, r3
 2670 01a0 FB68     		ldr	r3, [r7, #12]
 2671 01a2 5A64     		str	r2, [r3, #68]
 2672 01a4 FB68     		ldr	r3, [r7, #12]
 2673 01a6 4022     		movs	r2, #64
 2674 01a8 0021     		movs	r1, #0
 2675 01aa 9954     		strb	r1, [r3, r2]
 2676 01ac 0123     		movs	r3, #1
 2677 01ae 1CE0     		b	.L139
 2678              	.L143:
 2679 01b0 FB68     		ldr	r3, [r7, #12]
 2680 01b2 154A     		ldr	r2, .L149+20
 2681 01b4 5A63     		str	r2, [r3, #52]
 2682 01b6 FB68     		ldr	r3, [r7, #12]
 2683 01b8 1B8D     		ldrh	r3, [r3, #40]
 2684 01ba DAB2     		uxtb	r2, r3
 2685 01bc 8023     		movs	r3, #128
 2686 01be 9C04     		lsls	r4, r3, #18
 2687 01c0 0A23     		movs	r3, #10
 2688 01c2 FB18     		adds	r3, r7, r3
 2689 01c4 1988     		ldrh	r1, [r3]
 2690 01c6 F868     		ldr	r0, [r7, #12]
 2691 01c8 0E4B     		ldr	r3, .L149+16
 2692 01ca 0093     		str	r3, [sp]
 2693 01cc 2300     		movs	r3, r4
 2694 01ce FFF7FEFF 		bl	I2C_TransferConfig
 2695 01d2 FB68     		ldr	r3, [r7, #12]
 2696 01d4 4022     		movs	r2, #64
 2697 01d6 0021     		movs	r1, #0
 2698 01d8 9954     		strb	r1, [r3, r2]
 2699 01da FB68     		ldr	r3, [r7, #12]
 2700 01dc 0221     		movs	r1, #2
 2701 01de 1800     		movs	r0, r3
 2702 01e0 FFF7FEFF 		bl	I2C_Enable_IRQ
 2703              	.L147:
 2704 01e4 0023     		movs	r3, #0
 2705 01e6 00E0     		b	.L139
 2706              	.L137:
ARM GAS  /tmp/ccnCrYSN.s 			page 48


 2707 01e8 0223     		movs	r3, #2
 2708              	.L139:
 2709 01ea 1800     		movs	r0, r3
 2710 01ec BD46     		mov	sp, r7
 2711 01ee 06B0     		add	sp, sp, #24
 2712              		@ sp needed
 2713 01f0 B0BD     		pop	{r4, r5, r7, pc}
 2714              	.L150:
 2715 01f2 C046     		.align	2
 2716              	.L149:
 2717 01f4 0000FFFF 		.word	-65536
 2718 01f8 00000000 		.word	I2C_Master_ISR_DMA
 2719 01fc 00000000 		.word	I2C_DMAMasterReceiveCplt
 2720 0200 00000000 		.word	I2C_DMAError
 2721 0204 00240080 		.word	-2147474432
 2722 0208 00000000 		.word	I2C_Master_ISR_IT
 2724              		.section	.text.HAL_I2C_Slave_Transmit_DMA,"ax",%progbits
 2725              		.align	1
 2726              		.global	HAL_I2C_Slave_Transmit_DMA
 2727              		.syntax unified
 2728              		.code	16
 2729              		.thumb_func
 2731              	HAL_I2C_Slave_Transmit_DMA:
 2732              		@ args = 0, pretend = 0, frame = 24
 2733              		@ frame_needed = 1, uses_anonymous_args = 0
 2734 0000 B0B5     		push	{r4, r5, r7, lr}
 2735 0002 86B0     		sub	sp, sp, #24
 2736 0004 00AF     		add	r7, sp, #0
 2737 0006 F860     		str	r0, [r7, #12]
 2738 0008 B960     		str	r1, [r7, #8]
 2739 000a BB1D     		adds	r3, r7, #6
 2740 000c 1A80     		strh	r2, [r3]
 2741 000e FB68     		ldr	r3, [r7, #12]
 2742 0010 4122     		movs	r2, #65
 2743 0012 9B5C     		ldrb	r3, [r3, r2]
 2744 0014 DBB2     		uxtb	r3, r3
 2745 0016 202B     		cmp	r3, #32
 2746 0018 00D0     		beq	.LCB2924
 2747 001a DBE0     		b	.L152	@long jump
 2748              	.LCB2924:
 2749 001c BB68     		ldr	r3, [r7, #8]
 2750 001e 002B     		cmp	r3, #0
 2751 0020 03D0     		beq	.L153
 2752 0022 BB1D     		adds	r3, r7, #6
 2753 0024 1B88     		ldrh	r3, [r3]
 2754 0026 002B     		cmp	r3, #0
 2755 0028 05D1     		bne	.L154
 2756              	.L153:
 2757 002a FB68     		ldr	r3, [r7, #12]
 2758 002c 8022     		movs	r2, #128
 2759 002e 9200     		lsls	r2, r2, #2
 2760 0030 5A64     		str	r2, [r3, #68]
 2761 0032 0123     		movs	r3, #1
 2762 0034 CFE0     		b	.L155
 2763              	.L154:
 2764 0036 FB68     		ldr	r3, [r7, #12]
 2765 0038 4022     		movs	r2, #64
ARM GAS  /tmp/ccnCrYSN.s 			page 49


 2766 003a 9B5C     		ldrb	r3, [r3, r2]
 2767 003c 012B     		cmp	r3, #1
 2768 003e 01D1     		bne	.L156
 2769 0040 0223     		movs	r3, #2
 2770 0042 C8E0     		b	.L155
 2771              	.L156:
 2772 0044 FB68     		ldr	r3, [r7, #12]
 2773 0046 4022     		movs	r2, #64
 2774 0048 0121     		movs	r1, #1
 2775 004a 9954     		strb	r1, [r3, r2]
 2776 004c FB68     		ldr	r3, [r7, #12]
 2777 004e 4122     		movs	r2, #65
 2778 0050 2121     		movs	r1, #33
 2779 0052 9954     		strb	r1, [r3, r2]
 2780 0054 FB68     		ldr	r3, [r7, #12]
 2781 0056 4222     		movs	r2, #66
 2782 0058 2021     		movs	r1, #32
 2783 005a 9954     		strb	r1, [r3, r2]
 2784 005c FB68     		ldr	r3, [r7, #12]
 2785 005e 0022     		movs	r2, #0
 2786 0060 5A64     		str	r2, [r3, #68]
 2787 0062 FB68     		ldr	r3, [r7, #12]
 2788 0064 BA68     		ldr	r2, [r7, #8]
 2789 0066 5A62     		str	r2, [r3, #36]
 2790 0068 FB68     		ldr	r3, [r7, #12]
 2791 006a BA1D     		adds	r2, r7, #6
 2792 006c 1288     		ldrh	r2, [r2]
 2793 006e 5A85     		strh	r2, [r3, #42]
 2794 0070 FB68     		ldr	r3, [r7, #12]
 2795 0072 5B8D     		ldrh	r3, [r3, #42]
 2796 0074 9AB2     		uxth	r2, r3
 2797 0076 FB68     		ldr	r3, [r7, #12]
 2798 0078 1A85     		strh	r2, [r3, #40]
 2799 007a FB68     		ldr	r3, [r7, #12]
 2800 007c 584A     		ldr	r2, .L164
 2801 007e DA62     		str	r2, [r3, #44]
 2802 0080 FB68     		ldr	r3, [r7, #12]
 2803 0082 584A     		ldr	r2, .L164+4
 2804 0084 5A63     		str	r2, [r3, #52]
 2805 0086 FB68     		ldr	r3, [r7, #12]
 2806 0088 1A6A     		ldr	r2, [r3, #32]
 2807 008a 8023     		movs	r3, #128
 2808 008c 9B02     		lsls	r3, r3, #10
 2809 008e 9A42     		cmp	r2, r3
 2810 0090 17D1     		bne	.L157
 2811 0092 FB68     		ldr	r3, [r7, #12]
 2812 0094 5B6A     		ldr	r3, [r3, #36]
 2813 0096 1A78     		ldrb	r2, [r3]
 2814 0098 FB68     		ldr	r3, [r7, #12]
 2815 009a 1B68     		ldr	r3, [r3]
 2816 009c 9A62     		str	r2, [r3, #40]
 2817 009e FB68     		ldr	r3, [r7, #12]
 2818 00a0 5B6A     		ldr	r3, [r3, #36]
 2819 00a2 5A1C     		adds	r2, r3, #1
 2820 00a4 FB68     		ldr	r3, [r7, #12]
 2821 00a6 5A62     		str	r2, [r3, #36]
 2822 00a8 FB68     		ldr	r3, [r7, #12]
ARM GAS  /tmp/ccnCrYSN.s 			page 50


 2823 00aa 5B8D     		ldrh	r3, [r3, #42]
 2824 00ac 9BB2     		uxth	r3, r3
 2825 00ae 013B     		subs	r3, r3, #1
 2826 00b0 9AB2     		uxth	r2, r3
 2827 00b2 FB68     		ldr	r3, [r7, #12]
 2828 00b4 5A85     		strh	r2, [r3, #42]
 2829 00b6 FB68     		ldr	r3, [r7, #12]
 2830 00b8 1B8D     		ldrh	r3, [r3, #40]
 2831 00ba 013B     		subs	r3, r3, #1
 2832 00bc 9AB2     		uxth	r2, r3
 2833 00be FB68     		ldr	r3, [r7, #12]
 2834 00c0 1A85     		strh	r2, [r3, #40]
 2835              	.L157:
 2836 00c2 FB68     		ldr	r3, [r7, #12]
 2837 00c4 5B8D     		ldrh	r3, [r3, #42]
 2838 00c6 9BB2     		uxth	r3, r3
 2839 00c8 002B     		cmp	r3, #0
 2840 00ca 6ED0     		beq	.L158
 2841 00cc FB68     		ldr	r3, [r7, #12]
 2842 00ce 9B6B     		ldr	r3, [r3, #56]
 2843 00d0 002B     		cmp	r3, #0
 2844 00d2 25D0     		beq	.L159
 2845 00d4 FB68     		ldr	r3, [r7, #12]
 2846 00d6 9B6B     		ldr	r3, [r3, #56]
 2847 00d8 434A     		ldr	r2, .L164+8
 2848 00da 9A62     		str	r2, [r3, #40]
 2849 00dc FB68     		ldr	r3, [r7, #12]
 2850 00de 9B6B     		ldr	r3, [r3, #56]
 2851 00e0 424A     		ldr	r2, .L164+12
 2852 00e2 1A63     		str	r2, [r3, #48]
 2853 00e4 FB68     		ldr	r3, [r7, #12]
 2854 00e6 9B6B     		ldr	r3, [r3, #56]
 2855 00e8 0022     		movs	r2, #0
 2856 00ea DA62     		str	r2, [r3, #44]
 2857 00ec FB68     		ldr	r3, [r7, #12]
 2858 00ee 9B6B     		ldr	r3, [r3, #56]
 2859 00f0 0022     		movs	r2, #0
 2860 00f2 5A63     		str	r2, [r3, #52]
 2861 00f4 FB68     		ldr	r3, [r7, #12]
 2862 00f6 986B     		ldr	r0, [r3, #56]
 2863 00f8 FB68     		ldr	r3, [r7, #12]
 2864 00fa 5B6A     		ldr	r3, [r3, #36]
 2865 00fc 1900     		movs	r1, r3
 2866 00fe FB68     		ldr	r3, [r7, #12]
 2867 0100 1B68     		ldr	r3, [r3]
 2868 0102 2833     		adds	r3, r3, #40
 2869 0104 1A00     		movs	r2, r3
 2870 0106 FB68     		ldr	r3, [r7, #12]
 2871 0108 1B8D     		ldrh	r3, [r3, #40]
 2872 010a 1725     		movs	r5, #23
 2873 010c 7C19     		adds	r4, r7, r5
 2874 010e FFF7FEFF 		bl	HAL_DMA_Start_IT
 2875 0112 0300     		movs	r3, r0
 2876 0114 2370     		strb	r3, [r4]
 2877 0116 7B19     		adds	r3, r7, r5
 2878 0118 1B78     		ldrb	r3, [r3]
 2879 011a 002B     		cmp	r3, #0
ARM GAS  /tmp/ccnCrYSN.s 			page 51


 2880 011c 31D1     		bne	.L161
 2881 011e 13E0     		b	.L163
 2882              	.L159:
 2883 0120 FB68     		ldr	r3, [r7, #12]
 2884 0122 4122     		movs	r2, #65
 2885 0124 2821     		movs	r1, #40
 2886 0126 9954     		strb	r1, [r3, r2]
 2887 0128 FB68     		ldr	r3, [r7, #12]
 2888 012a 4222     		movs	r2, #66
 2889 012c 0021     		movs	r1, #0
 2890 012e 9954     		strb	r1, [r3, r2]
 2891 0130 FB68     		ldr	r3, [r7, #12]
 2892 0132 5B6C     		ldr	r3, [r3, #68]
 2893 0134 8022     		movs	r2, #128
 2894 0136 1A43     		orrs	r2, r3
 2895 0138 FB68     		ldr	r3, [r7, #12]
 2896 013a 5A64     		str	r2, [r3, #68]
 2897 013c FB68     		ldr	r3, [r7, #12]
 2898 013e 4022     		movs	r2, #64
 2899 0140 0021     		movs	r1, #0
 2900 0142 9954     		strb	r1, [r3, r2]
 2901 0144 0123     		movs	r3, #1
 2902 0146 46E0     		b	.L155
 2903              	.L163:
 2904 0148 FB68     		ldr	r3, [r7, #12]
 2905 014a 1B68     		ldr	r3, [r3]
 2906 014c 5A68     		ldr	r2, [r3, #4]
 2907 014e FB68     		ldr	r3, [r7, #12]
 2908 0150 1B68     		ldr	r3, [r3]
 2909 0152 2749     		ldr	r1, .L164+16
 2910 0154 0A40     		ands	r2, r1
 2911 0156 5A60     		str	r2, [r3, #4]
 2912 0158 FB68     		ldr	r3, [r7, #12]
 2913 015a 4022     		movs	r2, #64
 2914 015c 0021     		movs	r1, #0
 2915 015e 9954     		strb	r1, [r3, r2]
 2916 0160 8023     		movs	r3, #128
 2917 0162 1A02     		lsls	r2, r3, #8
 2918 0164 FB68     		ldr	r3, [r7, #12]
 2919 0166 1100     		movs	r1, r2
 2920 0168 1800     		movs	r0, r3
 2921 016a FFF7FEFF 		bl	I2C_Enable_IRQ
 2922 016e FB68     		ldr	r3, [r7, #12]
 2923 0170 1B68     		ldr	r3, [r3]
 2924 0172 1A68     		ldr	r2, [r3]
 2925 0174 FB68     		ldr	r3, [r7, #12]
 2926 0176 1B68     		ldr	r3, [r3]
 2927 0178 8021     		movs	r1, #128
 2928 017a C901     		lsls	r1, r1, #7
 2929 017c 0A43     		orrs	r2, r1
 2930 017e 1A60     		str	r2, [r3]
 2931 0180 26E0     		b	.L162
 2932              	.L161:
 2933 0182 FB68     		ldr	r3, [r7, #12]
 2934 0184 4122     		movs	r2, #65
 2935 0186 2821     		movs	r1, #40
 2936 0188 9954     		strb	r1, [r3, r2]
ARM GAS  /tmp/ccnCrYSN.s 			page 52


 2937 018a FB68     		ldr	r3, [r7, #12]
 2938 018c 4222     		movs	r2, #66
 2939 018e 0021     		movs	r1, #0
 2940 0190 9954     		strb	r1, [r3, r2]
 2941 0192 FB68     		ldr	r3, [r7, #12]
 2942 0194 5B6C     		ldr	r3, [r3, #68]
 2943 0196 1022     		movs	r2, #16
 2944 0198 1A43     		orrs	r2, r3
 2945 019a FB68     		ldr	r3, [r7, #12]
 2946 019c 5A64     		str	r2, [r3, #68]
 2947 019e FB68     		ldr	r3, [r7, #12]
 2948 01a0 4022     		movs	r2, #64
 2949 01a2 0021     		movs	r1, #0
 2950 01a4 9954     		strb	r1, [r3, r2]
 2951 01a6 0123     		movs	r3, #1
 2952 01a8 15E0     		b	.L155
 2953              	.L158:
 2954 01aa FB68     		ldr	r3, [r7, #12]
 2955 01ac 1B68     		ldr	r3, [r3]
 2956 01ae 5A68     		ldr	r2, [r3, #4]
 2957 01b0 FB68     		ldr	r3, [r7, #12]
 2958 01b2 1B68     		ldr	r3, [r3]
 2959 01b4 0E49     		ldr	r1, .L164+16
 2960 01b6 0A40     		ands	r2, r1
 2961 01b8 5A60     		str	r2, [r3, #4]
 2962 01ba FB68     		ldr	r3, [r7, #12]
 2963 01bc 4022     		movs	r2, #64
 2964 01be 0021     		movs	r1, #0
 2965 01c0 9954     		strb	r1, [r3, r2]
 2966 01c2 8023     		movs	r3, #128
 2967 01c4 1A02     		lsls	r2, r3, #8
 2968 01c6 FB68     		ldr	r3, [r7, #12]
 2969 01c8 1100     		movs	r1, r2
 2970 01ca 1800     		movs	r0, r3
 2971 01cc FFF7FEFF 		bl	I2C_Enable_IRQ
 2972              	.L162:
 2973 01d0 0023     		movs	r3, #0
 2974 01d2 00E0     		b	.L155
 2975              	.L152:
 2976 01d4 0223     		movs	r3, #2
 2977              	.L155:
 2978 01d6 1800     		movs	r0, r3
 2979 01d8 BD46     		mov	sp, r7
 2980 01da 06B0     		add	sp, sp, #24
 2981              		@ sp needed
 2982 01dc B0BD     		pop	{r4, r5, r7, pc}
 2983              	.L165:
 2984 01de C046     		.align	2
 2985              	.L164:
 2986 01e0 0000FFFF 		.word	-65536
 2987 01e4 00000000 		.word	I2C_Slave_ISR_DMA
 2988 01e8 00000000 		.word	I2C_DMASlaveTransmitCplt
 2989 01ec 00000000 		.word	I2C_DMAError
 2990 01f0 FF7FFFFF 		.word	-32769
 2992              		.section	.text.HAL_I2C_Slave_Receive_DMA,"ax",%progbits
 2993              		.align	1
 2994              		.global	HAL_I2C_Slave_Receive_DMA
ARM GAS  /tmp/ccnCrYSN.s 			page 53


 2995              		.syntax unified
 2996              		.code	16
 2997              		.thumb_func
 2999              	HAL_I2C_Slave_Receive_DMA:
 3000              		@ args = 0, pretend = 0, frame = 24
 3001              		@ frame_needed = 1, uses_anonymous_args = 0
 3002 0000 B0B5     		push	{r4, r5, r7, lr}
 3003 0002 86B0     		sub	sp, sp, #24
 3004 0004 00AF     		add	r7, sp, #0
 3005 0006 F860     		str	r0, [r7, #12]
 3006 0008 B960     		str	r1, [r7, #8]
 3007 000a BB1D     		adds	r3, r7, #6
 3008 000c 1A80     		strh	r2, [r3]
 3009 000e FB68     		ldr	r3, [r7, #12]
 3010 0010 4122     		movs	r2, #65
 3011 0012 9B5C     		ldrb	r3, [r3, r2]
 3012 0014 DBB2     		uxtb	r3, r3
 3013 0016 202B     		cmp	r3, #32
 3014 0018 00D0     		beq	.LCB3211
 3015 001a A2E0     		b	.L167	@long jump
 3016              	.LCB3211:
 3017 001c BB68     		ldr	r3, [r7, #8]
 3018 001e 002B     		cmp	r3, #0
 3019 0020 03D0     		beq	.L168
 3020 0022 BB1D     		adds	r3, r7, #6
 3021 0024 1B88     		ldrh	r3, [r3]
 3022 0026 002B     		cmp	r3, #0
 3023 0028 05D1     		bne	.L169
 3024              	.L168:
 3025 002a FB68     		ldr	r3, [r7, #12]
 3026 002c 8022     		movs	r2, #128
 3027 002e 9200     		lsls	r2, r2, #2
 3028 0030 5A64     		str	r2, [r3, #68]
 3029 0032 0123     		movs	r3, #1
 3030 0034 96E0     		b	.L170
 3031              	.L169:
 3032 0036 FB68     		ldr	r3, [r7, #12]
 3033 0038 4022     		movs	r2, #64
 3034 003a 9B5C     		ldrb	r3, [r3, r2]
 3035 003c 012B     		cmp	r3, #1
 3036 003e 01D1     		bne	.L171
 3037 0040 0223     		movs	r3, #2
 3038 0042 8FE0     		b	.L170
 3039              	.L171:
 3040 0044 FB68     		ldr	r3, [r7, #12]
 3041 0046 4022     		movs	r2, #64
 3042 0048 0121     		movs	r1, #1
 3043 004a 9954     		strb	r1, [r3, r2]
 3044 004c FB68     		ldr	r3, [r7, #12]
 3045 004e 4122     		movs	r2, #65
 3046 0050 2221     		movs	r1, #34
 3047 0052 9954     		strb	r1, [r3, r2]
 3048 0054 FB68     		ldr	r3, [r7, #12]
 3049 0056 4222     		movs	r2, #66
 3050 0058 2021     		movs	r1, #32
 3051 005a 9954     		strb	r1, [r3, r2]
 3052 005c FB68     		ldr	r3, [r7, #12]
ARM GAS  /tmp/ccnCrYSN.s 			page 54


 3053 005e 0022     		movs	r2, #0
 3054 0060 5A64     		str	r2, [r3, #68]
 3055 0062 FB68     		ldr	r3, [r7, #12]
 3056 0064 BA68     		ldr	r2, [r7, #8]
 3057 0066 5A62     		str	r2, [r3, #36]
 3058 0068 FB68     		ldr	r3, [r7, #12]
 3059 006a BA1D     		adds	r2, r7, #6
 3060 006c 1288     		ldrh	r2, [r2]
 3061 006e 5A85     		strh	r2, [r3, #42]
 3062 0070 FB68     		ldr	r3, [r7, #12]
 3063 0072 5B8D     		ldrh	r3, [r3, #42]
 3064 0074 9AB2     		uxth	r2, r3
 3065 0076 FB68     		ldr	r3, [r7, #12]
 3066 0078 1A85     		strh	r2, [r3, #40]
 3067 007a FB68     		ldr	r3, [r7, #12]
 3068 007c 3B4A     		ldr	r2, .L177
 3069 007e DA62     		str	r2, [r3, #44]
 3070 0080 FB68     		ldr	r3, [r7, #12]
 3071 0082 3B4A     		ldr	r2, .L177+4
 3072 0084 5A63     		str	r2, [r3, #52]
 3073 0086 FB68     		ldr	r3, [r7, #12]
 3074 0088 DB6B     		ldr	r3, [r3, #60]
 3075 008a 002B     		cmp	r3, #0
 3076 008c 23D0     		beq	.L172
 3077 008e FB68     		ldr	r3, [r7, #12]
 3078 0090 DB6B     		ldr	r3, [r3, #60]
 3079 0092 384A     		ldr	r2, .L177+8
 3080 0094 9A62     		str	r2, [r3, #40]
 3081 0096 FB68     		ldr	r3, [r7, #12]
 3082 0098 DB6B     		ldr	r3, [r3, #60]
 3083 009a 374A     		ldr	r2, .L177+12
 3084 009c 1A63     		str	r2, [r3, #48]
 3085 009e FB68     		ldr	r3, [r7, #12]
 3086 00a0 DB6B     		ldr	r3, [r3, #60]
 3087 00a2 0022     		movs	r2, #0
 3088 00a4 DA62     		str	r2, [r3, #44]
 3089 00a6 FB68     		ldr	r3, [r7, #12]
 3090 00a8 DB6B     		ldr	r3, [r3, #60]
 3091 00aa 0022     		movs	r2, #0
 3092 00ac 5A63     		str	r2, [r3, #52]
 3093 00ae FB68     		ldr	r3, [r7, #12]
 3094 00b0 D86B     		ldr	r0, [r3, #60]
 3095 00b2 FB68     		ldr	r3, [r7, #12]
 3096 00b4 1B68     		ldr	r3, [r3]
 3097 00b6 2433     		adds	r3, r3, #36
 3098 00b8 1900     		movs	r1, r3
 3099 00ba BA68     		ldr	r2, [r7, #8]
 3100 00bc FB68     		ldr	r3, [r7, #12]
 3101 00be 1B8D     		ldrh	r3, [r3, #40]
 3102 00c0 1725     		movs	r5, #23
 3103 00c2 7C19     		adds	r4, r7, r5
 3104 00c4 FFF7FEFF 		bl	HAL_DMA_Start_IT
 3105 00c8 0300     		movs	r3, r0
 3106 00ca 2370     		strb	r3, [r4]
 3107 00cc 7B19     		adds	r3, r7, r5
 3108 00ce 1B78     		ldrb	r3, [r3]
 3109 00d0 002B     		cmp	r3, #0
ARM GAS  /tmp/ccnCrYSN.s 			page 55


 3110 00d2 32D1     		bne	.L174
 3111 00d4 13E0     		b	.L176
 3112              	.L172:
 3113 00d6 FB68     		ldr	r3, [r7, #12]
 3114 00d8 4122     		movs	r2, #65
 3115 00da 2821     		movs	r1, #40
 3116 00dc 9954     		strb	r1, [r3, r2]
 3117 00de FB68     		ldr	r3, [r7, #12]
 3118 00e0 4222     		movs	r2, #66
 3119 00e2 0021     		movs	r1, #0
 3120 00e4 9954     		strb	r1, [r3, r2]
 3121 00e6 FB68     		ldr	r3, [r7, #12]
 3122 00e8 5B6C     		ldr	r3, [r3, #68]
 3123 00ea 8022     		movs	r2, #128
 3124 00ec 1A43     		orrs	r2, r3
 3125 00ee FB68     		ldr	r3, [r7, #12]
 3126 00f0 5A64     		str	r2, [r3, #68]
 3127 00f2 FB68     		ldr	r3, [r7, #12]
 3128 00f4 4022     		movs	r2, #64
 3129 00f6 0021     		movs	r1, #0
 3130 00f8 9954     		strb	r1, [r3, r2]
 3131 00fa 0123     		movs	r3, #1
 3132 00fc 32E0     		b	.L170
 3133              	.L176:
 3134 00fe FB68     		ldr	r3, [r7, #12]
 3135 0100 1B68     		ldr	r3, [r3]
 3136 0102 5A68     		ldr	r2, [r3, #4]
 3137 0104 FB68     		ldr	r3, [r7, #12]
 3138 0106 1B68     		ldr	r3, [r3]
 3139 0108 1C49     		ldr	r1, .L177+16
 3140 010a 0A40     		ands	r2, r1
 3141 010c 5A60     		str	r2, [r3, #4]
 3142 010e FB68     		ldr	r3, [r7, #12]
 3143 0110 4022     		movs	r2, #64
 3144 0112 0021     		movs	r1, #0
 3145 0114 9954     		strb	r1, [r3, r2]
 3146 0116 8023     		movs	r3, #128
 3147 0118 1A02     		lsls	r2, r3, #8
 3148 011a FB68     		ldr	r3, [r7, #12]
 3149 011c 1100     		movs	r1, r2
 3150 011e 1800     		movs	r0, r3
 3151 0120 FFF7FEFF 		bl	I2C_Enable_IRQ
 3152 0124 FB68     		ldr	r3, [r7, #12]
 3153 0126 1B68     		ldr	r3, [r3]
 3154 0128 1A68     		ldr	r2, [r3]
 3155 012a FB68     		ldr	r3, [r7, #12]
 3156 012c 1B68     		ldr	r3, [r3]
 3157 012e 8021     		movs	r1, #128
 3158 0130 0902     		lsls	r1, r1, #8
 3159 0132 0A43     		orrs	r2, r1
 3160 0134 1A60     		str	r2, [r3]
 3161 0136 0023     		movs	r3, #0
 3162 0138 14E0     		b	.L170
 3163              	.L174:
 3164 013a FB68     		ldr	r3, [r7, #12]
 3165 013c 4122     		movs	r2, #65
 3166 013e 2821     		movs	r1, #40
ARM GAS  /tmp/ccnCrYSN.s 			page 56


 3167 0140 9954     		strb	r1, [r3, r2]
 3168 0142 FB68     		ldr	r3, [r7, #12]
 3169 0144 4222     		movs	r2, #66
 3170 0146 0021     		movs	r1, #0
 3171 0148 9954     		strb	r1, [r3, r2]
 3172 014a FB68     		ldr	r3, [r7, #12]
 3173 014c 5B6C     		ldr	r3, [r3, #68]
 3174 014e 1022     		movs	r2, #16
 3175 0150 1A43     		orrs	r2, r3
 3176 0152 FB68     		ldr	r3, [r7, #12]
 3177 0154 5A64     		str	r2, [r3, #68]
 3178 0156 FB68     		ldr	r3, [r7, #12]
 3179 0158 4022     		movs	r2, #64
 3180 015a 0021     		movs	r1, #0
 3181 015c 9954     		strb	r1, [r3, r2]
 3182 015e 0123     		movs	r3, #1
 3183 0160 00E0     		b	.L170
 3184              	.L167:
 3185 0162 0223     		movs	r3, #2
 3186              	.L170:
 3187 0164 1800     		movs	r0, r3
 3188 0166 BD46     		mov	sp, r7
 3189 0168 06B0     		add	sp, sp, #24
 3190              		@ sp needed
 3191 016a B0BD     		pop	{r4, r5, r7, pc}
 3192              	.L178:
 3193              		.align	2
 3194              	.L177:
 3195 016c 0000FFFF 		.word	-65536
 3196 0170 00000000 		.word	I2C_Slave_ISR_DMA
 3197 0174 00000000 		.word	I2C_DMASlaveReceiveCplt
 3198 0178 00000000 		.word	I2C_DMAError
 3199 017c FF7FFFFF 		.word	-32769
 3201              		.section	.text.HAL_I2C_Mem_Write,"ax",%progbits
 3202              		.align	1
 3203              		.global	HAL_I2C_Mem_Write
 3204              		.syntax unified
 3205              		.code	16
 3206              		.thumb_func
 3208              	HAL_I2C_Mem_Write:
 3209              		@ args = 12, pretend = 0, frame = 24
 3210              		@ frame_needed = 1, uses_anonymous_args = 0
 3211 0000 90B5     		push	{r4, r7, lr}
 3212 0002 89B0     		sub	sp, sp, #36
 3213 0004 02AF     		add	r7, sp, #8
 3214 0006 F860     		str	r0, [r7, #12]
 3215 0008 0C00     		movs	r4, r1
 3216 000a 1000     		movs	r0, r2
 3217 000c 1900     		movs	r1, r3
 3218 000e 0A23     		movs	r3, #10
 3219 0010 FB18     		adds	r3, r7, r3
 3220 0012 221C     		adds	r2, r4, #0
 3221 0014 1A80     		strh	r2, [r3]
 3222 0016 0823     		movs	r3, #8
 3223 0018 FB18     		adds	r3, r7, r3
 3224 001a 021C     		adds	r2, r0, #0
 3225 001c 1A80     		strh	r2, [r3]
ARM GAS  /tmp/ccnCrYSN.s 			page 57


 3226 001e BB1D     		adds	r3, r7, #6
 3227 0020 0A1C     		adds	r2, r1, #0
 3228 0022 1A80     		strh	r2, [r3]
 3229 0024 FB68     		ldr	r3, [r7, #12]
 3230 0026 4122     		movs	r2, #65
 3231 0028 9B5C     		ldrb	r3, [r3, r2]
 3232 002a DBB2     		uxtb	r3, r3
 3233 002c 202B     		cmp	r3, #32
 3234 002e 00D0     		beq	.LCB3446
 3235 0030 0CE1     		b	.L180	@long jump
 3236              	.LCB3446:
 3237 0032 BB6A     		ldr	r3, [r7, #40]
 3238 0034 002B     		cmp	r3, #0
 3239 0036 04D0     		beq	.L181
 3240 0038 2C23     		movs	r3, #44
 3241 003a FB18     		adds	r3, r7, r3
 3242 003c 1B88     		ldrh	r3, [r3]
 3243 003e 002B     		cmp	r3, #0
 3244 0040 05D1     		bne	.L182
 3245              	.L181:
 3246 0042 FB68     		ldr	r3, [r7, #12]
 3247 0044 8022     		movs	r2, #128
 3248 0046 9200     		lsls	r2, r2, #2
 3249 0048 5A64     		str	r2, [r3, #68]
 3250 004a 0123     		movs	r3, #1
 3251 004c FFE0     		b	.L183
 3252              	.L182:
 3253 004e FB68     		ldr	r3, [r7, #12]
 3254 0050 4022     		movs	r2, #64
 3255 0052 9B5C     		ldrb	r3, [r3, r2]
 3256 0054 012B     		cmp	r3, #1
 3257 0056 01D1     		bne	.L184
 3258 0058 0223     		movs	r3, #2
 3259 005a F8E0     		b	.L183
 3260              	.L184:
 3261 005c FB68     		ldr	r3, [r7, #12]
 3262 005e 4022     		movs	r2, #64
 3263 0060 0121     		movs	r1, #1
 3264 0062 9954     		strb	r1, [r3, r2]
 3265 0064 FFF7FEFF 		bl	HAL_GetTick
 3266 0068 0300     		movs	r3, r0
 3267 006a 7B61     		str	r3, [r7, #20]
 3268 006c 8023     		movs	r3, #128
 3269 006e 1902     		lsls	r1, r3, #8
 3270 0070 F868     		ldr	r0, [r7, #12]
 3271 0072 7B69     		ldr	r3, [r7, #20]
 3272 0074 0093     		str	r3, [sp]
 3273 0076 1923     		movs	r3, #25
 3274 0078 0122     		movs	r2, #1
 3275 007a FFF7FEFF 		bl	I2C_WaitOnFlagUntilTimeout
 3276 007e 031E     		subs	r3, r0, #0
 3277 0080 01D0     		beq	.L185
 3278 0082 0123     		movs	r3, #1
 3279 0084 E3E0     		b	.L183
 3280              	.L185:
 3281 0086 FB68     		ldr	r3, [r7, #12]
 3282 0088 4122     		movs	r2, #65
ARM GAS  /tmp/ccnCrYSN.s 			page 58


 3283 008a 2121     		movs	r1, #33
 3284 008c 9954     		strb	r1, [r3, r2]
 3285 008e FB68     		ldr	r3, [r7, #12]
 3286 0090 4222     		movs	r2, #66
 3287 0092 4021     		movs	r1, #64
 3288 0094 9954     		strb	r1, [r3, r2]
 3289 0096 FB68     		ldr	r3, [r7, #12]
 3290 0098 0022     		movs	r2, #0
 3291 009a 5A64     		str	r2, [r3, #68]
 3292 009c FB68     		ldr	r3, [r7, #12]
 3293 009e BA6A     		ldr	r2, [r7, #40]
 3294 00a0 5A62     		str	r2, [r3, #36]
 3295 00a2 FB68     		ldr	r3, [r7, #12]
 3296 00a4 2C22     		movs	r2, #44
 3297 00a6 BA18     		adds	r2, r7, r2
 3298 00a8 1288     		ldrh	r2, [r2]
 3299 00aa 5A85     		strh	r2, [r3, #42]
 3300 00ac FB68     		ldr	r3, [r7, #12]
 3301 00ae 0022     		movs	r2, #0
 3302 00b0 5A63     		str	r2, [r3, #52]
 3303 00b2 BB1D     		adds	r3, r7, #6
 3304 00b4 1C88     		ldrh	r4, [r3]
 3305 00b6 0823     		movs	r3, #8
 3306 00b8 FB18     		adds	r3, r7, r3
 3307 00ba 1A88     		ldrh	r2, [r3]
 3308 00bc 0A23     		movs	r3, #10
 3309 00be FB18     		adds	r3, r7, r3
 3310 00c0 1988     		ldrh	r1, [r3]
 3311 00c2 F868     		ldr	r0, [r7, #12]
 3312 00c4 7B69     		ldr	r3, [r7, #20]
 3313 00c6 0193     		str	r3, [sp, #4]
 3314 00c8 3B6B     		ldr	r3, [r7, #48]
 3315 00ca 0093     		str	r3, [sp]
 3316 00cc 2300     		movs	r3, r4
 3317 00ce FFF7FEFF 		bl	I2C_RequestMemoryWrite
 3318 00d2 031E     		subs	r3, r0, #0
 3319 00d4 05D0     		beq	.L186
 3320 00d6 FB68     		ldr	r3, [r7, #12]
 3321 00d8 4022     		movs	r2, #64
 3322 00da 0021     		movs	r1, #0
 3323 00dc 9954     		strb	r1, [r3, r2]
 3324 00de 0123     		movs	r3, #1
 3325 00e0 B5E0     		b	.L183
 3326              	.L186:
 3327 00e2 FB68     		ldr	r3, [r7, #12]
 3328 00e4 5B8D     		ldrh	r3, [r3, #42]
 3329 00e6 9BB2     		uxth	r3, r3
 3330 00e8 FF2B     		cmp	r3, #255
 3331 00ea 11D9     		bls	.L187
 3332 00ec FB68     		ldr	r3, [r7, #12]
 3333 00ee FF22     		movs	r2, #255
 3334 00f0 1A85     		strh	r2, [r3, #40]
 3335 00f2 FB68     		ldr	r3, [r7, #12]
 3336 00f4 1B8D     		ldrh	r3, [r3, #40]
 3337 00f6 DAB2     		uxtb	r2, r3
 3338 00f8 8023     		movs	r3, #128
 3339 00fa 5C04     		lsls	r4, r3, #17
ARM GAS  /tmp/ccnCrYSN.s 			page 59


 3340 00fc 0A23     		movs	r3, #10
 3341 00fe FB18     		adds	r3, r7, r3
 3342 0100 1988     		ldrh	r1, [r3]
 3343 0102 F868     		ldr	r0, [r7, #12]
 3344 0104 0023     		movs	r3, #0
 3345 0106 0093     		str	r3, [sp]
 3346 0108 2300     		movs	r3, r4
 3347 010a FFF7FEFF 		bl	I2C_TransferConfig
 3348 010e 12E0     		b	.L193
 3349              	.L187:
 3350 0110 FB68     		ldr	r3, [r7, #12]
 3351 0112 5B8D     		ldrh	r3, [r3, #42]
 3352 0114 9AB2     		uxth	r2, r3
 3353 0116 FB68     		ldr	r3, [r7, #12]
 3354 0118 1A85     		strh	r2, [r3, #40]
 3355 011a FB68     		ldr	r3, [r7, #12]
 3356 011c 1B8D     		ldrh	r3, [r3, #40]
 3357 011e DAB2     		uxtb	r2, r3
 3358 0120 8023     		movs	r3, #128
 3359 0122 9C04     		lsls	r4, r3, #18
 3360 0124 0A23     		movs	r3, #10
 3361 0126 FB18     		adds	r3, r7, r3
 3362 0128 1988     		ldrh	r1, [r3]
 3363 012a F868     		ldr	r0, [r7, #12]
 3364 012c 0023     		movs	r3, #0
 3365 012e 0093     		str	r3, [sp]
 3366 0130 2300     		movs	r3, r4
 3367 0132 FFF7FEFF 		bl	I2C_TransferConfig
 3368              	.L193:
 3369 0136 7A69     		ldr	r2, [r7, #20]
 3370 0138 396B     		ldr	r1, [r7, #48]
 3371 013a FB68     		ldr	r3, [r7, #12]
 3372 013c 1800     		movs	r0, r3
 3373 013e FFF7FEFF 		bl	I2C_WaitOnTXISFlagUntilTimeout
 3374 0142 031E     		subs	r3, r0, #0
 3375 0144 01D0     		beq	.L189
 3376 0146 0123     		movs	r3, #1
 3377 0148 81E0     		b	.L183
 3378              	.L189:
 3379 014a FB68     		ldr	r3, [r7, #12]
 3380 014c 5B6A     		ldr	r3, [r3, #36]
 3381 014e 1A78     		ldrb	r2, [r3]
 3382 0150 FB68     		ldr	r3, [r7, #12]
 3383 0152 1B68     		ldr	r3, [r3]
 3384 0154 9A62     		str	r2, [r3, #40]
 3385 0156 FB68     		ldr	r3, [r7, #12]
 3386 0158 5B6A     		ldr	r3, [r3, #36]
 3387 015a 5A1C     		adds	r2, r3, #1
 3388 015c FB68     		ldr	r3, [r7, #12]
 3389 015e 5A62     		str	r2, [r3, #36]
 3390 0160 FB68     		ldr	r3, [r7, #12]
 3391 0162 5B8D     		ldrh	r3, [r3, #42]
 3392 0164 9BB2     		uxth	r3, r3
 3393 0166 013B     		subs	r3, r3, #1
 3394 0168 9AB2     		uxth	r2, r3
 3395 016a FB68     		ldr	r3, [r7, #12]
 3396 016c 5A85     		strh	r2, [r3, #42]
ARM GAS  /tmp/ccnCrYSN.s 			page 60


 3397 016e FB68     		ldr	r3, [r7, #12]
 3398 0170 1B8D     		ldrh	r3, [r3, #40]
 3399 0172 013B     		subs	r3, r3, #1
 3400 0174 9AB2     		uxth	r2, r3
 3401 0176 FB68     		ldr	r3, [r7, #12]
 3402 0178 1A85     		strh	r2, [r3, #40]
 3403 017a FB68     		ldr	r3, [r7, #12]
 3404 017c 5B8D     		ldrh	r3, [r3, #42]
 3405 017e 9BB2     		uxth	r3, r3
 3406 0180 002B     		cmp	r3, #0
 3407 0182 3AD0     		beq	.L190
 3408 0184 FB68     		ldr	r3, [r7, #12]
 3409 0186 1B8D     		ldrh	r3, [r3, #40]
 3410 0188 002B     		cmp	r3, #0
 3411 018a 36D1     		bne	.L190
 3412 018c 3A6B     		ldr	r2, [r7, #48]
 3413 018e F868     		ldr	r0, [r7, #12]
 3414 0190 7B69     		ldr	r3, [r7, #20]
 3415 0192 0093     		str	r3, [sp]
 3416 0194 1300     		movs	r3, r2
 3417 0196 0022     		movs	r2, #0
 3418 0198 8021     		movs	r1, #128
 3419 019a FFF7FEFF 		bl	I2C_WaitOnFlagUntilTimeout
 3420 019e 031E     		subs	r3, r0, #0
 3421 01a0 01D0     		beq	.L191
 3422 01a2 0123     		movs	r3, #1
 3423 01a4 53E0     		b	.L183
 3424              	.L191:
 3425 01a6 FB68     		ldr	r3, [r7, #12]
 3426 01a8 5B8D     		ldrh	r3, [r3, #42]
 3427 01aa 9BB2     		uxth	r3, r3
 3428 01ac FF2B     		cmp	r3, #255
 3429 01ae 11D9     		bls	.L192
 3430 01b0 FB68     		ldr	r3, [r7, #12]
 3431 01b2 FF22     		movs	r2, #255
 3432 01b4 1A85     		strh	r2, [r3, #40]
 3433 01b6 FB68     		ldr	r3, [r7, #12]
 3434 01b8 1B8D     		ldrh	r3, [r3, #40]
 3435 01ba DAB2     		uxtb	r2, r3
 3436 01bc 8023     		movs	r3, #128
 3437 01be 5C04     		lsls	r4, r3, #17
 3438 01c0 0A23     		movs	r3, #10
 3439 01c2 FB18     		adds	r3, r7, r3
 3440 01c4 1988     		ldrh	r1, [r3]
 3441 01c6 F868     		ldr	r0, [r7, #12]
 3442 01c8 0023     		movs	r3, #0
 3443 01ca 0093     		str	r3, [sp]
 3444 01cc 2300     		movs	r3, r4
 3445 01ce FFF7FEFF 		bl	I2C_TransferConfig
 3446 01d2 12E0     		b	.L190
 3447              	.L192:
 3448 01d4 FB68     		ldr	r3, [r7, #12]
 3449 01d6 5B8D     		ldrh	r3, [r3, #42]
 3450 01d8 9AB2     		uxth	r2, r3
 3451 01da FB68     		ldr	r3, [r7, #12]
 3452 01dc 1A85     		strh	r2, [r3, #40]
 3453 01de FB68     		ldr	r3, [r7, #12]
ARM GAS  /tmp/ccnCrYSN.s 			page 61


 3454 01e0 1B8D     		ldrh	r3, [r3, #40]
 3455 01e2 DAB2     		uxtb	r2, r3
 3456 01e4 8023     		movs	r3, #128
 3457 01e6 9C04     		lsls	r4, r3, #18
 3458 01e8 0A23     		movs	r3, #10
 3459 01ea FB18     		adds	r3, r7, r3
 3460 01ec 1988     		ldrh	r1, [r3]
 3461 01ee F868     		ldr	r0, [r7, #12]
 3462 01f0 0023     		movs	r3, #0
 3463 01f2 0093     		str	r3, [sp]
 3464 01f4 2300     		movs	r3, r4
 3465 01f6 FFF7FEFF 		bl	I2C_TransferConfig
 3466              	.L190:
 3467 01fa FB68     		ldr	r3, [r7, #12]
 3468 01fc 5B8D     		ldrh	r3, [r3, #42]
 3469 01fe 9BB2     		uxth	r3, r3
 3470 0200 002B     		cmp	r3, #0
 3471 0202 98D1     		bne	.L193
 3472 0204 7A69     		ldr	r2, [r7, #20]
 3473 0206 396B     		ldr	r1, [r7, #48]
 3474 0208 FB68     		ldr	r3, [r7, #12]
 3475 020a 1800     		movs	r0, r3
 3476 020c FFF7FEFF 		bl	I2C_WaitOnSTOPFlagUntilTimeout
 3477 0210 031E     		subs	r3, r0, #0
 3478 0212 01D0     		beq	.L194
 3479 0214 0123     		movs	r3, #1
 3480 0216 1AE0     		b	.L183
 3481              	.L194:
 3482 0218 FB68     		ldr	r3, [r7, #12]
 3483 021a 1B68     		ldr	r3, [r3]
 3484 021c 2022     		movs	r2, #32
 3485 021e DA61     		str	r2, [r3, #28]
 3486 0220 FB68     		ldr	r3, [r7, #12]
 3487 0222 1B68     		ldr	r3, [r3]
 3488 0224 5A68     		ldr	r2, [r3, #4]
 3489 0226 FB68     		ldr	r3, [r7, #12]
 3490 0228 1B68     		ldr	r3, [r3]
 3491 022a 0B49     		ldr	r1, .L195
 3492 022c 0A40     		ands	r2, r1
 3493 022e 5A60     		str	r2, [r3, #4]
 3494 0230 FB68     		ldr	r3, [r7, #12]
 3495 0232 4122     		movs	r2, #65
 3496 0234 2021     		movs	r1, #32
 3497 0236 9954     		strb	r1, [r3, r2]
 3498 0238 FB68     		ldr	r3, [r7, #12]
 3499 023a 4222     		movs	r2, #66
 3500 023c 0021     		movs	r1, #0
 3501 023e 9954     		strb	r1, [r3, r2]
 3502 0240 FB68     		ldr	r3, [r7, #12]
 3503 0242 4022     		movs	r2, #64
 3504 0244 0021     		movs	r1, #0
 3505 0246 9954     		strb	r1, [r3, r2]
 3506 0248 0023     		movs	r3, #0
 3507 024a 00E0     		b	.L183
 3508              	.L180:
 3509 024c 0223     		movs	r3, #2
 3510              	.L183:
ARM GAS  /tmp/ccnCrYSN.s 			page 62


 3511 024e 1800     		movs	r0, r3
 3512 0250 BD46     		mov	sp, r7
 3513 0252 07B0     		add	sp, sp, #28
 3514              		@ sp needed
 3515 0254 90BD     		pop	{r4, r7, pc}
 3516              	.L196:
 3517 0256 C046     		.align	2
 3518              	.L195:
 3519 0258 00E800FE 		.word	-33495040
 3521              		.section	.text.HAL_I2C_Mem_Read,"ax",%progbits
 3522              		.align	1
 3523              		.global	HAL_I2C_Mem_Read
 3524              		.syntax unified
 3525              		.code	16
 3526              		.thumb_func
 3528              	HAL_I2C_Mem_Read:
 3529              		@ args = 12, pretend = 0, frame = 24
 3530              		@ frame_needed = 1, uses_anonymous_args = 0
 3531 0000 90B5     		push	{r4, r7, lr}
 3532 0002 89B0     		sub	sp, sp, #36
 3533 0004 02AF     		add	r7, sp, #8
 3534 0006 F860     		str	r0, [r7, #12]
 3535 0008 0C00     		movs	r4, r1
 3536 000a 1000     		movs	r0, r2
 3537 000c 1900     		movs	r1, r3
 3538 000e 0A23     		movs	r3, #10
 3539 0010 FB18     		adds	r3, r7, r3
 3540 0012 221C     		adds	r2, r4, #0
 3541 0014 1A80     		strh	r2, [r3]
 3542 0016 0823     		movs	r3, #8
 3543 0018 FB18     		adds	r3, r7, r3
 3544 001a 021C     		adds	r2, r0, #0
 3545 001c 1A80     		strh	r2, [r3]
 3546 001e BB1D     		adds	r3, r7, #6
 3547 0020 0A1C     		adds	r2, r1, #0
 3548 0022 1A80     		strh	r2, [r3]
 3549 0024 FB68     		ldr	r3, [r7, #12]
 3550 0026 4122     		movs	r2, #65
 3551 0028 9B5C     		ldrb	r3, [r3, r2]
 3552 002a DBB2     		uxtb	r3, r3
 3553 002c 202B     		cmp	r3, #32
 3554 002e 00D0     		beq	.LCB3794
 3555 0030 10E1     		b	.L198	@long jump
 3556              	.LCB3794:
 3557 0032 BB6A     		ldr	r3, [r7, #40]
 3558 0034 002B     		cmp	r3, #0
 3559 0036 04D0     		beq	.L199
 3560 0038 2C23     		movs	r3, #44
 3561 003a FB18     		adds	r3, r7, r3
 3562 003c 1B88     		ldrh	r3, [r3]
 3563 003e 002B     		cmp	r3, #0
 3564 0040 05D1     		bne	.L200
 3565              	.L199:
 3566 0042 FB68     		ldr	r3, [r7, #12]
 3567 0044 8022     		movs	r2, #128
 3568 0046 9200     		lsls	r2, r2, #2
 3569 0048 5A64     		str	r2, [r3, #68]
ARM GAS  /tmp/ccnCrYSN.s 			page 63


 3570 004a 0123     		movs	r3, #1
 3571 004c 03E1     		b	.L201
 3572              	.L200:
 3573 004e FB68     		ldr	r3, [r7, #12]
 3574 0050 4022     		movs	r2, #64
 3575 0052 9B5C     		ldrb	r3, [r3, r2]
 3576 0054 012B     		cmp	r3, #1
 3577 0056 01D1     		bne	.L202
 3578 0058 0223     		movs	r3, #2
 3579 005a FCE0     		b	.L201
 3580              	.L202:
 3581 005c FB68     		ldr	r3, [r7, #12]
 3582 005e 4022     		movs	r2, #64
 3583 0060 0121     		movs	r1, #1
 3584 0062 9954     		strb	r1, [r3, r2]
 3585 0064 FFF7FEFF 		bl	HAL_GetTick
 3586 0068 0300     		movs	r3, r0
 3587 006a 7B61     		str	r3, [r7, #20]
 3588 006c 8023     		movs	r3, #128
 3589 006e 1902     		lsls	r1, r3, #8
 3590 0070 F868     		ldr	r0, [r7, #12]
 3591 0072 7B69     		ldr	r3, [r7, #20]
 3592 0074 0093     		str	r3, [sp]
 3593 0076 1923     		movs	r3, #25
 3594 0078 0122     		movs	r2, #1
 3595 007a FFF7FEFF 		bl	I2C_WaitOnFlagUntilTimeout
 3596 007e 031E     		subs	r3, r0, #0
 3597 0080 01D0     		beq	.L203
 3598 0082 0123     		movs	r3, #1
 3599 0084 E7E0     		b	.L201
 3600              	.L203:
 3601 0086 FB68     		ldr	r3, [r7, #12]
 3602 0088 4122     		movs	r2, #65
 3603 008a 2221     		movs	r1, #34
 3604 008c 9954     		strb	r1, [r3, r2]
 3605 008e FB68     		ldr	r3, [r7, #12]
 3606 0090 4222     		movs	r2, #66
 3607 0092 4021     		movs	r1, #64
 3608 0094 9954     		strb	r1, [r3, r2]
 3609 0096 FB68     		ldr	r3, [r7, #12]
 3610 0098 0022     		movs	r2, #0
 3611 009a 5A64     		str	r2, [r3, #68]
 3612 009c FB68     		ldr	r3, [r7, #12]
 3613 009e BA6A     		ldr	r2, [r7, #40]
 3614 00a0 5A62     		str	r2, [r3, #36]
 3615 00a2 FB68     		ldr	r3, [r7, #12]
 3616 00a4 2C22     		movs	r2, #44
 3617 00a6 BA18     		adds	r2, r7, r2
 3618 00a8 1288     		ldrh	r2, [r2]
 3619 00aa 5A85     		strh	r2, [r3, #42]
 3620 00ac FB68     		ldr	r3, [r7, #12]
 3621 00ae 0022     		movs	r2, #0
 3622 00b0 5A63     		str	r2, [r3, #52]
 3623 00b2 BB1D     		adds	r3, r7, #6
 3624 00b4 1C88     		ldrh	r4, [r3]
 3625 00b6 0823     		movs	r3, #8
 3626 00b8 FB18     		adds	r3, r7, r3
ARM GAS  /tmp/ccnCrYSN.s 			page 64


 3627 00ba 1A88     		ldrh	r2, [r3]
 3628 00bc 0A23     		movs	r3, #10
 3629 00be FB18     		adds	r3, r7, r3
 3630 00c0 1988     		ldrh	r1, [r3]
 3631 00c2 F868     		ldr	r0, [r7, #12]
 3632 00c4 7B69     		ldr	r3, [r7, #20]
 3633 00c6 0193     		str	r3, [sp, #4]
 3634 00c8 3B6B     		ldr	r3, [r7, #48]
 3635 00ca 0093     		str	r3, [sp]
 3636 00cc 2300     		movs	r3, r4
 3637 00ce FFF7FEFF 		bl	I2C_RequestMemoryRead
 3638 00d2 031E     		subs	r3, r0, #0
 3639 00d4 05D0     		beq	.L204
 3640 00d6 FB68     		ldr	r3, [r7, #12]
 3641 00d8 4022     		movs	r2, #64
 3642 00da 0021     		movs	r1, #0
 3643 00dc 9954     		strb	r1, [r3, r2]
 3644 00de 0123     		movs	r3, #1
 3645 00e0 B9E0     		b	.L201
 3646              	.L204:
 3647 00e2 FB68     		ldr	r3, [r7, #12]
 3648 00e4 5B8D     		ldrh	r3, [r3, #42]
 3649 00e6 9BB2     		uxth	r3, r3
 3650 00e8 FF2B     		cmp	r3, #255
 3651 00ea 11D9     		bls	.L205
 3652 00ec FB68     		ldr	r3, [r7, #12]
 3653 00ee 0122     		movs	r2, #1
 3654 00f0 1A85     		strh	r2, [r3, #40]
 3655 00f2 FB68     		ldr	r3, [r7, #12]
 3656 00f4 1B8D     		ldrh	r3, [r3, #40]
 3657 00f6 DAB2     		uxtb	r2, r3
 3658 00f8 8023     		movs	r3, #128
 3659 00fa 5C04     		lsls	r4, r3, #17
 3660 00fc 0A23     		movs	r3, #10
 3661 00fe FB18     		adds	r3, r7, r3
 3662 0100 1988     		ldrh	r1, [r3]
 3663 0102 F868     		ldr	r0, [r7, #12]
 3664 0104 564B     		ldr	r3, .L213
 3665 0106 0093     		str	r3, [sp]
 3666 0108 2300     		movs	r3, r4
 3667 010a FFF7FEFF 		bl	I2C_TransferConfig
 3668 010e 12E0     		b	.L211
 3669              	.L205:
 3670 0110 FB68     		ldr	r3, [r7, #12]
 3671 0112 5B8D     		ldrh	r3, [r3, #42]
 3672 0114 9AB2     		uxth	r2, r3
 3673 0116 FB68     		ldr	r3, [r7, #12]
 3674 0118 1A85     		strh	r2, [r3, #40]
 3675 011a FB68     		ldr	r3, [r7, #12]
 3676 011c 1B8D     		ldrh	r3, [r3, #40]
 3677 011e DAB2     		uxtb	r2, r3
 3678 0120 8023     		movs	r3, #128
 3679 0122 9C04     		lsls	r4, r3, #18
 3680 0124 0A23     		movs	r3, #10
 3681 0126 FB18     		adds	r3, r7, r3
 3682 0128 1988     		ldrh	r1, [r3]
 3683 012a F868     		ldr	r0, [r7, #12]
ARM GAS  /tmp/ccnCrYSN.s 			page 65


 3684 012c 4C4B     		ldr	r3, .L213
 3685 012e 0093     		str	r3, [sp]
 3686 0130 2300     		movs	r3, r4
 3687 0132 FFF7FEFF 		bl	I2C_TransferConfig
 3688              	.L211:
 3689 0136 3A6B     		ldr	r2, [r7, #48]
 3690 0138 F868     		ldr	r0, [r7, #12]
 3691 013a 7B69     		ldr	r3, [r7, #20]
 3692 013c 0093     		str	r3, [sp]
 3693 013e 1300     		movs	r3, r2
 3694 0140 0022     		movs	r2, #0
 3695 0142 0421     		movs	r1, #4
 3696 0144 FFF7FEFF 		bl	I2C_WaitOnFlagUntilTimeout
 3697 0148 031E     		subs	r3, r0, #0
 3698 014a 01D0     		beq	.L207
 3699 014c 0123     		movs	r3, #1
 3700 014e 82E0     		b	.L201
 3701              	.L207:
 3702 0150 FB68     		ldr	r3, [r7, #12]
 3703 0152 1B68     		ldr	r3, [r3]
 3704 0154 5A6A     		ldr	r2, [r3, #36]
 3705 0156 FB68     		ldr	r3, [r7, #12]
 3706 0158 5B6A     		ldr	r3, [r3, #36]
 3707 015a D2B2     		uxtb	r2, r2
 3708 015c 1A70     		strb	r2, [r3]
 3709 015e FB68     		ldr	r3, [r7, #12]
 3710 0160 5B6A     		ldr	r3, [r3, #36]
 3711 0162 5A1C     		adds	r2, r3, #1
 3712 0164 FB68     		ldr	r3, [r7, #12]
 3713 0166 5A62     		str	r2, [r3, #36]
 3714 0168 FB68     		ldr	r3, [r7, #12]
 3715 016a 1B8D     		ldrh	r3, [r3, #40]
 3716 016c 013B     		subs	r3, r3, #1
 3717 016e 9AB2     		uxth	r2, r3
 3718 0170 FB68     		ldr	r3, [r7, #12]
 3719 0172 1A85     		strh	r2, [r3, #40]
 3720 0174 FB68     		ldr	r3, [r7, #12]
 3721 0176 5B8D     		ldrh	r3, [r3, #42]
 3722 0178 9BB2     		uxth	r3, r3
 3723 017a 013B     		subs	r3, r3, #1
 3724 017c 9AB2     		uxth	r2, r3
 3725 017e FB68     		ldr	r3, [r7, #12]
 3726 0180 5A85     		strh	r2, [r3, #42]
 3727 0182 FB68     		ldr	r3, [r7, #12]
 3728 0184 5B8D     		ldrh	r3, [r3, #42]
 3729 0186 9BB2     		uxth	r3, r3
 3730 0188 002B     		cmp	r3, #0
 3731 018a 3AD0     		beq	.L208
 3732 018c FB68     		ldr	r3, [r7, #12]
 3733 018e 1B8D     		ldrh	r3, [r3, #40]
 3734 0190 002B     		cmp	r3, #0
 3735 0192 36D1     		bne	.L208
 3736 0194 3A6B     		ldr	r2, [r7, #48]
 3737 0196 F868     		ldr	r0, [r7, #12]
 3738 0198 7B69     		ldr	r3, [r7, #20]
 3739 019a 0093     		str	r3, [sp]
 3740 019c 1300     		movs	r3, r2
ARM GAS  /tmp/ccnCrYSN.s 			page 66


 3741 019e 0022     		movs	r2, #0
 3742 01a0 8021     		movs	r1, #128
 3743 01a2 FFF7FEFF 		bl	I2C_WaitOnFlagUntilTimeout
 3744 01a6 031E     		subs	r3, r0, #0
 3745 01a8 01D0     		beq	.L209
 3746 01aa 0123     		movs	r3, #1
 3747 01ac 53E0     		b	.L201
 3748              	.L209:
 3749 01ae FB68     		ldr	r3, [r7, #12]
 3750 01b0 5B8D     		ldrh	r3, [r3, #42]
 3751 01b2 9BB2     		uxth	r3, r3
 3752 01b4 FF2B     		cmp	r3, #255
 3753 01b6 11D9     		bls	.L210
 3754 01b8 FB68     		ldr	r3, [r7, #12]
 3755 01ba 0122     		movs	r2, #1
 3756 01bc 1A85     		strh	r2, [r3, #40]
 3757 01be FB68     		ldr	r3, [r7, #12]
 3758 01c0 1B8D     		ldrh	r3, [r3, #40]
 3759 01c2 DAB2     		uxtb	r2, r3
 3760 01c4 8023     		movs	r3, #128
 3761 01c6 5C04     		lsls	r4, r3, #17
 3762 01c8 0A23     		movs	r3, #10
 3763 01ca FB18     		adds	r3, r7, r3
 3764 01cc 1988     		ldrh	r1, [r3]
 3765 01ce F868     		ldr	r0, [r7, #12]
 3766 01d0 0023     		movs	r3, #0
 3767 01d2 0093     		str	r3, [sp]
 3768 01d4 2300     		movs	r3, r4
 3769 01d6 FFF7FEFF 		bl	I2C_TransferConfig
 3770 01da 12E0     		b	.L208
 3771              	.L210:
 3772 01dc FB68     		ldr	r3, [r7, #12]
 3773 01de 5B8D     		ldrh	r3, [r3, #42]
 3774 01e0 9AB2     		uxth	r2, r3
 3775 01e2 FB68     		ldr	r3, [r7, #12]
 3776 01e4 1A85     		strh	r2, [r3, #40]
 3777 01e6 FB68     		ldr	r3, [r7, #12]
 3778 01e8 1B8D     		ldrh	r3, [r3, #40]
 3779 01ea DAB2     		uxtb	r2, r3
 3780 01ec 8023     		movs	r3, #128
 3781 01ee 9C04     		lsls	r4, r3, #18
 3782 01f0 0A23     		movs	r3, #10
 3783 01f2 FB18     		adds	r3, r7, r3
 3784 01f4 1988     		ldrh	r1, [r3]
 3785 01f6 F868     		ldr	r0, [r7, #12]
 3786 01f8 0023     		movs	r3, #0
 3787 01fa 0093     		str	r3, [sp]
 3788 01fc 2300     		movs	r3, r4
 3789 01fe FFF7FEFF 		bl	I2C_TransferConfig
 3790              	.L208:
 3791 0202 FB68     		ldr	r3, [r7, #12]
 3792 0204 5B8D     		ldrh	r3, [r3, #42]
 3793 0206 9BB2     		uxth	r3, r3
 3794 0208 002B     		cmp	r3, #0
 3795 020a 94D1     		bne	.L211
 3796 020c 7A69     		ldr	r2, [r7, #20]
 3797 020e 396B     		ldr	r1, [r7, #48]
ARM GAS  /tmp/ccnCrYSN.s 			page 67


 3798 0210 FB68     		ldr	r3, [r7, #12]
 3799 0212 1800     		movs	r0, r3
 3800 0214 FFF7FEFF 		bl	I2C_WaitOnSTOPFlagUntilTimeout
 3801 0218 031E     		subs	r3, r0, #0
 3802 021a 01D0     		beq	.L212
 3803 021c 0123     		movs	r3, #1
 3804 021e 1AE0     		b	.L201
 3805              	.L212:
 3806 0220 FB68     		ldr	r3, [r7, #12]
 3807 0222 1B68     		ldr	r3, [r3]
 3808 0224 2022     		movs	r2, #32
 3809 0226 DA61     		str	r2, [r3, #28]
 3810 0228 FB68     		ldr	r3, [r7, #12]
 3811 022a 1B68     		ldr	r3, [r3]
 3812 022c 5A68     		ldr	r2, [r3, #4]
 3813 022e FB68     		ldr	r3, [r7, #12]
 3814 0230 1B68     		ldr	r3, [r3]
 3815 0232 0C49     		ldr	r1, .L213+4
 3816 0234 0A40     		ands	r2, r1
 3817 0236 5A60     		str	r2, [r3, #4]
 3818 0238 FB68     		ldr	r3, [r7, #12]
 3819 023a 4122     		movs	r2, #65
 3820 023c 2021     		movs	r1, #32
 3821 023e 9954     		strb	r1, [r3, r2]
 3822 0240 FB68     		ldr	r3, [r7, #12]
 3823 0242 4222     		movs	r2, #66
 3824 0244 0021     		movs	r1, #0
 3825 0246 9954     		strb	r1, [r3, r2]
 3826 0248 FB68     		ldr	r3, [r7, #12]
 3827 024a 4022     		movs	r2, #64
 3828 024c 0021     		movs	r1, #0
 3829 024e 9954     		strb	r1, [r3, r2]
 3830 0250 0023     		movs	r3, #0
 3831 0252 00E0     		b	.L201
 3832              	.L198:
 3833 0254 0223     		movs	r3, #2
 3834              	.L201:
 3835 0256 1800     		movs	r0, r3
 3836 0258 BD46     		mov	sp, r7
 3837 025a 07B0     		add	sp, sp, #28
 3838              		@ sp needed
 3839 025c 90BD     		pop	{r4, r7, pc}
 3840              	.L214:
 3841 025e C046     		.align	2
 3842              	.L213:
 3843 0260 00240080 		.word	-2147474432
 3844 0264 00E800FE 		.word	-33495040
 3846              		.section	.text.HAL_I2C_Mem_Write_IT,"ax",%progbits
 3847              		.align	1
 3848              		.global	HAL_I2C_Mem_Write_IT
 3849              		.syntax unified
 3850              		.code	16
 3851              		.thumb_func
 3853              	HAL_I2C_Mem_Write_IT:
 3854              		@ args = 8, pretend = 0, frame = 16
 3855              		@ frame_needed = 1, uses_anonymous_args = 0
 3856 0000 90B5     		push	{r4, r7, lr}
ARM GAS  /tmp/ccnCrYSN.s 			page 68


 3857 0002 87B0     		sub	sp, sp, #28
 3858 0004 02AF     		add	r7, sp, #8
 3859 0006 F860     		str	r0, [r7, #12]
 3860 0008 0C00     		movs	r4, r1
 3861 000a 1000     		movs	r0, r2
 3862 000c 1900     		movs	r1, r3
 3863 000e 0A23     		movs	r3, #10
 3864 0010 FB18     		adds	r3, r7, r3
 3865 0012 221C     		adds	r2, r4, #0
 3866 0014 1A80     		strh	r2, [r3]
 3867 0016 0823     		movs	r3, #8
 3868 0018 FB18     		adds	r3, r7, r3
 3869 001a 021C     		adds	r2, r0, #0
 3870 001c 1A80     		strh	r2, [r3]
 3871 001e BB1D     		adds	r3, r7, #6
 3872 0020 0A1C     		adds	r2, r1, #0
 3873 0022 1A80     		strh	r2, [r3]
 3874 0024 FB68     		ldr	r3, [r7, #12]
 3875 0026 4122     		movs	r2, #65
 3876 0028 9B5C     		ldrb	r3, [r3, r2]
 3877 002a DBB2     		uxtb	r3, r3
 3878 002c 202B     		cmp	r3, #32
 3879 002e 00D0     		beq	.LCB4147
 3880 0030 7DE0     		b	.L216	@long jump
 3881              	.LCB4147:
 3882 0032 3B6A     		ldr	r3, [r7, #32]
 3883 0034 002B     		cmp	r3, #0
 3884 0036 04D0     		beq	.L217
 3885 0038 2423     		movs	r3, #36
 3886 003a FB18     		adds	r3, r7, r3
 3887 003c 1B88     		ldrh	r3, [r3]
 3888 003e 002B     		cmp	r3, #0
 3889 0040 05D1     		bne	.L218
 3890              	.L217:
 3891 0042 FB68     		ldr	r3, [r7, #12]
 3892 0044 8022     		movs	r2, #128
 3893 0046 9200     		lsls	r2, r2, #2
 3894 0048 5A64     		str	r2, [r3, #68]
 3895 004a 0123     		movs	r3, #1
 3896 004c 70E0     		b	.L219
 3897              	.L218:
 3898 004e FB68     		ldr	r3, [r7, #12]
 3899 0050 1B68     		ldr	r3, [r3]
 3900 0052 9A69     		ldr	r2, [r3, #24]
 3901 0054 8023     		movs	r3, #128
 3902 0056 1B02     		lsls	r3, r3, #8
 3903 0058 1A40     		ands	r2, r3
 3904 005a 8023     		movs	r3, #128
 3905 005c 1B02     		lsls	r3, r3, #8
 3906 005e 9A42     		cmp	r2, r3
 3907 0060 01D1     		bne	.L220
 3908 0062 0223     		movs	r3, #2
 3909 0064 64E0     		b	.L219
 3910              	.L220:
 3911 0066 FB68     		ldr	r3, [r7, #12]
 3912 0068 4022     		movs	r2, #64
 3913 006a 9B5C     		ldrb	r3, [r3, r2]
ARM GAS  /tmp/ccnCrYSN.s 			page 69


 3914 006c 012B     		cmp	r3, #1
 3915 006e 01D1     		bne	.L221
 3916 0070 0223     		movs	r3, #2
 3917 0072 5DE0     		b	.L219
 3918              	.L221:
 3919 0074 FB68     		ldr	r3, [r7, #12]
 3920 0076 4022     		movs	r2, #64
 3921 0078 0121     		movs	r1, #1
 3922 007a 9954     		strb	r1, [r3, r2]
 3923 007c FB68     		ldr	r3, [r7, #12]
 3924 007e 4122     		movs	r2, #65
 3925 0080 2121     		movs	r1, #33
 3926 0082 9954     		strb	r1, [r3, r2]
 3927 0084 FB68     		ldr	r3, [r7, #12]
 3928 0086 4222     		movs	r2, #66
 3929 0088 4021     		movs	r1, #64
 3930 008a 9954     		strb	r1, [r3, r2]
 3931 008c FB68     		ldr	r3, [r7, #12]
 3932 008e 0022     		movs	r2, #0
 3933 0090 5A64     		str	r2, [r3, #68]
 3934 0092 FB68     		ldr	r3, [r7, #12]
 3935 0094 0022     		movs	r2, #0
 3936 0096 1A85     		strh	r2, [r3, #40]
 3937 0098 FB68     		ldr	r3, [r7, #12]
 3938 009a 3A6A     		ldr	r2, [r7, #32]
 3939 009c 5A62     		str	r2, [r3, #36]
 3940 009e FB68     		ldr	r3, [r7, #12]
 3941 00a0 2422     		movs	r2, #36
 3942 00a2 BA18     		adds	r2, r7, r2
 3943 00a4 1288     		ldrh	r2, [r2]
 3944 00a6 5A85     		strh	r2, [r3, #42]
 3945 00a8 FB68     		ldr	r3, [r7, #12]
 3946 00aa 234A     		ldr	r2, .L224
 3947 00ac DA62     		str	r2, [r3, #44]
 3948 00ae FB68     		ldr	r3, [r7, #12]
 3949 00b0 224A     		ldr	r2, .L224+4
 3950 00b2 5A63     		str	r2, [r3, #52]
 3951 00b4 0A23     		movs	r3, #10
 3952 00b6 FB18     		adds	r3, r7, r3
 3953 00b8 1A88     		ldrh	r2, [r3]
 3954 00ba FB68     		ldr	r3, [r7, #12]
 3955 00bc DA64     		str	r2, [r3, #76]
 3956 00be BB1D     		adds	r3, r7, #6
 3957 00c0 1B88     		ldrh	r3, [r3]
 3958 00c2 012B     		cmp	r3, #1
 3959 00c4 0BD1     		bne	.L222
 3960 00c6 0823     		movs	r3, #8
 3961 00c8 FB18     		adds	r3, r7, r3
 3962 00ca 1B88     		ldrh	r3, [r3]
 3963 00cc DAB2     		uxtb	r2, r3
 3964 00ce FB68     		ldr	r3, [r7, #12]
 3965 00d0 1B68     		ldr	r3, [r3]
 3966 00d2 9A62     		str	r2, [r3, #40]
 3967 00d4 FB68     		ldr	r3, [r7, #12]
 3968 00d6 0122     		movs	r2, #1
 3969 00d8 5242     		rsbs	r2, r2, #0
 3970 00da 1A65     		str	r2, [r3, #80]
ARM GAS  /tmp/ccnCrYSN.s 			page 70


 3971 00dc 0EE0     		b	.L223
 3972              	.L222:
 3973 00de 0821     		movs	r1, #8
 3974 00e0 7B18     		adds	r3, r7, r1
 3975 00e2 1B88     		ldrh	r3, [r3]
 3976 00e4 1B0A     		lsrs	r3, r3, #8
 3977 00e6 9BB2     		uxth	r3, r3
 3978 00e8 DAB2     		uxtb	r2, r3
 3979 00ea FB68     		ldr	r3, [r7, #12]
 3980 00ec 1B68     		ldr	r3, [r3]
 3981 00ee 9A62     		str	r2, [r3, #40]
 3982 00f0 7B18     		adds	r3, r7, r1
 3983 00f2 1B88     		ldrh	r3, [r3]
 3984 00f4 DBB2     		uxtb	r3, r3
 3985 00f6 1A00     		movs	r2, r3
 3986 00f8 FB68     		ldr	r3, [r7, #12]
 3987 00fa 1A65     		str	r2, [r3, #80]
 3988              	.L223:
 3989 00fc BB1D     		adds	r3, r7, #6
 3990 00fe 1B88     		ldrh	r3, [r3]
 3991 0100 DAB2     		uxtb	r2, r3
 3992 0102 8023     		movs	r3, #128
 3993 0104 5C04     		lsls	r4, r3, #17
 3994 0106 0A23     		movs	r3, #10
 3995 0108 FB18     		adds	r3, r7, r3
 3996 010a 1988     		ldrh	r1, [r3]
 3997 010c F868     		ldr	r0, [r7, #12]
 3998 010e 0C4B     		ldr	r3, .L224+8
 3999 0110 0093     		str	r3, [sp]
 4000 0112 2300     		movs	r3, r4
 4001 0114 FFF7FEFF 		bl	I2C_TransferConfig
 4002 0118 FB68     		ldr	r3, [r7, #12]
 4003 011a 4022     		movs	r2, #64
 4004 011c 0021     		movs	r1, #0
 4005 011e 9954     		strb	r1, [r3, r2]
 4006 0120 FB68     		ldr	r3, [r7, #12]
 4007 0122 0121     		movs	r1, #1
 4008 0124 1800     		movs	r0, r3
 4009 0126 FFF7FEFF 		bl	I2C_Enable_IRQ
 4010 012a 0023     		movs	r3, #0
 4011 012c 00E0     		b	.L219
 4012              	.L216:
 4013 012e 0223     		movs	r3, #2
 4014              	.L219:
 4015 0130 1800     		movs	r0, r3
 4016 0132 BD46     		mov	sp, r7
 4017 0134 05B0     		add	sp, sp, #20
 4018              		@ sp needed
 4019 0136 90BD     		pop	{r4, r7, pc}
 4020              	.L225:
 4021              		.align	2
 4022              	.L224:
 4023 0138 0000FFFF 		.word	-65536
 4024 013c 00000000 		.word	I2C_Mem_ISR_IT
 4025 0140 00200080 		.word	-2147475456
 4027              		.section	.text.HAL_I2C_Mem_Read_IT,"ax",%progbits
 4028              		.align	1
ARM GAS  /tmp/ccnCrYSN.s 			page 71


 4029              		.global	HAL_I2C_Mem_Read_IT
 4030              		.syntax unified
 4031              		.code	16
 4032              		.thumb_func
 4034              	HAL_I2C_Mem_Read_IT:
 4035              		@ args = 8, pretend = 0, frame = 16
 4036              		@ frame_needed = 1, uses_anonymous_args = 0
 4037 0000 90B5     		push	{r4, r7, lr}
 4038 0002 87B0     		sub	sp, sp, #28
 4039 0004 02AF     		add	r7, sp, #8
 4040 0006 F860     		str	r0, [r7, #12]
 4041 0008 0C00     		movs	r4, r1
 4042 000a 1000     		movs	r0, r2
 4043 000c 1900     		movs	r1, r3
 4044 000e 0A23     		movs	r3, #10
 4045 0010 FB18     		adds	r3, r7, r3
 4046 0012 221C     		adds	r2, r4, #0
 4047 0014 1A80     		strh	r2, [r3]
 4048 0016 0823     		movs	r3, #8
 4049 0018 FB18     		adds	r3, r7, r3
 4050 001a 021C     		adds	r2, r0, #0
 4051 001c 1A80     		strh	r2, [r3]
 4052 001e BB1D     		adds	r3, r7, #6
 4053 0020 0A1C     		adds	r2, r1, #0
 4054 0022 1A80     		strh	r2, [r3]
 4055 0024 FB68     		ldr	r3, [r7, #12]
 4056 0026 4122     		movs	r2, #65
 4057 0028 9B5C     		ldrb	r3, [r3, r2]
 4058 002a DBB2     		uxtb	r3, r3
 4059 002c 202B     		cmp	r3, #32
 4060 002e 00D0     		beq	.LCB4341
 4061 0030 78E0     		b	.L227	@long jump
 4062              	.LCB4341:
 4063 0032 3B6A     		ldr	r3, [r7, #32]
 4064 0034 002B     		cmp	r3, #0
 4065 0036 04D0     		beq	.L228
 4066 0038 2423     		movs	r3, #36
 4067 003a FB18     		adds	r3, r7, r3
 4068 003c 1B88     		ldrh	r3, [r3]
 4069 003e 002B     		cmp	r3, #0
 4070 0040 05D1     		bne	.L229
 4071              	.L228:
 4072 0042 FB68     		ldr	r3, [r7, #12]
 4073 0044 8022     		movs	r2, #128
 4074 0046 9200     		lsls	r2, r2, #2
 4075 0048 5A64     		str	r2, [r3, #68]
 4076 004a 0123     		movs	r3, #1
 4077 004c 6BE0     		b	.L230
 4078              	.L229:
 4079 004e FB68     		ldr	r3, [r7, #12]
 4080 0050 1B68     		ldr	r3, [r3]
 4081 0052 9A69     		ldr	r2, [r3, #24]
 4082 0054 8023     		movs	r3, #128
 4083 0056 1B02     		lsls	r3, r3, #8
 4084 0058 1A40     		ands	r2, r3
 4085 005a 8023     		movs	r3, #128
 4086 005c 1B02     		lsls	r3, r3, #8
ARM GAS  /tmp/ccnCrYSN.s 			page 72


 4087 005e 9A42     		cmp	r2, r3
 4088 0060 01D1     		bne	.L231
 4089 0062 0223     		movs	r3, #2
 4090 0064 5FE0     		b	.L230
 4091              	.L231:
 4092 0066 FB68     		ldr	r3, [r7, #12]
 4093 0068 4022     		movs	r2, #64
 4094 006a 9B5C     		ldrb	r3, [r3, r2]
 4095 006c 012B     		cmp	r3, #1
 4096 006e 01D1     		bne	.L232
 4097 0070 0223     		movs	r3, #2
 4098 0072 58E0     		b	.L230
 4099              	.L232:
 4100 0074 FB68     		ldr	r3, [r7, #12]
 4101 0076 4022     		movs	r2, #64
 4102 0078 0121     		movs	r1, #1
 4103 007a 9954     		strb	r1, [r3, r2]
 4104 007c FB68     		ldr	r3, [r7, #12]
 4105 007e 4122     		movs	r2, #65
 4106 0080 2221     		movs	r1, #34
 4107 0082 9954     		strb	r1, [r3, r2]
 4108 0084 FB68     		ldr	r3, [r7, #12]
 4109 0086 4222     		movs	r2, #66
 4110 0088 4021     		movs	r1, #64
 4111 008a 9954     		strb	r1, [r3, r2]
 4112 008c FB68     		ldr	r3, [r7, #12]
 4113 008e 0022     		movs	r2, #0
 4114 0090 5A64     		str	r2, [r3, #68]
 4115 0092 FB68     		ldr	r3, [r7, #12]
 4116 0094 3A6A     		ldr	r2, [r7, #32]
 4117 0096 5A62     		str	r2, [r3, #36]
 4118 0098 FB68     		ldr	r3, [r7, #12]
 4119 009a 2422     		movs	r2, #36
 4120 009c BA18     		adds	r2, r7, r2
 4121 009e 1288     		ldrh	r2, [r2]
 4122 00a0 5A85     		strh	r2, [r3, #42]
 4123 00a2 FB68     		ldr	r3, [r7, #12]
 4124 00a4 224A     		ldr	r2, .L235
 4125 00a6 DA62     		str	r2, [r3, #44]
 4126 00a8 FB68     		ldr	r3, [r7, #12]
 4127 00aa 224A     		ldr	r2, .L235+4
 4128 00ac 5A63     		str	r2, [r3, #52]
 4129 00ae 0A23     		movs	r3, #10
 4130 00b0 FB18     		adds	r3, r7, r3
 4131 00b2 1A88     		ldrh	r2, [r3]
 4132 00b4 FB68     		ldr	r3, [r7, #12]
 4133 00b6 DA64     		str	r2, [r3, #76]
 4134 00b8 BB1D     		adds	r3, r7, #6
 4135 00ba 1B88     		ldrh	r3, [r3]
 4136 00bc 012B     		cmp	r3, #1
 4137 00be 0BD1     		bne	.L233
 4138 00c0 0823     		movs	r3, #8
 4139 00c2 FB18     		adds	r3, r7, r3
 4140 00c4 1B88     		ldrh	r3, [r3]
 4141 00c6 DAB2     		uxtb	r2, r3
 4142 00c8 FB68     		ldr	r3, [r7, #12]
 4143 00ca 1B68     		ldr	r3, [r3]
ARM GAS  /tmp/ccnCrYSN.s 			page 73


 4144 00cc 9A62     		str	r2, [r3, #40]
 4145 00ce FB68     		ldr	r3, [r7, #12]
 4146 00d0 0122     		movs	r2, #1
 4147 00d2 5242     		rsbs	r2, r2, #0
 4148 00d4 1A65     		str	r2, [r3, #80]
 4149 00d6 0EE0     		b	.L234
 4150              	.L233:
 4151 00d8 0821     		movs	r1, #8
 4152 00da 7B18     		adds	r3, r7, r1
 4153 00dc 1B88     		ldrh	r3, [r3]
 4154 00de 1B0A     		lsrs	r3, r3, #8
 4155 00e0 9BB2     		uxth	r3, r3
 4156 00e2 DAB2     		uxtb	r2, r3
 4157 00e4 FB68     		ldr	r3, [r7, #12]
 4158 00e6 1B68     		ldr	r3, [r3]
 4159 00e8 9A62     		str	r2, [r3, #40]
 4160 00ea 7B18     		adds	r3, r7, r1
 4161 00ec 1B88     		ldrh	r3, [r3]
 4162 00ee DBB2     		uxtb	r3, r3
 4163 00f0 1A00     		movs	r2, r3
 4164 00f2 FB68     		ldr	r3, [r7, #12]
 4165 00f4 1A65     		str	r2, [r3, #80]
 4166              	.L234:
 4167 00f6 BB1D     		adds	r3, r7, #6
 4168 00f8 1B88     		ldrh	r3, [r3]
 4169 00fa DAB2     		uxtb	r2, r3
 4170 00fc 0A23     		movs	r3, #10
 4171 00fe FB18     		adds	r3, r7, r3
 4172 0100 1988     		ldrh	r1, [r3]
 4173 0102 F868     		ldr	r0, [r7, #12]
 4174 0104 0C4B     		ldr	r3, .L235+8
 4175 0106 0093     		str	r3, [sp]
 4176 0108 0023     		movs	r3, #0
 4177 010a FFF7FEFF 		bl	I2C_TransferConfig
 4178 010e FB68     		ldr	r3, [r7, #12]
 4179 0110 4022     		movs	r2, #64
 4180 0112 0021     		movs	r1, #0
 4181 0114 9954     		strb	r1, [r3, r2]
 4182 0116 FB68     		ldr	r3, [r7, #12]
 4183 0118 0121     		movs	r1, #1
 4184 011a 1800     		movs	r0, r3
 4185 011c FFF7FEFF 		bl	I2C_Enable_IRQ
 4186 0120 0023     		movs	r3, #0
 4187 0122 00E0     		b	.L230
 4188              	.L227:
 4189 0124 0223     		movs	r3, #2
 4190              	.L230:
 4191 0126 1800     		movs	r0, r3
 4192 0128 BD46     		mov	sp, r7
 4193 012a 05B0     		add	sp, sp, #20
 4194              		@ sp needed
 4195 012c 90BD     		pop	{r4, r7, pc}
 4196              	.L236:
 4197 012e C046     		.align	2
 4198              	.L235:
 4199 0130 0000FFFF 		.word	-65536
 4200 0134 00000000 		.word	I2C_Mem_ISR_IT
ARM GAS  /tmp/ccnCrYSN.s 			page 74


 4201 0138 00200080 		.word	-2147475456
 4203              		.section	.text.HAL_I2C_Mem_Write_DMA,"ax",%progbits
 4204              		.align	1
 4205              		.global	HAL_I2C_Mem_Write_DMA
 4206              		.syntax unified
 4207              		.code	16
 4208              		.thumb_func
 4210              	HAL_I2C_Mem_Write_DMA:
 4211              		@ args = 8, pretend = 0, frame = 24
 4212              		@ frame_needed = 1, uses_anonymous_args = 0
 4213 0000 B0B5     		push	{r4, r5, r7, lr}
 4214 0002 88B0     		sub	sp, sp, #32
 4215 0004 02AF     		add	r7, sp, #8
 4216 0006 F860     		str	r0, [r7, #12]
 4217 0008 0C00     		movs	r4, r1
 4218 000a 1000     		movs	r0, r2
 4219 000c 1900     		movs	r1, r3
 4220 000e 0A23     		movs	r3, #10
 4221 0010 FB18     		adds	r3, r7, r3
 4222 0012 221C     		adds	r2, r4, #0
 4223 0014 1A80     		strh	r2, [r3]
 4224 0016 0823     		movs	r3, #8
 4225 0018 FB18     		adds	r3, r7, r3
 4226 001a 021C     		adds	r2, r0, #0
 4227 001c 1A80     		strh	r2, [r3]
 4228 001e BB1D     		adds	r3, r7, #6
 4229 0020 0A1C     		adds	r2, r1, #0
 4230 0022 1A80     		strh	r2, [r3]
 4231 0024 FB68     		ldr	r3, [r7, #12]
 4232 0026 4122     		movs	r2, #65
 4233 0028 9B5C     		ldrb	r3, [r3, r2]
 4234 002a DBB2     		uxtb	r3, r3
 4235 002c 202B     		cmp	r3, #32
 4236 002e 00D0     		beq	.LCB4530
 4237 0030 D8E0     		b	.L238	@long jump
 4238              	.LCB4530:
 4239 0032 BB6A     		ldr	r3, [r7, #40]
 4240 0034 002B     		cmp	r3, #0
 4241 0036 04D0     		beq	.L239
 4242 0038 2C23     		movs	r3, #44
 4243 003a FB18     		adds	r3, r7, r3
 4244 003c 1B88     		ldrh	r3, [r3]
 4245 003e 002B     		cmp	r3, #0
 4246 0040 05D1     		bne	.L240
 4247              	.L239:
 4248 0042 FB68     		ldr	r3, [r7, #12]
 4249 0044 8022     		movs	r2, #128
 4250 0046 9200     		lsls	r2, r2, #2
 4251 0048 5A64     		str	r2, [r3, #68]
 4252 004a 0123     		movs	r3, #1
 4253 004c CBE0     		b	.L241
 4254              	.L240:
 4255 004e FB68     		ldr	r3, [r7, #12]
 4256 0050 1B68     		ldr	r3, [r3]
 4257 0052 9A69     		ldr	r2, [r3, #24]
 4258 0054 8023     		movs	r3, #128
 4259 0056 1B02     		lsls	r3, r3, #8
ARM GAS  /tmp/ccnCrYSN.s 			page 75


 4260 0058 1A40     		ands	r2, r3
 4261 005a 8023     		movs	r3, #128
 4262 005c 1B02     		lsls	r3, r3, #8
 4263 005e 9A42     		cmp	r2, r3
 4264 0060 01D1     		bne	.L242
 4265 0062 0223     		movs	r3, #2
 4266 0064 BFE0     		b	.L241
 4267              	.L242:
 4268 0066 FB68     		ldr	r3, [r7, #12]
 4269 0068 4022     		movs	r2, #64
 4270 006a 9B5C     		ldrb	r3, [r3, r2]
 4271 006c 012B     		cmp	r3, #1
 4272 006e 01D1     		bne	.L243
 4273 0070 0223     		movs	r3, #2
 4274 0072 B8E0     		b	.L241
 4275              	.L243:
 4276 0074 FB68     		ldr	r3, [r7, #12]
 4277 0076 4022     		movs	r2, #64
 4278 0078 0121     		movs	r1, #1
 4279 007a 9954     		strb	r1, [r3, r2]
 4280 007c FB68     		ldr	r3, [r7, #12]
 4281 007e 4122     		movs	r2, #65
 4282 0080 2121     		movs	r1, #33
 4283 0082 9954     		strb	r1, [r3, r2]
 4284 0084 FB68     		ldr	r3, [r7, #12]
 4285 0086 4222     		movs	r2, #66
 4286 0088 4021     		movs	r1, #64
 4287 008a 9954     		strb	r1, [r3, r2]
 4288 008c FB68     		ldr	r3, [r7, #12]
 4289 008e 0022     		movs	r2, #0
 4290 0090 5A64     		str	r2, [r3, #68]
 4291 0092 FB68     		ldr	r3, [r7, #12]
 4292 0094 BA6A     		ldr	r2, [r7, #40]
 4293 0096 5A62     		str	r2, [r3, #36]
 4294 0098 FB68     		ldr	r3, [r7, #12]
 4295 009a 2C22     		movs	r2, #44
 4296 009c BA18     		adds	r2, r7, r2
 4297 009e 1288     		ldrh	r2, [r2]
 4298 00a0 5A85     		strh	r2, [r3, #42]
 4299 00a2 FB68     		ldr	r3, [r7, #12]
 4300 00a4 524A     		ldr	r2, .L253
 4301 00a6 DA62     		str	r2, [r3, #44]
 4302 00a8 FB68     		ldr	r3, [r7, #12]
 4303 00aa 524A     		ldr	r2, .L253+4
 4304 00ac 5A63     		str	r2, [r3, #52]
 4305 00ae 0A23     		movs	r3, #10
 4306 00b0 FB18     		adds	r3, r7, r3
 4307 00b2 1A88     		ldrh	r2, [r3]
 4308 00b4 FB68     		ldr	r3, [r7, #12]
 4309 00b6 DA64     		str	r2, [r3, #76]
 4310 00b8 FB68     		ldr	r3, [r7, #12]
 4311 00ba 5B8D     		ldrh	r3, [r3, #42]
 4312 00bc 9BB2     		uxth	r3, r3
 4313 00be FF2B     		cmp	r3, #255
 4314 00c0 03D9     		bls	.L244
 4315 00c2 FB68     		ldr	r3, [r7, #12]
 4316 00c4 FF22     		movs	r2, #255
ARM GAS  /tmp/ccnCrYSN.s 			page 76


 4317 00c6 1A85     		strh	r2, [r3, #40]
 4318 00c8 04E0     		b	.L245
 4319              	.L244:
 4320 00ca FB68     		ldr	r3, [r7, #12]
 4321 00cc 5B8D     		ldrh	r3, [r3, #42]
 4322 00ce 9AB2     		uxth	r2, r3
 4323 00d0 FB68     		ldr	r3, [r7, #12]
 4324 00d2 1A85     		strh	r2, [r3, #40]
 4325              	.L245:
 4326 00d4 BB1D     		adds	r3, r7, #6
 4327 00d6 1B88     		ldrh	r3, [r3]
 4328 00d8 012B     		cmp	r3, #1
 4329 00da 0BD1     		bne	.L246
 4330 00dc 0823     		movs	r3, #8
 4331 00de FB18     		adds	r3, r7, r3
 4332 00e0 1B88     		ldrh	r3, [r3]
 4333 00e2 DAB2     		uxtb	r2, r3
 4334 00e4 FB68     		ldr	r3, [r7, #12]
 4335 00e6 1B68     		ldr	r3, [r3]
 4336 00e8 9A62     		str	r2, [r3, #40]
 4337 00ea FB68     		ldr	r3, [r7, #12]
 4338 00ec 0122     		movs	r2, #1
 4339 00ee 5242     		rsbs	r2, r2, #0
 4340 00f0 1A65     		str	r2, [r3, #80]
 4341 00f2 0EE0     		b	.L247
 4342              	.L246:
 4343 00f4 0821     		movs	r1, #8
 4344 00f6 7B18     		adds	r3, r7, r1
 4345 00f8 1B88     		ldrh	r3, [r3]
 4346 00fa 1B0A     		lsrs	r3, r3, #8
 4347 00fc 9BB2     		uxth	r3, r3
 4348 00fe DAB2     		uxtb	r2, r3
 4349 0100 FB68     		ldr	r3, [r7, #12]
 4350 0102 1B68     		ldr	r3, [r3]
 4351 0104 9A62     		str	r2, [r3, #40]
 4352 0106 7B18     		adds	r3, r7, r1
 4353 0108 1B88     		ldrh	r3, [r3]
 4354 010a DBB2     		uxtb	r3, r3
 4355 010c 1A00     		movs	r2, r3
 4356 010e FB68     		ldr	r3, [r7, #12]
 4357 0110 1A65     		str	r2, [r3, #80]
 4358              	.L247:
 4359 0112 FB68     		ldr	r3, [r7, #12]
 4360 0114 9B6B     		ldr	r3, [r3, #56]
 4361 0116 002B     		cmp	r3, #0
 4362 0118 23D0     		beq	.L248
 4363 011a FB68     		ldr	r3, [r7, #12]
 4364 011c 9B6B     		ldr	r3, [r3, #56]
 4365 011e 364A     		ldr	r2, .L253+8
 4366 0120 9A62     		str	r2, [r3, #40]
 4367 0122 FB68     		ldr	r3, [r7, #12]
 4368 0124 9B6B     		ldr	r3, [r3, #56]
 4369 0126 354A     		ldr	r2, .L253+12
 4370 0128 1A63     		str	r2, [r3, #48]
 4371 012a FB68     		ldr	r3, [r7, #12]
 4372 012c 9B6B     		ldr	r3, [r3, #56]
 4373 012e 0022     		movs	r2, #0
ARM GAS  /tmp/ccnCrYSN.s 			page 77


 4374 0130 DA62     		str	r2, [r3, #44]
 4375 0132 FB68     		ldr	r3, [r7, #12]
 4376 0134 9B6B     		ldr	r3, [r3, #56]
 4377 0136 0022     		movs	r2, #0
 4378 0138 5A63     		str	r2, [r3, #52]
 4379 013a FB68     		ldr	r3, [r7, #12]
 4380 013c 986B     		ldr	r0, [r3, #56]
 4381 013e B96A     		ldr	r1, [r7, #40]
 4382 0140 FB68     		ldr	r3, [r7, #12]
 4383 0142 1B68     		ldr	r3, [r3]
 4384 0144 2833     		adds	r3, r3, #40
 4385 0146 1A00     		movs	r2, r3
 4386 0148 FB68     		ldr	r3, [r7, #12]
 4387 014a 1B8D     		ldrh	r3, [r3, #40]
 4388 014c 1725     		movs	r5, #23
 4389 014e 7C19     		adds	r4, r7, r5
 4390 0150 FFF7FEFF 		bl	HAL_DMA_Start_IT
 4391 0154 0300     		movs	r3, r0
 4392 0156 2370     		strb	r3, [r4]
 4393 0158 7B19     		adds	r3, r7, r5
 4394 015a 1B78     		ldrb	r3, [r3]
 4395 015c 002B     		cmp	r3, #0
 4396 015e 2DD1     		bne	.L250
 4397 0160 13E0     		b	.L252
 4398              	.L248:
 4399 0162 FB68     		ldr	r3, [r7, #12]
 4400 0164 4122     		movs	r2, #65
 4401 0166 2021     		movs	r1, #32
 4402 0168 9954     		strb	r1, [r3, r2]
 4403 016a FB68     		ldr	r3, [r7, #12]
 4404 016c 4222     		movs	r2, #66
 4405 016e 0021     		movs	r1, #0
 4406 0170 9954     		strb	r1, [r3, r2]
 4407 0172 FB68     		ldr	r3, [r7, #12]
 4408 0174 5B6C     		ldr	r3, [r3, #68]
 4409 0176 8022     		movs	r2, #128
 4410 0178 1A43     		orrs	r2, r3
 4411 017a FB68     		ldr	r3, [r7, #12]
 4412 017c 5A64     		str	r2, [r3, #68]
 4413 017e FB68     		ldr	r3, [r7, #12]
 4414 0180 4022     		movs	r2, #64
 4415 0182 0021     		movs	r1, #0
 4416 0184 9954     		strb	r1, [r3, r2]
 4417 0186 0123     		movs	r3, #1
 4418 0188 2DE0     		b	.L241
 4419              	.L252:
 4420 018a BB1D     		adds	r3, r7, #6
 4421 018c 1B88     		ldrh	r3, [r3]
 4422 018e DAB2     		uxtb	r2, r3
 4423 0190 8023     		movs	r3, #128
 4424 0192 5C04     		lsls	r4, r3, #17
 4425 0194 0A23     		movs	r3, #10
 4426 0196 FB18     		adds	r3, r7, r3
 4427 0198 1988     		ldrh	r1, [r3]
 4428 019a F868     		ldr	r0, [r7, #12]
 4429 019c 184B     		ldr	r3, .L253+16
 4430 019e 0093     		str	r3, [sp]
ARM GAS  /tmp/ccnCrYSN.s 			page 78


 4431 01a0 2300     		movs	r3, r4
 4432 01a2 FFF7FEFF 		bl	I2C_TransferConfig
 4433 01a6 FB68     		ldr	r3, [r7, #12]
 4434 01a8 4022     		movs	r2, #64
 4435 01aa 0021     		movs	r1, #0
 4436 01ac 9954     		strb	r1, [r3, r2]
 4437 01ae FB68     		ldr	r3, [r7, #12]
 4438 01b0 0121     		movs	r1, #1
 4439 01b2 1800     		movs	r0, r3
 4440 01b4 FFF7FEFF 		bl	I2C_Enable_IRQ
 4441 01b8 0023     		movs	r3, #0
 4442 01ba 14E0     		b	.L241
 4443              	.L250:
 4444 01bc FB68     		ldr	r3, [r7, #12]
 4445 01be 4122     		movs	r2, #65
 4446 01c0 2021     		movs	r1, #32
 4447 01c2 9954     		strb	r1, [r3, r2]
 4448 01c4 FB68     		ldr	r3, [r7, #12]
 4449 01c6 4222     		movs	r2, #66
 4450 01c8 0021     		movs	r1, #0
 4451 01ca 9954     		strb	r1, [r3, r2]
 4452 01cc FB68     		ldr	r3, [r7, #12]
 4453 01ce 5B6C     		ldr	r3, [r3, #68]
 4454 01d0 1022     		movs	r2, #16
 4455 01d2 1A43     		orrs	r2, r3
 4456 01d4 FB68     		ldr	r3, [r7, #12]
 4457 01d6 5A64     		str	r2, [r3, #68]
 4458 01d8 FB68     		ldr	r3, [r7, #12]
 4459 01da 4022     		movs	r2, #64
 4460 01dc 0021     		movs	r1, #0
 4461 01de 9954     		strb	r1, [r3, r2]
 4462 01e0 0123     		movs	r3, #1
 4463 01e2 00E0     		b	.L241
 4464              	.L238:
 4465 01e4 0223     		movs	r3, #2
 4466              	.L241:
 4467 01e6 1800     		movs	r0, r3
 4468 01e8 BD46     		mov	sp, r7
 4469 01ea 06B0     		add	sp, sp, #24
 4470              		@ sp needed
 4471 01ec B0BD     		pop	{r4, r5, r7, pc}
 4472              	.L254:
 4473 01ee C046     		.align	2
 4474              	.L253:
 4475 01f0 0000FFFF 		.word	-65536
 4476 01f4 00000000 		.word	I2C_Mem_ISR_DMA
 4477 01f8 00000000 		.word	I2C_DMAMasterTransmitCplt
 4478 01fc 00000000 		.word	I2C_DMAError
 4479 0200 00200080 		.word	-2147475456
 4481              		.section	.text.HAL_I2C_Mem_Read_DMA,"ax",%progbits
 4482              		.align	1
 4483              		.global	HAL_I2C_Mem_Read_DMA
 4484              		.syntax unified
 4485              		.code	16
 4486              		.thumb_func
 4488              	HAL_I2C_Mem_Read_DMA:
 4489              		@ args = 8, pretend = 0, frame = 24
ARM GAS  /tmp/ccnCrYSN.s 			page 79


 4490              		@ frame_needed = 1, uses_anonymous_args = 0
 4491 0000 B0B5     		push	{r4, r5, r7, lr}
 4492 0002 88B0     		sub	sp, sp, #32
 4493 0004 02AF     		add	r7, sp, #8
 4494 0006 F860     		str	r0, [r7, #12]
 4495 0008 0C00     		movs	r4, r1
 4496 000a 1000     		movs	r0, r2
 4497 000c 1900     		movs	r1, r3
 4498 000e 0A23     		movs	r3, #10
 4499 0010 FB18     		adds	r3, r7, r3
 4500 0012 221C     		adds	r2, r4, #0
 4501 0014 1A80     		strh	r2, [r3]
 4502 0016 0823     		movs	r3, #8
 4503 0018 FB18     		adds	r3, r7, r3
 4504 001a 021C     		adds	r2, r0, #0
 4505 001c 1A80     		strh	r2, [r3]
 4506 001e BB1D     		adds	r3, r7, #6
 4507 0020 0A1C     		adds	r2, r1, #0
 4508 0022 1A80     		strh	r2, [r3]
 4509 0024 FB68     		ldr	r3, [r7, #12]
 4510 0026 4122     		movs	r2, #65
 4511 0028 9B5C     		ldrb	r3, [r3, r2]
 4512 002a DBB2     		uxtb	r3, r3
 4513 002c 202B     		cmp	r3, #32
 4514 002e 00D0     		beq	.LCB4832
 4515 0030 D6E0     		b	.L256	@long jump
 4516              	.LCB4832:
 4517 0032 BB6A     		ldr	r3, [r7, #40]
 4518 0034 002B     		cmp	r3, #0
 4519 0036 04D0     		beq	.L257
 4520 0038 2C23     		movs	r3, #44
 4521 003a FB18     		adds	r3, r7, r3
 4522 003c 1B88     		ldrh	r3, [r3]
 4523 003e 002B     		cmp	r3, #0
 4524 0040 05D1     		bne	.L258
 4525              	.L257:
 4526 0042 FB68     		ldr	r3, [r7, #12]
 4527 0044 8022     		movs	r2, #128
 4528 0046 9200     		lsls	r2, r2, #2
 4529 0048 5A64     		str	r2, [r3, #68]
 4530 004a 0123     		movs	r3, #1
 4531 004c C9E0     		b	.L259
 4532              	.L258:
 4533 004e FB68     		ldr	r3, [r7, #12]
 4534 0050 1B68     		ldr	r3, [r3]
 4535 0052 9A69     		ldr	r2, [r3, #24]
 4536 0054 8023     		movs	r3, #128
 4537 0056 1B02     		lsls	r3, r3, #8
 4538 0058 1A40     		ands	r2, r3
 4539 005a 8023     		movs	r3, #128
 4540 005c 1B02     		lsls	r3, r3, #8
 4541 005e 9A42     		cmp	r2, r3
 4542 0060 01D1     		bne	.L260
 4543 0062 0223     		movs	r3, #2
 4544 0064 BDE0     		b	.L259
 4545              	.L260:
 4546 0066 FB68     		ldr	r3, [r7, #12]
ARM GAS  /tmp/ccnCrYSN.s 			page 80


 4547 0068 4022     		movs	r2, #64
 4548 006a 9B5C     		ldrb	r3, [r3, r2]
 4549 006c 012B     		cmp	r3, #1
 4550 006e 01D1     		bne	.L261
 4551 0070 0223     		movs	r3, #2
 4552 0072 B6E0     		b	.L259
 4553              	.L261:
 4554 0074 FB68     		ldr	r3, [r7, #12]
 4555 0076 4022     		movs	r2, #64
 4556 0078 0121     		movs	r1, #1
 4557 007a 9954     		strb	r1, [r3, r2]
 4558 007c FB68     		ldr	r3, [r7, #12]
 4559 007e 4122     		movs	r2, #65
 4560 0080 2221     		movs	r1, #34
 4561 0082 9954     		strb	r1, [r3, r2]
 4562 0084 FB68     		ldr	r3, [r7, #12]
 4563 0086 4222     		movs	r2, #66
 4564 0088 4021     		movs	r1, #64
 4565 008a 9954     		strb	r1, [r3, r2]
 4566 008c FB68     		ldr	r3, [r7, #12]
 4567 008e 0022     		movs	r2, #0
 4568 0090 5A64     		str	r2, [r3, #68]
 4569 0092 FB68     		ldr	r3, [r7, #12]
 4570 0094 BA6A     		ldr	r2, [r7, #40]
 4571 0096 5A62     		str	r2, [r3, #36]
 4572 0098 FB68     		ldr	r3, [r7, #12]
 4573 009a 2C22     		movs	r2, #44
 4574 009c BA18     		adds	r2, r7, r2
 4575 009e 1288     		ldrh	r2, [r2]
 4576 00a0 5A85     		strh	r2, [r3, #42]
 4577 00a2 FB68     		ldr	r3, [r7, #12]
 4578 00a4 514A     		ldr	r2, .L271
 4579 00a6 DA62     		str	r2, [r3, #44]
 4580 00a8 FB68     		ldr	r3, [r7, #12]
 4581 00aa 514A     		ldr	r2, .L271+4
 4582 00ac 5A63     		str	r2, [r3, #52]
 4583 00ae 0A23     		movs	r3, #10
 4584 00b0 FB18     		adds	r3, r7, r3
 4585 00b2 1A88     		ldrh	r2, [r3]
 4586 00b4 FB68     		ldr	r3, [r7, #12]
 4587 00b6 DA64     		str	r2, [r3, #76]
 4588 00b8 FB68     		ldr	r3, [r7, #12]
 4589 00ba 5B8D     		ldrh	r3, [r3, #42]
 4590 00bc 9BB2     		uxth	r3, r3
 4591 00be FF2B     		cmp	r3, #255
 4592 00c0 03D9     		bls	.L262
 4593 00c2 FB68     		ldr	r3, [r7, #12]
 4594 00c4 FF22     		movs	r2, #255
 4595 00c6 1A85     		strh	r2, [r3, #40]
 4596 00c8 04E0     		b	.L263
 4597              	.L262:
 4598 00ca FB68     		ldr	r3, [r7, #12]
 4599 00cc 5B8D     		ldrh	r3, [r3, #42]
 4600 00ce 9AB2     		uxth	r2, r3
 4601 00d0 FB68     		ldr	r3, [r7, #12]
 4602 00d2 1A85     		strh	r2, [r3, #40]
 4603              	.L263:
ARM GAS  /tmp/ccnCrYSN.s 			page 81


 4604 00d4 BB1D     		adds	r3, r7, #6
 4605 00d6 1B88     		ldrh	r3, [r3]
 4606 00d8 012B     		cmp	r3, #1
 4607 00da 0BD1     		bne	.L264
 4608 00dc 0823     		movs	r3, #8
 4609 00de FB18     		adds	r3, r7, r3
 4610 00e0 1B88     		ldrh	r3, [r3]
 4611 00e2 DAB2     		uxtb	r2, r3
 4612 00e4 FB68     		ldr	r3, [r7, #12]
 4613 00e6 1B68     		ldr	r3, [r3]
 4614 00e8 9A62     		str	r2, [r3, #40]
 4615 00ea FB68     		ldr	r3, [r7, #12]
 4616 00ec 0122     		movs	r2, #1
 4617 00ee 5242     		rsbs	r2, r2, #0
 4618 00f0 1A65     		str	r2, [r3, #80]
 4619 00f2 0EE0     		b	.L265
 4620              	.L264:
 4621 00f4 0821     		movs	r1, #8
 4622 00f6 7B18     		adds	r3, r7, r1
 4623 00f8 1B88     		ldrh	r3, [r3]
 4624 00fa 1B0A     		lsrs	r3, r3, #8
 4625 00fc 9BB2     		uxth	r3, r3
 4626 00fe DAB2     		uxtb	r2, r3
 4627 0100 FB68     		ldr	r3, [r7, #12]
 4628 0102 1B68     		ldr	r3, [r3]
 4629 0104 9A62     		str	r2, [r3, #40]
 4630 0106 7B18     		adds	r3, r7, r1
 4631 0108 1B88     		ldrh	r3, [r3]
 4632 010a DBB2     		uxtb	r3, r3
 4633 010c 1A00     		movs	r2, r3
 4634 010e FB68     		ldr	r3, [r7, #12]
 4635 0110 1A65     		str	r2, [r3, #80]
 4636              	.L265:
 4637 0112 FB68     		ldr	r3, [r7, #12]
 4638 0114 DB6B     		ldr	r3, [r3, #60]
 4639 0116 002B     		cmp	r3, #0
 4640 0118 23D0     		beq	.L266
 4641 011a FB68     		ldr	r3, [r7, #12]
 4642 011c DB6B     		ldr	r3, [r3, #60]
 4643 011e 354A     		ldr	r2, .L271+8
 4644 0120 9A62     		str	r2, [r3, #40]
 4645 0122 FB68     		ldr	r3, [r7, #12]
 4646 0124 DB6B     		ldr	r3, [r3, #60]
 4647 0126 344A     		ldr	r2, .L271+12
 4648 0128 1A63     		str	r2, [r3, #48]
 4649 012a FB68     		ldr	r3, [r7, #12]
 4650 012c DB6B     		ldr	r3, [r3, #60]
 4651 012e 0022     		movs	r2, #0
 4652 0130 DA62     		str	r2, [r3, #44]
 4653 0132 FB68     		ldr	r3, [r7, #12]
 4654 0134 DB6B     		ldr	r3, [r3, #60]
 4655 0136 0022     		movs	r2, #0
 4656 0138 5A63     		str	r2, [r3, #52]
 4657 013a FB68     		ldr	r3, [r7, #12]
 4658 013c D86B     		ldr	r0, [r3, #60]
 4659 013e FB68     		ldr	r3, [r7, #12]
 4660 0140 1B68     		ldr	r3, [r3]
ARM GAS  /tmp/ccnCrYSN.s 			page 82


 4661 0142 2433     		adds	r3, r3, #36
 4662 0144 1900     		movs	r1, r3
 4663 0146 BA6A     		ldr	r2, [r7, #40]
 4664 0148 FB68     		ldr	r3, [r7, #12]
 4665 014a 1B8D     		ldrh	r3, [r3, #40]
 4666 014c 1725     		movs	r5, #23
 4667 014e 7C19     		adds	r4, r7, r5
 4668 0150 FFF7FEFF 		bl	HAL_DMA_Start_IT
 4669 0154 0300     		movs	r3, r0
 4670 0156 2370     		strb	r3, [r4]
 4671 0158 7B19     		adds	r3, r7, r5
 4672 015a 1B78     		ldrb	r3, [r3]
 4673 015c 002B     		cmp	r3, #0
 4674 015e 2BD1     		bne	.L268
 4675 0160 13E0     		b	.L270
 4676              	.L266:
 4677 0162 FB68     		ldr	r3, [r7, #12]
 4678 0164 4122     		movs	r2, #65
 4679 0166 2021     		movs	r1, #32
 4680 0168 9954     		strb	r1, [r3, r2]
 4681 016a FB68     		ldr	r3, [r7, #12]
 4682 016c 4222     		movs	r2, #66
 4683 016e 0021     		movs	r1, #0
 4684 0170 9954     		strb	r1, [r3, r2]
 4685 0172 FB68     		ldr	r3, [r7, #12]
 4686 0174 5B6C     		ldr	r3, [r3, #68]
 4687 0176 8022     		movs	r2, #128
 4688 0178 1A43     		orrs	r2, r3
 4689 017a FB68     		ldr	r3, [r7, #12]
 4690 017c 5A64     		str	r2, [r3, #68]
 4691 017e FB68     		ldr	r3, [r7, #12]
 4692 0180 4022     		movs	r2, #64
 4693 0182 0021     		movs	r1, #0
 4694 0184 9954     		strb	r1, [r3, r2]
 4695 0186 0123     		movs	r3, #1
 4696 0188 2BE0     		b	.L259
 4697              	.L270:
 4698 018a BB1D     		adds	r3, r7, #6
 4699 018c 1B88     		ldrh	r3, [r3]
 4700 018e DAB2     		uxtb	r2, r3
 4701 0190 0A23     		movs	r3, #10
 4702 0192 FB18     		adds	r3, r7, r3
 4703 0194 1988     		ldrh	r1, [r3]
 4704 0196 F868     		ldr	r0, [r7, #12]
 4705 0198 184B     		ldr	r3, .L271+16
 4706 019a 0093     		str	r3, [sp]
 4707 019c 0023     		movs	r3, #0
 4708 019e FFF7FEFF 		bl	I2C_TransferConfig
 4709 01a2 FB68     		ldr	r3, [r7, #12]
 4710 01a4 4022     		movs	r2, #64
 4711 01a6 0021     		movs	r1, #0
 4712 01a8 9954     		strb	r1, [r3, r2]
 4713 01aa FB68     		ldr	r3, [r7, #12]
 4714 01ac 0121     		movs	r1, #1
 4715 01ae 1800     		movs	r0, r3
 4716 01b0 FFF7FEFF 		bl	I2C_Enable_IRQ
 4717 01b4 0023     		movs	r3, #0
ARM GAS  /tmp/ccnCrYSN.s 			page 83


 4718 01b6 14E0     		b	.L259
 4719              	.L268:
 4720 01b8 FB68     		ldr	r3, [r7, #12]
 4721 01ba 4122     		movs	r2, #65
 4722 01bc 2021     		movs	r1, #32
 4723 01be 9954     		strb	r1, [r3, r2]
 4724 01c0 FB68     		ldr	r3, [r7, #12]
 4725 01c2 4222     		movs	r2, #66
 4726 01c4 0021     		movs	r1, #0
 4727 01c6 9954     		strb	r1, [r3, r2]
 4728 01c8 FB68     		ldr	r3, [r7, #12]
 4729 01ca 5B6C     		ldr	r3, [r3, #68]
 4730 01cc 1022     		movs	r2, #16
 4731 01ce 1A43     		orrs	r2, r3
 4732 01d0 FB68     		ldr	r3, [r7, #12]
 4733 01d2 5A64     		str	r2, [r3, #68]
 4734 01d4 FB68     		ldr	r3, [r7, #12]
 4735 01d6 4022     		movs	r2, #64
 4736 01d8 0021     		movs	r1, #0
 4737 01da 9954     		strb	r1, [r3, r2]
 4738 01dc 0123     		movs	r3, #1
 4739 01de 00E0     		b	.L259
 4740              	.L256:
 4741 01e0 0223     		movs	r3, #2
 4742              	.L259:
 4743 01e2 1800     		movs	r0, r3
 4744 01e4 BD46     		mov	sp, r7
 4745 01e6 06B0     		add	sp, sp, #24
 4746              		@ sp needed
 4747 01e8 B0BD     		pop	{r4, r5, r7, pc}
 4748              	.L272:
 4749 01ea C046     		.align	2
 4750              	.L271:
 4751 01ec 0000FFFF 		.word	-65536
 4752 01f0 00000000 		.word	I2C_Mem_ISR_DMA
 4753 01f4 00000000 		.word	I2C_DMAMasterReceiveCplt
 4754 01f8 00000000 		.word	I2C_DMAError
 4755 01fc 00200080 		.word	-2147475456
 4757              		.section	.text.HAL_I2C_IsDeviceReady,"ax",%progbits
 4758              		.align	1
 4759              		.global	HAL_I2C_IsDeviceReady
 4760              		.syntax unified
 4761              		.code	16
 4762              		.thumb_func
 4764              	HAL_I2C_IsDeviceReady:
 4765              		@ args = 0, pretend = 0, frame = 32
 4766              		@ frame_needed = 1, uses_anonymous_args = 0
 4767 0000 80B5     		push	{r7, lr}
 4768 0002 8AB0     		sub	sp, sp, #40
 4769 0004 02AF     		add	r7, sp, #8
 4770 0006 F860     		str	r0, [r7, #12]
 4771 0008 7A60     		str	r2, [r7, #4]
 4772 000a 3B60     		str	r3, [r7]
 4773 000c 0A23     		movs	r3, #10
 4774 000e FB18     		adds	r3, r7, r3
 4775 0010 0A1C     		adds	r2, r1, #0
 4776 0012 1A80     		strh	r2, [r3]
ARM GAS  /tmp/ccnCrYSN.s 			page 84


 4777 0014 0023     		movs	r3, #0
 4778 0016 7B61     		str	r3, [r7, #20]
 4779 0018 FB68     		ldr	r3, [r7, #12]
 4780 001a 4122     		movs	r2, #65
 4781 001c 9B5C     		ldrb	r3, [r3, r2]
 4782 001e DBB2     		uxtb	r3, r3
 4783 0020 202B     		cmp	r3, #32
 4784 0022 00D0     		beq	.LCB5126
 4785 0024 DBE0     		b	.L274	@long jump
 4786              	.LCB5126:
 4787 0026 FB68     		ldr	r3, [r7, #12]
 4788 0028 1B68     		ldr	r3, [r3]
 4789 002a 9A69     		ldr	r2, [r3, #24]
 4790 002c 8023     		movs	r3, #128
 4791 002e 1B02     		lsls	r3, r3, #8
 4792 0030 1A40     		ands	r2, r3
 4793 0032 8023     		movs	r3, #128
 4794 0034 1B02     		lsls	r3, r3, #8
 4795 0036 9A42     		cmp	r2, r3
 4796 0038 01D1     		bne	.L275
 4797 003a 0223     		movs	r3, #2
 4798 003c D0E0     		b	.L276
 4799              	.L275:
 4800 003e FB68     		ldr	r3, [r7, #12]
 4801 0040 4022     		movs	r2, #64
 4802 0042 9B5C     		ldrb	r3, [r3, r2]
 4803 0044 012B     		cmp	r3, #1
 4804 0046 01D1     		bne	.L277
 4805 0048 0223     		movs	r3, #2
 4806 004a C9E0     		b	.L276
 4807              	.L277:
 4808 004c FB68     		ldr	r3, [r7, #12]
 4809 004e 4022     		movs	r2, #64
 4810 0050 0121     		movs	r1, #1
 4811 0052 9954     		strb	r1, [r3, r2]
 4812 0054 FB68     		ldr	r3, [r7, #12]
 4813 0056 4122     		movs	r2, #65
 4814 0058 2421     		movs	r1, #36
 4815 005a 9954     		strb	r1, [r3, r2]
 4816 005c FB68     		ldr	r3, [r7, #12]
 4817 005e 0022     		movs	r2, #0
 4818 0060 5A64     		str	r2, [r3, #68]
 4819              	.L288:
 4820 0062 FB68     		ldr	r3, [r7, #12]
 4821 0064 DB68     		ldr	r3, [r3, #12]
 4822 0066 012B     		cmp	r3, #1
 4823 0068 07D1     		bne	.L278
 4824 006a 0A23     		movs	r3, #10
 4825 006c FB18     		adds	r3, r7, r3
 4826 006e 1B88     		ldrh	r3, [r3]
 4827 0070 9B05     		lsls	r3, r3, #22
 4828 0072 9B0D     		lsrs	r3, r3, #22
 4829 0074 5C4A     		ldr	r2, .L290
 4830 0076 1A43     		orrs	r2, r3
 4831 0078 06E0     		b	.L279
 4832              	.L278:
 4833 007a 0A23     		movs	r3, #10
ARM GAS  /tmp/ccnCrYSN.s 			page 85


 4834 007c FB18     		adds	r3, r7, r3
 4835 007e 1B88     		ldrh	r3, [r3]
 4836 0080 9B05     		lsls	r3, r3, #22
 4837 0082 9B0D     		lsrs	r3, r3, #22
 4838 0084 594A     		ldr	r2, .L290+4
 4839 0086 1A43     		orrs	r2, r3
 4840              	.L279:
 4841 0088 FB68     		ldr	r3, [r7, #12]
 4842 008a 1B68     		ldr	r3, [r3]
 4843 008c 5A60     		str	r2, [r3, #4]
 4844 008e FFF7FEFF 		bl	HAL_GetTick
 4845 0092 0300     		movs	r3, r0
 4846 0094 BB61     		str	r3, [r7, #24]
 4847 0096 FB68     		ldr	r3, [r7, #12]
 4848 0098 1B68     		ldr	r3, [r3]
 4849 009a 9B69     		ldr	r3, [r3, #24]
 4850 009c 2022     		movs	r2, #32
 4851 009e 1340     		ands	r3, r2
 4852 00a0 9B06     		lsls	r3, r3, #26
 4853 00a2 DB0F     		lsrs	r3, r3, #31
 4854 00a4 DAB2     		uxtb	r2, r3
 4855 00a6 1F23     		movs	r3, #31
 4856 00a8 FB18     		adds	r3, r7, r3
 4857 00aa 1A70     		strb	r2, [r3]
 4858 00ac FB68     		ldr	r3, [r7, #12]
 4859 00ae 1B68     		ldr	r3, [r3]
 4860 00b0 9B69     		ldr	r3, [r3, #24]
 4861 00b2 1022     		movs	r2, #16
 4862 00b4 1340     		ands	r3, r2
 4863 00b6 DB06     		lsls	r3, r3, #27
 4864 00b8 DB0F     		lsrs	r3, r3, #31
 4865 00ba DAB2     		uxtb	r2, r3
 4866 00bc 1E23     		movs	r3, #30
 4867 00be FB18     		adds	r3, r7, r3
 4868 00c0 1A70     		strb	r2, [r3]
 4869 00c2 33E0     		b	.L280
 4870              	.L284:
 4871 00c4 3B68     		ldr	r3, [r7]
 4872 00c6 0133     		adds	r3, r3, #1
 4873 00c8 1AD0     		beq	.L281
 4874 00ca FFF7FEFF 		bl	HAL_GetTick
 4875 00ce 0200     		movs	r2, r0
 4876 00d0 BB69     		ldr	r3, [r7, #24]
 4877 00d2 D31A     		subs	r3, r2, r3
 4878 00d4 3A68     		ldr	r2, [r7]
 4879 00d6 9A42     		cmp	r2, r3
 4880 00d8 02D3     		bcc	.L282
 4881 00da 3B68     		ldr	r3, [r7]
 4882 00dc 002B     		cmp	r3, #0
 4883 00de 0FD1     		bne	.L281
 4884              	.L282:
 4885 00e0 FB68     		ldr	r3, [r7, #12]
 4886 00e2 4122     		movs	r2, #65
 4887 00e4 2021     		movs	r1, #32
 4888 00e6 9954     		strb	r1, [r3, r2]
 4889 00e8 FB68     		ldr	r3, [r7, #12]
 4890 00ea 5B6C     		ldr	r3, [r3, #68]
ARM GAS  /tmp/ccnCrYSN.s 			page 86


 4891 00ec 2022     		movs	r2, #32
 4892 00ee 1A43     		orrs	r2, r3
 4893 00f0 FB68     		ldr	r3, [r7, #12]
 4894 00f2 5A64     		str	r2, [r3, #68]
 4895 00f4 FB68     		ldr	r3, [r7, #12]
 4896 00f6 4022     		movs	r2, #64
 4897 00f8 0021     		movs	r1, #0
 4898 00fa 9954     		strb	r1, [r3, r2]
 4899 00fc 0123     		movs	r3, #1
 4900 00fe 6FE0     		b	.L276
 4901              	.L281:
 4902 0100 FB68     		ldr	r3, [r7, #12]
 4903 0102 1B68     		ldr	r3, [r3]
 4904 0104 9B69     		ldr	r3, [r3, #24]
 4905 0106 2022     		movs	r2, #32
 4906 0108 1340     		ands	r3, r2
 4907 010a 9B06     		lsls	r3, r3, #26
 4908 010c DB0F     		lsrs	r3, r3, #31
 4909 010e DAB2     		uxtb	r2, r3
 4910 0110 1F23     		movs	r3, #31
 4911 0112 FB18     		adds	r3, r7, r3
 4912 0114 1A70     		strb	r2, [r3]
 4913 0116 FB68     		ldr	r3, [r7, #12]
 4914 0118 1B68     		ldr	r3, [r3]
 4915 011a 9B69     		ldr	r3, [r3, #24]
 4916 011c 1022     		movs	r2, #16
 4917 011e 1340     		ands	r3, r2
 4918 0120 DB06     		lsls	r3, r3, #27
 4919 0122 DB0F     		lsrs	r3, r3, #31
 4920 0124 DAB2     		uxtb	r2, r3
 4921 0126 1E23     		movs	r3, #30
 4922 0128 FB18     		adds	r3, r7, r3
 4923 012a 1A70     		strb	r2, [r3]
 4924              	.L280:
 4925 012c 1F23     		movs	r3, #31
 4926 012e FB18     		adds	r3, r7, r3
 4927 0130 1B78     		ldrb	r3, [r3]
 4928 0132 002B     		cmp	r3, #0
 4929 0134 04D1     		bne	.L283
 4930 0136 1E23     		movs	r3, #30
 4931 0138 FB18     		adds	r3, r7, r3
 4932 013a 1B78     		ldrb	r3, [r3]
 4933 013c 002B     		cmp	r3, #0
 4934 013e C1D0     		beq	.L284
 4935              	.L283:
 4936 0140 FB68     		ldr	r3, [r7, #12]
 4937 0142 1B68     		ldr	r3, [r3]
 4938 0144 9B69     		ldr	r3, [r3, #24]
 4939 0146 1022     		movs	r2, #16
 4940 0148 1340     		ands	r3, r2
 4941 014a 102B     		cmp	r3, #16
 4942 014c 1AD0     		beq	.L285
 4943 014e 3A68     		ldr	r2, [r7]
 4944 0150 F868     		ldr	r0, [r7, #12]
 4945 0152 BB69     		ldr	r3, [r7, #24]
 4946 0154 0093     		str	r3, [sp]
 4947 0156 1300     		movs	r3, r2
ARM GAS  /tmp/ccnCrYSN.s 			page 87


 4948 0158 0022     		movs	r2, #0
 4949 015a 2021     		movs	r1, #32
 4950 015c FFF7FEFF 		bl	I2C_WaitOnFlagUntilTimeout
 4951 0160 031E     		subs	r3, r0, #0
 4952 0162 01D0     		beq	.L286
 4953 0164 0123     		movs	r3, #1
 4954 0166 3BE0     		b	.L276
 4955              	.L286:
 4956 0168 FB68     		ldr	r3, [r7, #12]
 4957 016a 1B68     		ldr	r3, [r3]
 4958 016c 2022     		movs	r2, #32
 4959 016e DA61     		str	r2, [r3, #28]
 4960 0170 FB68     		ldr	r3, [r7, #12]
 4961 0172 4122     		movs	r2, #65
 4962 0174 2021     		movs	r1, #32
 4963 0176 9954     		strb	r1, [r3, r2]
 4964 0178 FB68     		ldr	r3, [r7, #12]
 4965 017a 4022     		movs	r2, #64
 4966 017c 0021     		movs	r1, #0
 4967 017e 9954     		strb	r1, [r3, r2]
 4968 0180 0023     		movs	r3, #0
 4969 0182 2DE0     		b	.L276
 4970              	.L285:
 4971 0184 3A68     		ldr	r2, [r7]
 4972 0186 F868     		ldr	r0, [r7, #12]
 4973 0188 BB69     		ldr	r3, [r7, #24]
 4974 018a 0093     		str	r3, [sp]
 4975 018c 1300     		movs	r3, r2
 4976 018e 0022     		movs	r2, #0
 4977 0190 2021     		movs	r1, #32
 4978 0192 FFF7FEFF 		bl	I2C_WaitOnFlagUntilTimeout
 4979 0196 031E     		subs	r3, r0, #0
 4980 0198 01D0     		beq	.L287
 4981 019a 0123     		movs	r3, #1
 4982 019c 20E0     		b	.L276
 4983              	.L287:
 4984 019e FB68     		ldr	r3, [r7, #12]
 4985 01a0 1B68     		ldr	r3, [r3]
 4986 01a2 1022     		movs	r2, #16
 4987 01a4 DA61     		str	r2, [r3, #28]
 4988 01a6 FB68     		ldr	r3, [r7, #12]
 4989 01a8 1B68     		ldr	r3, [r3]
 4990 01aa 2022     		movs	r2, #32
 4991 01ac DA61     		str	r2, [r3, #28]
 4992 01ae 7B69     		ldr	r3, [r7, #20]
 4993 01b0 0133     		adds	r3, r3, #1
 4994 01b2 7B61     		str	r3, [r7, #20]
 4995 01b4 7B69     		ldr	r3, [r7, #20]
 4996 01b6 7A68     		ldr	r2, [r7, #4]
 4997 01b8 9A42     		cmp	r2, r3
 4998 01ba 00D9     		bls	.LCB5359
 4999 01bc 51E7     		b	.L288	@long jump
 5000              	.LCB5359:
 5001 01be FB68     		ldr	r3, [r7, #12]
 5002 01c0 4122     		movs	r2, #65
 5003 01c2 2021     		movs	r1, #32
 5004 01c4 9954     		strb	r1, [r3, r2]
ARM GAS  /tmp/ccnCrYSN.s 			page 88


 5005 01c6 FB68     		ldr	r3, [r7, #12]
 5006 01c8 5B6C     		ldr	r3, [r3, #68]
 5007 01ca 2022     		movs	r2, #32
 5008 01cc 1A43     		orrs	r2, r3
 5009 01ce FB68     		ldr	r3, [r7, #12]
 5010 01d0 5A64     		str	r2, [r3, #68]
 5011 01d2 FB68     		ldr	r3, [r7, #12]
 5012 01d4 4022     		movs	r2, #64
 5013 01d6 0021     		movs	r1, #0
 5014 01d8 9954     		strb	r1, [r3, r2]
 5015 01da 0123     		movs	r3, #1
 5016 01dc 00E0     		b	.L276
 5017              	.L274:
 5018 01de 0223     		movs	r3, #2
 5019              	.L276:
 5020 01e0 1800     		movs	r0, r3
 5021 01e2 BD46     		mov	sp, r7
 5022 01e4 08B0     		add	sp, sp, #32
 5023              		@ sp needed
 5024 01e6 80BD     		pop	{r7, pc}
 5025              	.L291:
 5026              		.align	2
 5027              	.L290:
 5028 01e8 00200002 		.word	33562624
 5029 01ec 00280002 		.word	33564672
 5031              		.section	.text.HAL_I2C_Master_Seq_Transmit_IT,"ax",%progbits
 5032              		.align	1
 5033              		.global	HAL_I2C_Master_Seq_Transmit_IT
 5034              		.syntax unified
 5035              		.code	16
 5036              		.thumb_func
 5038              	HAL_I2C_Master_Seq_Transmit_IT:
 5039              		@ args = 4, pretend = 0, frame = 32
 5040              		@ frame_needed = 1, uses_anonymous_args = 0
 5041 0000 90B5     		push	{r4, r7, lr}
 5042 0002 8BB0     		sub	sp, sp, #44
 5043 0004 02AF     		add	r7, sp, #8
 5044 0006 F860     		str	r0, [r7, #12]
 5045 0008 0800     		movs	r0, r1
 5046 000a 7A60     		str	r2, [r7, #4]
 5047 000c 1900     		movs	r1, r3
 5048 000e 0A23     		movs	r3, #10
 5049 0010 FB18     		adds	r3, r7, r3
 5050 0012 021C     		adds	r2, r0, #0
 5051 0014 1A80     		strh	r2, [r3]
 5052 0016 0823     		movs	r3, #8
 5053 0018 FB18     		adds	r3, r7, r3
 5054 001a 0A1C     		adds	r2, r1, #0
 5055 001c 1A80     		strh	r2, [r3]
 5056 001e 5E4B     		ldr	r3, .L308
 5057 0020 BB61     		str	r3, [r7, #24]
 5058 0022 0023     		movs	r3, #0
 5059 0024 7B61     		str	r3, [r7, #20]
 5060 0026 FB68     		ldr	r3, [r7, #12]
 5061 0028 4122     		movs	r2, #65
 5062 002a 9B5C     		ldrb	r3, [r3, r2]
 5063 002c DBB2     		uxtb	r3, r3
ARM GAS  /tmp/ccnCrYSN.s 			page 89


 5064 002e 202B     		cmp	r3, #32
 5065 0030 00D0     		beq	.LCB5428
 5066 0032 ABE0     		b	.L293	@long jump
 5067              	.LCB5428:
 5068 0034 FB68     		ldr	r3, [r7, #12]
 5069 0036 4022     		movs	r2, #64
 5070 0038 9B5C     		ldrb	r3, [r3, r2]
 5071 003a 012B     		cmp	r3, #1
 5072 003c 01D1     		bne	.L294
 5073 003e 0223     		movs	r3, #2
 5074 0040 A5E0     		b	.L295
 5075              	.L294:
 5076 0042 FB68     		ldr	r3, [r7, #12]
 5077 0044 4022     		movs	r2, #64
 5078 0046 0121     		movs	r1, #1
 5079 0048 9954     		strb	r1, [r3, r2]
 5080 004a FB68     		ldr	r3, [r7, #12]
 5081 004c 4122     		movs	r2, #65
 5082 004e 2121     		movs	r1, #33
 5083 0050 9954     		strb	r1, [r3, r2]
 5084 0052 FB68     		ldr	r3, [r7, #12]
 5085 0054 4222     		movs	r2, #66
 5086 0056 1021     		movs	r1, #16
 5087 0058 9954     		strb	r1, [r3, r2]
 5088 005a FB68     		ldr	r3, [r7, #12]
 5089 005c 0022     		movs	r2, #0
 5090 005e 5A64     		str	r2, [r3, #68]
 5091 0060 FB68     		ldr	r3, [r7, #12]
 5092 0062 7A68     		ldr	r2, [r7, #4]
 5093 0064 5A62     		str	r2, [r3, #36]
 5094 0066 FB68     		ldr	r3, [r7, #12]
 5095 0068 0822     		movs	r2, #8
 5096 006a BA18     		adds	r2, r7, r2
 5097 006c 1288     		ldrh	r2, [r2]
 5098 006e 5A85     		strh	r2, [r3, #42]
 5099 0070 FB68     		ldr	r3, [r7, #12]
 5100 0072 3A6B     		ldr	r2, [r7, #48]
 5101 0074 DA62     		str	r2, [r3, #44]
 5102 0076 FB68     		ldr	r3, [r7, #12]
 5103 0078 484A     		ldr	r2, .L308+4
 5104 007a 5A63     		str	r2, [r3, #52]
 5105 007c FB68     		ldr	r3, [r7, #12]
 5106 007e 5B8D     		ldrh	r3, [r3, #42]
 5107 0080 9BB2     		uxth	r3, r3
 5108 0082 FF2B     		cmp	r3, #255
 5109 0084 06D9     		bls	.L296
 5110 0086 FB68     		ldr	r3, [r7, #12]
 5111 0088 FF22     		movs	r2, #255
 5112 008a 1A85     		strh	r2, [r3, #40]
 5113 008c 8023     		movs	r3, #128
 5114 008e 5B04     		lsls	r3, r3, #17
 5115 0090 FB61     		str	r3, [r7, #28]
 5116 0092 07E0     		b	.L297
 5117              	.L296:
 5118 0094 FB68     		ldr	r3, [r7, #12]
 5119 0096 5B8D     		ldrh	r3, [r3, #42]
 5120 0098 9AB2     		uxth	r2, r3
ARM GAS  /tmp/ccnCrYSN.s 			page 90


 5121 009a FB68     		ldr	r3, [r7, #12]
 5122 009c 1A85     		strh	r2, [r3, #40]
 5123 009e FB68     		ldr	r3, [r7, #12]
 5124 00a0 DB6A     		ldr	r3, [r3, #44]
 5125 00a2 FB61     		str	r3, [r7, #28]
 5126              	.L297:
 5127 00a4 FB68     		ldr	r3, [r7, #12]
 5128 00a6 1B8D     		ldrh	r3, [r3, #40]
 5129 00a8 002B     		cmp	r3, #0
 5130 00aa 22D0     		beq	.L298
 5131 00ac 3B6B     		ldr	r3, [r7, #48]
 5132 00ae 002B     		cmp	r3, #0
 5133 00b0 04D0     		beq	.L299
 5134 00b2 3A6B     		ldr	r2, [r7, #48]
 5135 00b4 8023     		movs	r3, #128
 5136 00b6 9B04     		lsls	r3, r3, #18
 5137 00b8 9A42     		cmp	r2, r3
 5138 00ba 1AD1     		bne	.L298
 5139              	.L299:
 5140 00bc FB68     		ldr	r3, [r7, #12]
 5141 00be 5B6A     		ldr	r3, [r3, #36]
 5142 00c0 1A78     		ldrb	r2, [r3]
 5143 00c2 FB68     		ldr	r3, [r7, #12]
 5144 00c4 1B68     		ldr	r3, [r3]
 5145 00c6 9A62     		str	r2, [r3, #40]
 5146 00c8 FB68     		ldr	r3, [r7, #12]
 5147 00ca 5B6A     		ldr	r3, [r3, #36]
 5148 00cc 5A1C     		adds	r2, r3, #1
 5149 00ce FB68     		ldr	r3, [r7, #12]
 5150 00d0 5A62     		str	r2, [r3, #36]
 5151 00d2 FB68     		ldr	r3, [r7, #12]
 5152 00d4 1B8D     		ldrh	r3, [r3, #40]
 5153 00d6 7B61     		str	r3, [r7, #20]
 5154 00d8 FB68     		ldr	r3, [r7, #12]
 5155 00da 5B8D     		ldrh	r3, [r3, #42]
 5156 00dc 9BB2     		uxth	r3, r3
 5157 00de 013B     		subs	r3, r3, #1
 5158 00e0 9AB2     		uxth	r2, r3
 5159 00e2 FB68     		ldr	r3, [r7, #12]
 5160 00e4 5A85     		strh	r2, [r3, #42]
 5161 00e6 FB68     		ldr	r3, [r7, #12]
 5162 00e8 1B8D     		ldrh	r3, [r3, #40]
 5163 00ea 013B     		subs	r3, r3, #1
 5164 00ec 9AB2     		uxth	r2, r3
 5165 00ee FB68     		ldr	r3, [r7, #12]
 5166 00f0 1A85     		strh	r2, [r3, #40]
 5167              	.L298:
 5168 00f2 FB68     		ldr	r3, [r7, #12]
 5169 00f4 1B6B     		ldr	r3, [r3, #48]
 5170 00f6 112B     		cmp	r3, #17
 5171 00f8 0FD1     		bne	.L300
 5172 00fa 3B6B     		ldr	r3, [r7, #48]
 5173 00fc AA2B     		cmp	r3, #170
 5174 00fe 04D0     		beq	.L301
 5175 0100 3A6B     		ldr	r2, [r7, #48]
 5176 0102 AA23     		movs	r3, #170
 5177 0104 1B02     		lsls	r3, r3, #8
ARM GAS  /tmp/ccnCrYSN.s 			page 91


 5178 0106 9A42     		cmp	r2, r3
 5179 0108 01D1     		bne	.L302
 5180              	.L301:
 5181 010a 0123     		movs	r3, #1
 5182 010c 00E0     		b	.L303
 5183              	.L302:
 5184 010e 0023     		movs	r3, #0
 5185              	.L303:
 5186 0110 002B     		cmp	r3, #0
 5187 0112 02D1     		bne	.L300
 5188 0114 0023     		movs	r3, #0
 5189 0116 BB61     		str	r3, [r7, #24]
 5190 0118 0BE0     		b	.L304
 5191              	.L300:
 5192 011a FB68     		ldr	r3, [r7, #12]
 5193 011c 1800     		movs	r0, r3
 5194 011e FFF7FEFF 		bl	I2C_ConvertOtherXferOptions
 5195 0122 FB68     		ldr	r3, [r7, #12]
 5196 0124 5B8D     		ldrh	r3, [r3, #42]
 5197 0126 9BB2     		uxth	r3, r3
 5198 0128 FF2B     		cmp	r3, #255
 5199 012a 02D8     		bhi	.L304
 5200 012c FB68     		ldr	r3, [r7, #12]
 5201 012e DB6A     		ldr	r3, [r3, #44]
 5202 0130 FB61     		str	r3, [r7, #28]
 5203              	.L304:
 5204 0132 3B6B     		ldr	r3, [r7, #48]
 5205 0134 002B     		cmp	r3, #0
 5206 0136 04D0     		beq	.L305
 5207 0138 3A6B     		ldr	r2, [r7, #48]
 5208 013a 8023     		movs	r3, #128
 5209 013c 9B04     		lsls	r3, r3, #18
 5210 013e 9A42     		cmp	r2, r3
 5211 0140 0CD1     		bne	.L306
 5212              	.L305:
 5213 0142 7B69     		ldr	r3, [r7, #20]
 5214 0144 DAB2     		uxtb	r2, r3
 5215 0146 FC69     		ldr	r4, [r7, #28]
 5216 0148 0A23     		movs	r3, #10
 5217 014a FB18     		adds	r3, r7, r3
 5218 014c 1988     		ldrh	r1, [r3]
 5219 014e F868     		ldr	r0, [r7, #12]
 5220 0150 BB69     		ldr	r3, [r7, #24]
 5221 0152 0093     		str	r3, [sp]
 5222 0154 2300     		movs	r3, r4
 5223 0156 FFF7FEFF 		bl	I2C_TransferConfig
 5224 015a 0CE0     		b	.L307
 5225              	.L306:
 5226 015c FB68     		ldr	r3, [r7, #12]
 5227 015e 1B8D     		ldrh	r3, [r3, #40]
 5228 0160 DAB2     		uxtb	r2, r3
 5229 0162 FC69     		ldr	r4, [r7, #28]
 5230 0164 0A23     		movs	r3, #10
 5231 0166 FB18     		adds	r3, r7, r3
 5232 0168 1988     		ldrh	r1, [r3]
 5233 016a F868     		ldr	r0, [r7, #12]
 5234 016c BB69     		ldr	r3, [r7, #24]
ARM GAS  /tmp/ccnCrYSN.s 			page 92


 5235 016e 0093     		str	r3, [sp]
 5236 0170 2300     		movs	r3, r4
 5237 0172 FFF7FEFF 		bl	I2C_TransferConfig
 5238              	.L307:
 5239 0176 FB68     		ldr	r3, [r7, #12]
 5240 0178 4022     		movs	r2, #64
 5241 017a 0021     		movs	r1, #0
 5242 017c 9954     		strb	r1, [r3, r2]
 5243 017e FB68     		ldr	r3, [r7, #12]
 5244 0180 0121     		movs	r1, #1
 5245 0182 1800     		movs	r0, r3
 5246 0184 FFF7FEFF 		bl	I2C_Enable_IRQ
 5247 0188 0023     		movs	r3, #0
 5248 018a 00E0     		b	.L295
 5249              	.L293:
 5250 018c 0223     		movs	r3, #2
 5251              	.L295:
 5252 018e 1800     		movs	r0, r3
 5253 0190 BD46     		mov	sp, r7
 5254 0192 09B0     		add	sp, sp, #36
 5255              		@ sp needed
 5256 0194 90BD     		pop	{r4, r7, pc}
 5257              	.L309:
 5258 0196 C046     		.align	2
 5259              	.L308:
 5260 0198 00200080 		.word	-2147475456
 5261 019c 00000000 		.word	I2C_Master_ISR_IT
 5263              		.section	.text.HAL_I2C_Master_Seq_Transmit_DMA,"ax",%progbits
 5264              		.align	1
 5265              		.global	HAL_I2C_Master_Seq_Transmit_DMA
 5266              		.syntax unified
 5267              		.code	16
 5268              		.thumb_func
 5270              	HAL_I2C_Master_Seq_Transmit_DMA:
 5271              		@ args = 4, pretend = 0, frame = 32
 5272              		@ frame_needed = 1, uses_anonymous_args = 0
 5273 0000 B0B5     		push	{r4, r5, r7, lr}
 5274 0002 8AB0     		sub	sp, sp, #40
 5275 0004 02AF     		add	r7, sp, #8
 5276 0006 F860     		str	r0, [r7, #12]
 5277 0008 0800     		movs	r0, r1
 5278 000a 7A60     		str	r2, [r7, #4]
 5279 000c 1900     		movs	r1, r3
 5280 000e 0A23     		movs	r3, #10
 5281 0010 FB18     		adds	r3, r7, r3
 5282 0012 021C     		adds	r2, r0, #0
 5283 0014 1A80     		strh	r2, [r3]
 5284 0016 0823     		movs	r3, #8
 5285 0018 FB18     		adds	r3, r7, r3
 5286 001a 0A1C     		adds	r2, r1, #0
 5287 001c 1A80     		strh	r2, [r3]
 5288 001e AA4B     		ldr	r3, .L335
 5289 0020 BB61     		str	r3, [r7, #24]
 5290 0022 0023     		movs	r3, #0
 5291 0024 7B61     		str	r3, [r7, #20]
 5292 0026 FB68     		ldr	r3, [r7, #12]
 5293 0028 4122     		movs	r2, #65
ARM GAS  /tmp/ccnCrYSN.s 			page 93


 5294 002a 9B5C     		ldrb	r3, [r3, r2]
 5295 002c DBB2     		uxtb	r3, r3
 5296 002e 202B     		cmp	r3, #32
 5297 0030 00D0     		beq	.LCB5678
 5298 0032 43E1     		b	.L311	@long jump
 5299              	.LCB5678:
 5300 0034 FB68     		ldr	r3, [r7, #12]
 5301 0036 4022     		movs	r2, #64
 5302 0038 9B5C     		ldrb	r3, [r3, r2]
 5303 003a 012B     		cmp	r3, #1
 5304 003c 01D1     		bne	.L312
 5305 003e 0223     		movs	r3, #2
 5306 0040 3DE1     		b	.L313
 5307              	.L312:
 5308 0042 FB68     		ldr	r3, [r7, #12]
 5309 0044 4022     		movs	r2, #64
 5310 0046 0121     		movs	r1, #1
 5311 0048 9954     		strb	r1, [r3, r2]
 5312 004a FB68     		ldr	r3, [r7, #12]
 5313 004c 4122     		movs	r2, #65
 5314 004e 2121     		movs	r1, #33
 5315 0050 9954     		strb	r1, [r3, r2]
 5316 0052 FB68     		ldr	r3, [r7, #12]
 5317 0054 4222     		movs	r2, #66
 5318 0056 1021     		movs	r1, #16
 5319 0058 9954     		strb	r1, [r3, r2]
 5320 005a FB68     		ldr	r3, [r7, #12]
 5321 005c 0022     		movs	r2, #0
 5322 005e 5A64     		str	r2, [r3, #68]
 5323 0060 FB68     		ldr	r3, [r7, #12]
 5324 0062 7A68     		ldr	r2, [r7, #4]
 5325 0064 5A62     		str	r2, [r3, #36]
 5326 0066 FB68     		ldr	r3, [r7, #12]
 5327 0068 0822     		movs	r2, #8
 5328 006a BA18     		adds	r2, r7, r2
 5329 006c 1288     		ldrh	r2, [r2]
 5330 006e 5A85     		strh	r2, [r3, #42]
 5331 0070 FB68     		ldr	r3, [r7, #12]
 5332 0072 3A6B     		ldr	r2, [r7, #48]
 5333 0074 DA62     		str	r2, [r3, #44]
 5334 0076 FB68     		ldr	r3, [r7, #12]
 5335 0078 944A     		ldr	r2, .L335+4
 5336 007a 5A63     		str	r2, [r3, #52]
 5337 007c FB68     		ldr	r3, [r7, #12]
 5338 007e 5B8D     		ldrh	r3, [r3, #42]
 5339 0080 9BB2     		uxth	r3, r3
 5340 0082 FF2B     		cmp	r3, #255
 5341 0084 06D9     		bls	.L314
 5342 0086 FB68     		ldr	r3, [r7, #12]
 5343 0088 FF22     		movs	r2, #255
 5344 008a 1A85     		strh	r2, [r3, #40]
 5345 008c 8023     		movs	r3, #128
 5346 008e 5B04     		lsls	r3, r3, #17
 5347 0090 FB61     		str	r3, [r7, #28]
 5348 0092 07E0     		b	.L315
 5349              	.L314:
 5350 0094 FB68     		ldr	r3, [r7, #12]
ARM GAS  /tmp/ccnCrYSN.s 			page 94


 5351 0096 5B8D     		ldrh	r3, [r3, #42]
 5352 0098 9AB2     		uxth	r2, r3
 5353 009a FB68     		ldr	r3, [r7, #12]
 5354 009c 1A85     		strh	r2, [r3, #40]
 5355 009e FB68     		ldr	r3, [r7, #12]
 5356 00a0 DB6A     		ldr	r3, [r3, #44]
 5357 00a2 FB61     		str	r3, [r7, #28]
 5358              	.L315:
 5359 00a4 FB68     		ldr	r3, [r7, #12]
 5360 00a6 1B8D     		ldrh	r3, [r3, #40]
 5361 00a8 002B     		cmp	r3, #0
 5362 00aa 22D0     		beq	.L316
 5363 00ac 3B6B     		ldr	r3, [r7, #48]
 5364 00ae 002B     		cmp	r3, #0
 5365 00b0 04D0     		beq	.L317
 5366 00b2 3A6B     		ldr	r2, [r7, #48]
 5367 00b4 8023     		movs	r3, #128
 5368 00b6 9B04     		lsls	r3, r3, #18
 5369 00b8 9A42     		cmp	r2, r3
 5370 00ba 1AD1     		bne	.L316
 5371              	.L317:
 5372 00bc FB68     		ldr	r3, [r7, #12]
 5373 00be 5B6A     		ldr	r3, [r3, #36]
 5374 00c0 1A78     		ldrb	r2, [r3]
 5375 00c2 FB68     		ldr	r3, [r7, #12]
 5376 00c4 1B68     		ldr	r3, [r3]
 5377 00c6 9A62     		str	r2, [r3, #40]
 5378 00c8 FB68     		ldr	r3, [r7, #12]
 5379 00ca 5B6A     		ldr	r3, [r3, #36]
 5380 00cc 5A1C     		adds	r2, r3, #1
 5381 00ce FB68     		ldr	r3, [r7, #12]
 5382 00d0 5A62     		str	r2, [r3, #36]
 5383 00d2 FB68     		ldr	r3, [r7, #12]
 5384 00d4 1B8D     		ldrh	r3, [r3, #40]
 5385 00d6 7B61     		str	r3, [r7, #20]
 5386 00d8 FB68     		ldr	r3, [r7, #12]
 5387 00da 5B8D     		ldrh	r3, [r3, #42]
 5388 00dc 9BB2     		uxth	r3, r3
 5389 00de 013B     		subs	r3, r3, #1
 5390 00e0 9AB2     		uxth	r2, r3
 5391 00e2 FB68     		ldr	r3, [r7, #12]
 5392 00e4 5A85     		strh	r2, [r3, #42]
 5393 00e6 FB68     		ldr	r3, [r7, #12]
 5394 00e8 1B8D     		ldrh	r3, [r3, #40]
 5395 00ea 013B     		subs	r3, r3, #1
 5396 00ec 9AB2     		uxth	r2, r3
 5397 00ee FB68     		ldr	r3, [r7, #12]
 5398 00f0 1A85     		strh	r2, [r3, #40]
 5399              	.L316:
 5400 00f2 FB68     		ldr	r3, [r7, #12]
 5401 00f4 1B6B     		ldr	r3, [r3, #48]
 5402 00f6 112B     		cmp	r3, #17
 5403 00f8 0FD1     		bne	.L318
 5404 00fa 3B6B     		ldr	r3, [r7, #48]
 5405 00fc AA2B     		cmp	r3, #170
 5406 00fe 04D0     		beq	.L319
 5407 0100 3A6B     		ldr	r2, [r7, #48]
ARM GAS  /tmp/ccnCrYSN.s 			page 95


 5408 0102 AA23     		movs	r3, #170
 5409 0104 1B02     		lsls	r3, r3, #8
 5410 0106 9A42     		cmp	r2, r3
 5411 0108 01D1     		bne	.L320
 5412              	.L319:
 5413 010a 0123     		movs	r3, #1
 5414 010c 00E0     		b	.L321
 5415              	.L320:
 5416 010e 0023     		movs	r3, #0
 5417              	.L321:
 5418 0110 002B     		cmp	r3, #0
 5419 0112 02D1     		bne	.L318
 5420 0114 0023     		movs	r3, #0
 5421 0116 BB61     		str	r3, [r7, #24]
 5422 0118 0BE0     		b	.L322
 5423              	.L318:
 5424 011a FB68     		ldr	r3, [r7, #12]
 5425 011c 1800     		movs	r0, r3
 5426 011e FFF7FEFF 		bl	I2C_ConvertOtherXferOptions
 5427 0122 FB68     		ldr	r3, [r7, #12]
 5428 0124 5B8D     		ldrh	r3, [r3, #42]
 5429 0126 9BB2     		uxth	r3, r3
 5430 0128 FF2B     		cmp	r3, #255
 5431 012a 02D8     		bhi	.L322
 5432 012c FB68     		ldr	r3, [r7, #12]
 5433 012e DB6A     		ldr	r3, [r3, #44]
 5434 0130 FB61     		str	r3, [r7, #28]
 5435              	.L322:
 5436 0132 FB68     		ldr	r3, [r7, #12]
 5437 0134 1B8D     		ldrh	r3, [r3, #40]
 5438 0136 002B     		cmp	r3, #0
 5439 0138 00D1     		bne	.LCB5830
 5440 013a 8FE0     		b	.L323	@long jump
 5441              	.LCB5830:
 5442 013c FB68     		ldr	r3, [r7, #12]
 5443 013e 9B6B     		ldr	r3, [r3, #56]
 5444 0140 002B     		cmp	r3, #0
 5445 0142 25D0     		beq	.L324
 5446 0144 FB68     		ldr	r3, [r7, #12]
 5447 0146 9B6B     		ldr	r3, [r3, #56]
 5448 0148 614A     		ldr	r2, .L335+8
 5449 014a 9A62     		str	r2, [r3, #40]
 5450 014c FB68     		ldr	r3, [r7, #12]
 5451 014e 9B6B     		ldr	r3, [r3, #56]
 5452 0150 604A     		ldr	r2, .L335+12
 5453 0152 1A63     		str	r2, [r3, #48]
 5454 0154 FB68     		ldr	r3, [r7, #12]
 5455 0156 9B6B     		ldr	r3, [r3, #56]
 5456 0158 0022     		movs	r2, #0
 5457 015a DA62     		str	r2, [r3, #44]
 5458 015c FB68     		ldr	r3, [r7, #12]
 5459 015e 9B6B     		ldr	r3, [r3, #56]
 5460 0160 0022     		movs	r2, #0
 5461 0162 5A63     		str	r2, [r3, #52]
 5462 0164 FB68     		ldr	r3, [r7, #12]
 5463 0166 986B     		ldr	r0, [r3, #56]
 5464 0168 FB68     		ldr	r3, [r7, #12]
ARM GAS  /tmp/ccnCrYSN.s 			page 96


 5465 016a 5B6A     		ldr	r3, [r3, #36]
 5466 016c 1900     		movs	r1, r3
 5467 016e FB68     		ldr	r3, [r7, #12]
 5468 0170 1B68     		ldr	r3, [r3]
 5469 0172 2833     		adds	r3, r3, #40
 5470 0174 1A00     		movs	r2, r3
 5471 0176 FB68     		ldr	r3, [r7, #12]
 5472 0178 1B8D     		ldrh	r3, [r3, #40]
 5473 017a 1325     		movs	r5, #19
 5474 017c 7C19     		adds	r4, r7, r5
 5475 017e FFF7FEFF 		bl	HAL_DMA_Start_IT
 5476 0182 0300     		movs	r3, r0
 5477 0184 2370     		strb	r3, [r4]
 5478 0186 7B19     		adds	r3, r7, r5
 5479 0188 1B78     		ldrb	r3, [r3]
 5480 018a 002B     		cmp	r3, #0
 5481 018c 52D1     		bne	.L326
 5482 018e 13E0     		b	.L334
 5483              	.L324:
 5484 0190 FB68     		ldr	r3, [r7, #12]
 5485 0192 4122     		movs	r2, #65
 5486 0194 2021     		movs	r1, #32
 5487 0196 9954     		strb	r1, [r3, r2]
 5488 0198 FB68     		ldr	r3, [r7, #12]
 5489 019a 4222     		movs	r2, #66
 5490 019c 0021     		movs	r1, #0
 5491 019e 9954     		strb	r1, [r3, r2]
 5492 01a0 FB68     		ldr	r3, [r7, #12]
 5493 01a2 5B6C     		ldr	r3, [r3, #68]
 5494 01a4 8022     		movs	r2, #128
 5495 01a6 1A43     		orrs	r2, r3
 5496 01a8 FB68     		ldr	r3, [r7, #12]
 5497 01aa 5A64     		str	r2, [r3, #68]
 5498 01ac FB68     		ldr	r3, [r7, #12]
 5499 01ae 4022     		movs	r2, #64
 5500 01b0 0021     		movs	r1, #0
 5501 01b2 9954     		strb	r1, [r3, r2]
 5502 01b4 0123     		movs	r3, #1
 5503 01b6 82E0     		b	.L313
 5504              	.L334:
 5505 01b8 3B6B     		ldr	r3, [r7, #48]
 5506 01ba 002B     		cmp	r3, #0
 5507 01bc 04D0     		beq	.L327
 5508 01be 3A6B     		ldr	r2, [r7, #48]
 5509 01c0 8023     		movs	r3, #128
 5510 01c2 9B04     		lsls	r3, r3, #18
 5511 01c4 9A42     		cmp	r2, r3
 5512 01c6 0CD1     		bne	.L328
 5513              	.L327:
 5514 01c8 7B69     		ldr	r3, [r7, #20]
 5515 01ca DAB2     		uxtb	r2, r3
 5516 01cc FC69     		ldr	r4, [r7, #28]
 5517 01ce 0A23     		movs	r3, #10
 5518 01d0 FB18     		adds	r3, r7, r3
 5519 01d2 1988     		ldrh	r1, [r3]
 5520 01d4 F868     		ldr	r0, [r7, #12]
 5521 01d6 BB69     		ldr	r3, [r7, #24]
ARM GAS  /tmp/ccnCrYSN.s 			page 97


 5522 01d8 0093     		str	r3, [sp]
 5523 01da 2300     		movs	r3, r4
 5524 01dc FFF7FEFF 		bl	I2C_TransferConfig
 5525 01e0 0CE0     		b	.L329
 5526              	.L328:
 5527 01e2 FB68     		ldr	r3, [r7, #12]
 5528 01e4 1B8D     		ldrh	r3, [r3, #40]
 5529 01e6 DAB2     		uxtb	r2, r3
 5530 01e8 FC69     		ldr	r4, [r7, #28]
 5531 01ea 0A23     		movs	r3, #10
 5532 01ec FB18     		adds	r3, r7, r3
 5533 01ee 1988     		ldrh	r1, [r3]
 5534 01f0 F868     		ldr	r0, [r7, #12]
 5535 01f2 BB69     		ldr	r3, [r7, #24]
 5536 01f4 0093     		str	r3, [sp]
 5537 01f6 2300     		movs	r3, r4
 5538 01f8 FFF7FEFF 		bl	I2C_TransferConfig
 5539              	.L329:
 5540 01fc FB68     		ldr	r3, [r7, #12]
 5541 01fe 5B8D     		ldrh	r3, [r3, #42]
 5542 0200 9AB2     		uxth	r2, r3
 5543 0202 FB68     		ldr	r3, [r7, #12]
 5544 0204 1B8D     		ldrh	r3, [r3, #40]
 5545 0206 D31A     		subs	r3, r2, r3
 5546 0208 9AB2     		uxth	r2, r3
 5547 020a FB68     		ldr	r3, [r7, #12]
 5548 020c 5A85     		strh	r2, [r3, #42]
 5549 020e FB68     		ldr	r3, [r7, #12]
 5550 0210 4022     		movs	r2, #64
 5551 0212 0021     		movs	r1, #0
 5552 0214 9954     		strb	r1, [r3, r2]
 5553 0216 FB68     		ldr	r3, [r7, #12]
 5554 0218 1021     		movs	r1, #16
 5555 021a 1800     		movs	r0, r3
 5556 021c FFF7FEFF 		bl	I2C_Enable_IRQ
 5557 0220 FB68     		ldr	r3, [r7, #12]
 5558 0222 1B68     		ldr	r3, [r3]
 5559 0224 1A68     		ldr	r2, [r3]
 5560 0226 FB68     		ldr	r3, [r7, #12]
 5561 0228 1B68     		ldr	r3, [r3]
 5562 022a 8021     		movs	r1, #128
 5563 022c C901     		lsls	r1, r1, #7
 5564 022e 0A43     		orrs	r2, r1
 5565 0230 1A60     		str	r2, [r3]
 5566 0232 41E0     		b	.L330
 5567              	.L326:
 5568 0234 FB68     		ldr	r3, [r7, #12]
 5569 0236 4122     		movs	r2, #65
 5570 0238 2021     		movs	r1, #32
 5571 023a 9954     		strb	r1, [r3, r2]
 5572 023c FB68     		ldr	r3, [r7, #12]
 5573 023e 4222     		movs	r2, #66
 5574 0240 0021     		movs	r1, #0
 5575 0242 9954     		strb	r1, [r3, r2]
 5576 0244 FB68     		ldr	r3, [r7, #12]
 5577 0246 5B6C     		ldr	r3, [r3, #68]
 5578 0248 1022     		movs	r2, #16
ARM GAS  /tmp/ccnCrYSN.s 			page 98


 5579 024a 1A43     		orrs	r2, r3
 5580 024c FB68     		ldr	r3, [r7, #12]
 5581 024e 5A64     		str	r2, [r3, #68]
 5582 0250 FB68     		ldr	r3, [r7, #12]
 5583 0252 4022     		movs	r2, #64
 5584 0254 0021     		movs	r1, #0
 5585 0256 9954     		strb	r1, [r3, r2]
 5586 0258 0123     		movs	r3, #1
 5587 025a 30E0     		b	.L313
 5588              	.L323:
 5589 025c FB68     		ldr	r3, [r7, #12]
 5590 025e 1E4A     		ldr	r2, .L335+16
 5591 0260 5A63     		str	r2, [r3, #52]
 5592 0262 3B6B     		ldr	r3, [r7, #48]
 5593 0264 002B     		cmp	r3, #0
 5594 0266 04D0     		beq	.L331
 5595 0268 3A6B     		ldr	r2, [r7, #48]
 5596 026a 8023     		movs	r3, #128
 5597 026c 9B04     		lsls	r3, r3, #18
 5598 026e 9A42     		cmp	r2, r3
 5599 0270 0CD1     		bne	.L332
 5600              	.L331:
 5601 0272 7B69     		ldr	r3, [r7, #20]
 5602 0274 DAB2     		uxtb	r2, r3
 5603 0276 FC69     		ldr	r4, [r7, #28]
 5604 0278 0A23     		movs	r3, #10
 5605 027a FB18     		adds	r3, r7, r3
 5606 027c 1988     		ldrh	r1, [r3]
 5607 027e F868     		ldr	r0, [r7, #12]
 5608 0280 BB69     		ldr	r3, [r7, #24]
 5609 0282 0093     		str	r3, [sp]
 5610 0284 2300     		movs	r3, r4
 5611 0286 FFF7FEFF 		bl	I2C_TransferConfig
 5612 028a 0CE0     		b	.L333
 5613              	.L332:
 5614 028c FB68     		ldr	r3, [r7, #12]
 5615 028e 1B8D     		ldrh	r3, [r3, #40]
 5616 0290 DAB2     		uxtb	r2, r3
 5617 0292 FC69     		ldr	r4, [r7, #28]
 5618 0294 0A23     		movs	r3, #10
 5619 0296 FB18     		adds	r3, r7, r3
 5620 0298 1988     		ldrh	r1, [r3]
 5621 029a F868     		ldr	r0, [r7, #12]
 5622 029c BB69     		ldr	r3, [r7, #24]
 5623 029e 0093     		str	r3, [sp]
 5624 02a0 2300     		movs	r3, r4
 5625 02a2 FFF7FEFF 		bl	I2C_TransferConfig
 5626              	.L333:
 5627 02a6 FB68     		ldr	r3, [r7, #12]
 5628 02a8 4022     		movs	r2, #64
 5629 02aa 0021     		movs	r1, #0
 5630 02ac 9954     		strb	r1, [r3, r2]
 5631 02ae FB68     		ldr	r3, [r7, #12]
 5632 02b0 0121     		movs	r1, #1
 5633 02b2 1800     		movs	r0, r3
 5634 02b4 FFF7FEFF 		bl	I2C_Enable_IRQ
 5635              	.L330:
ARM GAS  /tmp/ccnCrYSN.s 			page 99


 5636 02b8 0023     		movs	r3, #0
 5637 02ba 00E0     		b	.L313
 5638              	.L311:
 5639 02bc 0223     		movs	r3, #2
 5640              	.L313:
 5641 02be 1800     		movs	r0, r3
 5642 02c0 BD46     		mov	sp, r7
 5643 02c2 08B0     		add	sp, sp, #32
 5644              		@ sp needed
 5645 02c4 B0BD     		pop	{r4, r5, r7, pc}
 5646              	.L336:
 5647 02c6 C046     		.align	2
 5648              	.L335:
 5649 02c8 00200080 		.word	-2147475456
 5650 02cc 00000000 		.word	I2C_Master_ISR_DMA
 5651 02d0 00000000 		.word	I2C_DMAMasterTransmitCplt
 5652 02d4 00000000 		.word	I2C_DMAError
 5653 02d8 00000000 		.word	I2C_Master_ISR_IT
 5655              		.section	.text.HAL_I2C_Master_Seq_Receive_IT,"ax",%progbits
 5656              		.align	1
 5657              		.global	HAL_I2C_Master_Seq_Receive_IT
 5658              		.syntax unified
 5659              		.code	16
 5660              		.thumb_func
 5662              	HAL_I2C_Master_Seq_Receive_IT:
 5663              		@ args = 4, pretend = 0, frame = 24
 5664              		@ frame_needed = 1, uses_anonymous_args = 0
 5665 0000 90B5     		push	{r4, r7, lr}
 5666 0002 89B0     		sub	sp, sp, #36
 5667 0004 02AF     		add	r7, sp, #8
 5668 0006 F860     		str	r0, [r7, #12]
 5669 0008 0800     		movs	r0, r1
 5670 000a 7A60     		str	r2, [r7, #4]
 5671 000c 1900     		movs	r1, r3
 5672 000e 0A23     		movs	r3, #10
 5673 0010 FB18     		adds	r3, r7, r3
 5674 0012 021C     		adds	r2, r0, #0
 5675 0014 1A80     		strh	r2, [r3]
 5676 0016 0823     		movs	r3, #8
 5677 0018 FB18     		adds	r3, r7, r3
 5678 001a 0A1C     		adds	r2, r1, #0
 5679 001c 1A80     		strh	r2, [r3]
 5680 001e 3F4B     		ldr	r3, .L348
 5681 0020 3B61     		str	r3, [r7, #16]
 5682 0022 FB68     		ldr	r3, [r7, #12]
 5683 0024 4122     		movs	r2, #65
 5684 0026 9B5C     		ldrb	r3, [r3, r2]
 5685 0028 DBB2     		uxtb	r3, r3
 5686 002a 202B     		cmp	r3, #32
 5687 002c 00D0     		beq	.LCB6098
 5688 002e 6FE0     		b	.L338	@long jump
 5689              	.LCB6098:
 5690 0030 FB68     		ldr	r3, [r7, #12]
 5691 0032 4022     		movs	r2, #64
 5692 0034 9B5C     		ldrb	r3, [r3, r2]
 5693 0036 012B     		cmp	r3, #1
 5694 0038 01D1     		bne	.L339
ARM GAS  /tmp/ccnCrYSN.s 			page 100


 5695 003a 0223     		movs	r3, #2
 5696 003c 69E0     		b	.L340
 5697              	.L339:
 5698 003e FB68     		ldr	r3, [r7, #12]
 5699 0040 4022     		movs	r2, #64
 5700 0042 0121     		movs	r1, #1
 5701 0044 9954     		strb	r1, [r3, r2]
 5702 0046 FB68     		ldr	r3, [r7, #12]
 5703 0048 4122     		movs	r2, #65
 5704 004a 2221     		movs	r1, #34
 5705 004c 9954     		strb	r1, [r3, r2]
 5706 004e FB68     		ldr	r3, [r7, #12]
 5707 0050 4222     		movs	r2, #66
 5708 0052 1021     		movs	r1, #16
 5709 0054 9954     		strb	r1, [r3, r2]
 5710 0056 FB68     		ldr	r3, [r7, #12]
 5711 0058 0022     		movs	r2, #0
 5712 005a 5A64     		str	r2, [r3, #68]
 5713 005c FB68     		ldr	r3, [r7, #12]
 5714 005e 7A68     		ldr	r2, [r7, #4]
 5715 0060 5A62     		str	r2, [r3, #36]
 5716 0062 FB68     		ldr	r3, [r7, #12]
 5717 0064 0822     		movs	r2, #8
 5718 0066 BA18     		adds	r2, r7, r2
 5719 0068 1288     		ldrh	r2, [r2]
 5720 006a 5A85     		strh	r2, [r3, #42]
 5721 006c FB68     		ldr	r3, [r7, #12]
 5722 006e BA6A     		ldr	r2, [r7, #40]
 5723 0070 DA62     		str	r2, [r3, #44]
 5724 0072 FB68     		ldr	r3, [r7, #12]
 5725 0074 2A4A     		ldr	r2, .L348+4
 5726 0076 5A63     		str	r2, [r3, #52]
 5727 0078 FB68     		ldr	r3, [r7, #12]
 5728 007a 5B8D     		ldrh	r3, [r3, #42]
 5729 007c 9BB2     		uxth	r3, r3
 5730 007e FF2B     		cmp	r3, #255
 5731 0080 06D9     		bls	.L341
 5732 0082 FB68     		ldr	r3, [r7, #12]
 5733 0084 FF22     		movs	r2, #255
 5734 0086 1A85     		strh	r2, [r3, #40]
 5735 0088 8023     		movs	r3, #128
 5736 008a 5B04     		lsls	r3, r3, #17
 5737 008c 7B61     		str	r3, [r7, #20]
 5738 008e 07E0     		b	.L342
 5739              	.L341:
 5740 0090 FB68     		ldr	r3, [r7, #12]
 5741 0092 5B8D     		ldrh	r3, [r3, #42]
 5742 0094 9AB2     		uxth	r2, r3
 5743 0096 FB68     		ldr	r3, [r7, #12]
 5744 0098 1A85     		strh	r2, [r3, #40]
 5745 009a FB68     		ldr	r3, [r7, #12]
 5746 009c DB6A     		ldr	r3, [r3, #44]
 5747 009e 7B61     		str	r3, [r7, #20]
 5748              	.L342:
 5749 00a0 FB68     		ldr	r3, [r7, #12]
 5750 00a2 1B6B     		ldr	r3, [r3, #48]
 5751 00a4 122B     		cmp	r3, #18
ARM GAS  /tmp/ccnCrYSN.s 			page 101


 5752 00a6 0FD1     		bne	.L343
 5753 00a8 BB6A     		ldr	r3, [r7, #40]
 5754 00aa AA2B     		cmp	r3, #170
 5755 00ac 04D0     		beq	.L344
 5756 00ae BA6A     		ldr	r2, [r7, #40]
 5757 00b0 AA23     		movs	r3, #170
 5758 00b2 1B02     		lsls	r3, r3, #8
 5759 00b4 9A42     		cmp	r2, r3
 5760 00b6 01D1     		bne	.L345
 5761              	.L344:
 5762 00b8 0123     		movs	r3, #1
 5763 00ba 00E0     		b	.L346
 5764              	.L345:
 5765 00bc 0023     		movs	r3, #0
 5766              	.L346:
 5767 00be 002B     		cmp	r3, #0
 5768 00c0 02D1     		bne	.L343
 5769 00c2 0023     		movs	r3, #0
 5770 00c4 3B61     		str	r3, [r7, #16]
 5771 00c6 0BE0     		b	.L347
 5772              	.L343:
 5773 00c8 FB68     		ldr	r3, [r7, #12]
 5774 00ca 1800     		movs	r0, r3
 5775 00cc FFF7FEFF 		bl	I2C_ConvertOtherXferOptions
 5776 00d0 FB68     		ldr	r3, [r7, #12]
 5777 00d2 5B8D     		ldrh	r3, [r3, #42]
 5778 00d4 9BB2     		uxth	r3, r3
 5779 00d6 FF2B     		cmp	r3, #255
 5780 00d8 02D8     		bhi	.L347
 5781 00da FB68     		ldr	r3, [r7, #12]
 5782 00dc DB6A     		ldr	r3, [r3, #44]
 5783 00de 7B61     		str	r3, [r7, #20]
 5784              	.L347:
 5785 00e0 FB68     		ldr	r3, [r7, #12]
 5786 00e2 1B8D     		ldrh	r3, [r3, #40]
 5787 00e4 DAB2     		uxtb	r2, r3
 5788 00e6 7C69     		ldr	r4, [r7, #20]
 5789 00e8 0A23     		movs	r3, #10
 5790 00ea FB18     		adds	r3, r7, r3
 5791 00ec 1988     		ldrh	r1, [r3]
 5792 00ee F868     		ldr	r0, [r7, #12]
 5793 00f0 3B69     		ldr	r3, [r7, #16]
 5794 00f2 0093     		str	r3, [sp]
 5795 00f4 2300     		movs	r3, r4
 5796 00f6 FFF7FEFF 		bl	I2C_TransferConfig
 5797 00fa FB68     		ldr	r3, [r7, #12]
 5798 00fc 4022     		movs	r2, #64
 5799 00fe 0021     		movs	r1, #0
 5800 0100 9954     		strb	r1, [r3, r2]
 5801 0102 FB68     		ldr	r3, [r7, #12]
 5802 0104 0221     		movs	r1, #2
 5803 0106 1800     		movs	r0, r3
 5804 0108 FFF7FEFF 		bl	I2C_Enable_IRQ
 5805 010c 0023     		movs	r3, #0
 5806 010e 00E0     		b	.L340
 5807              	.L338:
 5808 0110 0223     		movs	r3, #2
ARM GAS  /tmp/ccnCrYSN.s 			page 102


 5809              	.L340:
 5810 0112 1800     		movs	r0, r3
 5811 0114 BD46     		mov	sp, r7
 5812 0116 07B0     		add	sp, sp, #28
 5813              		@ sp needed
 5814 0118 90BD     		pop	{r4, r7, pc}
 5815              	.L349:
 5816 011a C046     		.align	2
 5817              	.L348:
 5818 011c 00240080 		.word	-2147474432
 5819 0120 00000000 		.word	I2C_Master_ISR_IT
 5821              		.section	.text.HAL_I2C_Master_Seq_Receive_DMA,"ax",%progbits
 5822              		.align	1
 5823              		.global	HAL_I2C_Master_Seq_Receive_DMA
 5824              		.syntax unified
 5825              		.code	16
 5826              		.thumb_func
 5828              	HAL_I2C_Master_Seq_Receive_DMA:
 5829              		@ args = 4, pretend = 0, frame = 32
 5830              		@ frame_needed = 1, uses_anonymous_args = 0
 5831 0000 B0B5     		push	{r4, r5, r7, lr}
 5832 0002 8AB0     		sub	sp, sp, #40
 5833 0004 02AF     		add	r7, sp, #8
 5834 0006 F860     		str	r0, [r7, #12]
 5835 0008 0800     		movs	r0, r1
 5836 000a 7A60     		str	r2, [r7, #4]
 5837 000c 1900     		movs	r1, r3
 5838 000e 0A23     		movs	r3, #10
 5839 0010 FB18     		adds	r3, r7, r3
 5840 0012 021C     		adds	r2, r0, #0
 5841 0014 1A80     		strh	r2, [r3]
 5842 0016 0823     		movs	r3, #8
 5843 0018 FB18     		adds	r3, r7, r3
 5844 001a 0A1C     		adds	r2, r1, #0
 5845 001c 1A80     		strh	r2, [r3]
 5846 001e 804B     		ldr	r3, .L367
 5847 0020 BB61     		str	r3, [r7, #24]
 5848 0022 FB68     		ldr	r3, [r7, #12]
 5849 0024 4122     		movs	r2, #65
 5850 0026 9B5C     		ldrb	r3, [r3, r2]
 5851 0028 DBB2     		uxtb	r3, r3
 5852 002a 202B     		cmp	r3, #32
 5853 002c 00D0     		beq	.LCB6278
 5854 002e F1E0     		b	.L351	@long jump
 5855              	.LCB6278:
 5856 0030 FB68     		ldr	r3, [r7, #12]
 5857 0032 4022     		movs	r2, #64
 5858 0034 9B5C     		ldrb	r3, [r3, r2]
 5859 0036 012B     		cmp	r3, #1
 5860 0038 01D1     		bne	.L352
 5861 003a 0223     		movs	r3, #2
 5862 003c EBE0     		b	.L353
 5863              	.L352:
 5864 003e FB68     		ldr	r3, [r7, #12]
 5865 0040 4022     		movs	r2, #64
 5866 0042 0121     		movs	r1, #1
 5867 0044 9954     		strb	r1, [r3, r2]
ARM GAS  /tmp/ccnCrYSN.s 			page 103


 5868 0046 FB68     		ldr	r3, [r7, #12]
 5869 0048 4122     		movs	r2, #65
 5870 004a 2221     		movs	r1, #34
 5871 004c 9954     		strb	r1, [r3, r2]
 5872 004e FB68     		ldr	r3, [r7, #12]
 5873 0050 4222     		movs	r2, #66
 5874 0052 1021     		movs	r1, #16
 5875 0054 9954     		strb	r1, [r3, r2]
 5876 0056 FB68     		ldr	r3, [r7, #12]
 5877 0058 0022     		movs	r2, #0
 5878 005a 5A64     		str	r2, [r3, #68]
 5879 005c FB68     		ldr	r3, [r7, #12]
 5880 005e 7A68     		ldr	r2, [r7, #4]
 5881 0060 5A62     		str	r2, [r3, #36]
 5882 0062 FB68     		ldr	r3, [r7, #12]
 5883 0064 0822     		movs	r2, #8
 5884 0066 BA18     		adds	r2, r7, r2
 5885 0068 1288     		ldrh	r2, [r2]
 5886 006a 5A85     		strh	r2, [r3, #42]
 5887 006c FB68     		ldr	r3, [r7, #12]
 5888 006e 3A6B     		ldr	r2, [r7, #48]
 5889 0070 DA62     		str	r2, [r3, #44]
 5890 0072 FB68     		ldr	r3, [r7, #12]
 5891 0074 6B4A     		ldr	r2, .L367+4
 5892 0076 5A63     		str	r2, [r3, #52]
 5893 0078 FB68     		ldr	r3, [r7, #12]
 5894 007a 5B8D     		ldrh	r3, [r3, #42]
 5895 007c 9BB2     		uxth	r3, r3
 5896 007e FF2B     		cmp	r3, #255
 5897 0080 06D9     		bls	.L354
 5898 0082 FB68     		ldr	r3, [r7, #12]
 5899 0084 FF22     		movs	r2, #255
 5900 0086 1A85     		strh	r2, [r3, #40]
 5901 0088 8023     		movs	r3, #128
 5902 008a 5B04     		lsls	r3, r3, #17
 5903 008c FB61     		str	r3, [r7, #28]
 5904 008e 07E0     		b	.L355
 5905              	.L354:
 5906 0090 FB68     		ldr	r3, [r7, #12]
 5907 0092 5B8D     		ldrh	r3, [r3, #42]
 5908 0094 9AB2     		uxth	r2, r3
 5909 0096 FB68     		ldr	r3, [r7, #12]
 5910 0098 1A85     		strh	r2, [r3, #40]
 5911 009a FB68     		ldr	r3, [r7, #12]
 5912 009c DB6A     		ldr	r3, [r3, #44]
 5913 009e FB61     		str	r3, [r7, #28]
 5914              	.L355:
 5915 00a0 FB68     		ldr	r3, [r7, #12]
 5916 00a2 1B6B     		ldr	r3, [r3, #48]
 5917 00a4 122B     		cmp	r3, #18
 5918 00a6 0FD1     		bne	.L356
 5919 00a8 3B6B     		ldr	r3, [r7, #48]
 5920 00aa AA2B     		cmp	r3, #170
 5921 00ac 04D0     		beq	.L357
 5922 00ae 3A6B     		ldr	r2, [r7, #48]
 5923 00b0 AA23     		movs	r3, #170
 5924 00b2 1B02     		lsls	r3, r3, #8
ARM GAS  /tmp/ccnCrYSN.s 			page 104


 5925 00b4 9A42     		cmp	r2, r3
 5926 00b6 01D1     		bne	.L358
 5927              	.L357:
 5928 00b8 0123     		movs	r3, #1
 5929 00ba 00E0     		b	.L359
 5930              	.L358:
 5931 00bc 0023     		movs	r3, #0
 5932              	.L359:
 5933 00be 002B     		cmp	r3, #0
 5934 00c0 02D1     		bne	.L356
 5935 00c2 0023     		movs	r3, #0
 5936 00c4 BB61     		str	r3, [r7, #24]
 5937 00c6 0BE0     		b	.L360
 5938              	.L356:
 5939 00c8 FB68     		ldr	r3, [r7, #12]
 5940 00ca 1800     		movs	r0, r3
 5941 00cc FFF7FEFF 		bl	I2C_ConvertOtherXferOptions
 5942 00d0 FB68     		ldr	r3, [r7, #12]
 5943 00d2 5B8D     		ldrh	r3, [r3, #42]
 5944 00d4 9BB2     		uxth	r3, r3
 5945 00d6 FF2B     		cmp	r3, #255
 5946 00d8 02D8     		bhi	.L360
 5947 00da FB68     		ldr	r3, [r7, #12]
 5948 00dc DB6A     		ldr	r3, [r3, #44]
 5949 00de FB61     		str	r3, [r7, #28]
 5950              	.L360:
 5951 00e0 FB68     		ldr	r3, [r7, #12]
 5952 00e2 1B8D     		ldrh	r3, [r3, #40]
 5953 00e4 002B     		cmp	r3, #0
 5954 00e6 00D1     		bne	.LCB6388
 5955 00e8 78E0     		b	.L361	@long jump
 5956              	.LCB6388:
 5957 00ea FB68     		ldr	r3, [r7, #12]
 5958 00ec DB6B     		ldr	r3, [r3, #60]
 5959 00ee 002B     		cmp	r3, #0
 5960 00f0 23D0     		beq	.L362
 5961 00f2 FB68     		ldr	r3, [r7, #12]
 5962 00f4 DB6B     		ldr	r3, [r3, #60]
 5963 00f6 4C4A     		ldr	r2, .L367+8
 5964 00f8 9A62     		str	r2, [r3, #40]
 5965 00fa FB68     		ldr	r3, [r7, #12]
 5966 00fc DB6B     		ldr	r3, [r3, #60]
 5967 00fe 4B4A     		ldr	r2, .L367+12
 5968 0100 1A63     		str	r2, [r3, #48]
 5969 0102 FB68     		ldr	r3, [r7, #12]
 5970 0104 DB6B     		ldr	r3, [r3, #60]
 5971 0106 0022     		movs	r2, #0
 5972 0108 DA62     		str	r2, [r3, #44]
 5973 010a FB68     		ldr	r3, [r7, #12]
 5974 010c DB6B     		ldr	r3, [r3, #60]
 5975 010e 0022     		movs	r2, #0
 5976 0110 5A63     		str	r2, [r3, #52]
 5977 0112 FB68     		ldr	r3, [r7, #12]
 5978 0114 D86B     		ldr	r0, [r3, #60]
 5979 0116 FB68     		ldr	r3, [r7, #12]
 5980 0118 1B68     		ldr	r3, [r3]
 5981 011a 2433     		adds	r3, r3, #36
ARM GAS  /tmp/ccnCrYSN.s 			page 105


 5982 011c 1900     		movs	r1, r3
 5983 011e 7A68     		ldr	r2, [r7, #4]
 5984 0120 FB68     		ldr	r3, [r7, #12]
 5985 0122 1B8D     		ldrh	r3, [r3, #40]
 5986 0124 1725     		movs	r5, #23
 5987 0126 7C19     		adds	r4, r7, r5
 5988 0128 FFF7FEFF 		bl	HAL_DMA_Start_IT
 5989 012c 0300     		movs	r3, r0
 5990 012e 2370     		strb	r3, [r4]
 5991 0130 7B19     		adds	r3, r7, r5
 5992 0132 1B78     		ldrb	r3, [r3]
 5993 0134 002B     		cmp	r3, #0
 5994 0136 3DD1     		bne	.L364
 5995 0138 13E0     		b	.L366
 5996              	.L362:
 5997 013a FB68     		ldr	r3, [r7, #12]
 5998 013c 4122     		movs	r2, #65
 5999 013e 2021     		movs	r1, #32
 6000 0140 9954     		strb	r1, [r3, r2]
 6001 0142 FB68     		ldr	r3, [r7, #12]
 6002 0144 4222     		movs	r2, #66
 6003 0146 0021     		movs	r1, #0
 6004 0148 9954     		strb	r1, [r3, r2]
 6005 014a FB68     		ldr	r3, [r7, #12]
 6006 014c 5B6C     		ldr	r3, [r3, #68]
 6007 014e 8022     		movs	r2, #128
 6008 0150 1A43     		orrs	r2, r3
 6009 0152 FB68     		ldr	r3, [r7, #12]
 6010 0154 5A64     		str	r2, [r3, #68]
 6011 0156 FB68     		ldr	r3, [r7, #12]
 6012 0158 4022     		movs	r2, #64
 6013 015a 0021     		movs	r1, #0
 6014 015c 9954     		strb	r1, [r3, r2]
 6015 015e 0123     		movs	r3, #1
 6016 0160 59E0     		b	.L353
 6017              	.L366:
 6018 0162 FB68     		ldr	r3, [r7, #12]
 6019 0164 1B8D     		ldrh	r3, [r3, #40]
 6020 0166 DAB2     		uxtb	r2, r3
 6021 0168 FC69     		ldr	r4, [r7, #28]
 6022 016a 0A23     		movs	r3, #10
 6023 016c FB18     		adds	r3, r7, r3
 6024 016e 1988     		ldrh	r1, [r3]
 6025 0170 F868     		ldr	r0, [r7, #12]
 6026 0172 BB69     		ldr	r3, [r7, #24]
 6027 0174 0093     		str	r3, [sp]
 6028 0176 2300     		movs	r3, r4
 6029 0178 FFF7FEFF 		bl	I2C_TransferConfig
 6030 017c FB68     		ldr	r3, [r7, #12]
 6031 017e 5B8D     		ldrh	r3, [r3, #42]
 6032 0180 9AB2     		uxth	r2, r3
 6033 0182 FB68     		ldr	r3, [r7, #12]
 6034 0184 1B8D     		ldrh	r3, [r3, #40]
 6035 0186 D31A     		subs	r3, r2, r3
 6036 0188 9AB2     		uxth	r2, r3
 6037 018a FB68     		ldr	r3, [r7, #12]
 6038 018c 5A85     		strh	r2, [r3, #42]
ARM GAS  /tmp/ccnCrYSN.s 			page 106


 6039 018e FB68     		ldr	r3, [r7, #12]
 6040 0190 4022     		movs	r2, #64
 6041 0192 0021     		movs	r1, #0
 6042 0194 9954     		strb	r1, [r3, r2]
 6043 0196 FB68     		ldr	r3, [r7, #12]
 6044 0198 1021     		movs	r1, #16
 6045 019a 1800     		movs	r0, r3
 6046 019c FFF7FEFF 		bl	I2C_Enable_IRQ
 6047 01a0 FB68     		ldr	r3, [r7, #12]
 6048 01a2 1B68     		ldr	r3, [r3]
 6049 01a4 1A68     		ldr	r2, [r3]
 6050 01a6 FB68     		ldr	r3, [r7, #12]
 6051 01a8 1B68     		ldr	r3, [r3]
 6052 01aa 8021     		movs	r1, #128
 6053 01ac 0902     		lsls	r1, r1, #8
 6054 01ae 0A43     		orrs	r2, r1
 6055 01b0 1A60     		str	r2, [r3]
 6056 01b2 2DE0     		b	.L365
 6057              	.L364:
 6058 01b4 FB68     		ldr	r3, [r7, #12]
 6059 01b6 4122     		movs	r2, #65
 6060 01b8 2021     		movs	r1, #32
 6061 01ba 9954     		strb	r1, [r3, r2]
 6062 01bc FB68     		ldr	r3, [r7, #12]
 6063 01be 4222     		movs	r2, #66
 6064 01c0 0021     		movs	r1, #0
 6065 01c2 9954     		strb	r1, [r3, r2]
 6066 01c4 FB68     		ldr	r3, [r7, #12]
 6067 01c6 5B6C     		ldr	r3, [r3, #68]
 6068 01c8 1022     		movs	r2, #16
 6069 01ca 1A43     		orrs	r2, r3
 6070 01cc FB68     		ldr	r3, [r7, #12]
 6071 01ce 5A64     		str	r2, [r3, #68]
 6072 01d0 FB68     		ldr	r3, [r7, #12]
 6073 01d2 4022     		movs	r2, #64
 6074 01d4 0021     		movs	r1, #0
 6075 01d6 9954     		strb	r1, [r3, r2]
 6076 01d8 0123     		movs	r3, #1
 6077 01da 1CE0     		b	.L353
 6078              	.L361:
 6079 01dc FB68     		ldr	r3, [r7, #12]
 6080 01de 144A     		ldr	r2, .L367+16
 6081 01e0 5A63     		str	r2, [r3, #52]
 6082 01e2 FB68     		ldr	r3, [r7, #12]
 6083 01e4 1B8D     		ldrh	r3, [r3, #40]
 6084 01e6 DAB2     		uxtb	r2, r3
 6085 01e8 8023     		movs	r3, #128
 6086 01ea 9C04     		lsls	r4, r3, #18
 6087 01ec 0A23     		movs	r3, #10
 6088 01ee FB18     		adds	r3, r7, r3
 6089 01f0 1988     		ldrh	r1, [r3]
 6090 01f2 F868     		ldr	r0, [r7, #12]
 6091 01f4 0A4B     		ldr	r3, .L367
 6092 01f6 0093     		str	r3, [sp]
 6093 01f8 2300     		movs	r3, r4
 6094 01fa FFF7FEFF 		bl	I2C_TransferConfig
 6095 01fe FB68     		ldr	r3, [r7, #12]
ARM GAS  /tmp/ccnCrYSN.s 			page 107


 6096 0200 4022     		movs	r2, #64
 6097 0202 0021     		movs	r1, #0
 6098 0204 9954     		strb	r1, [r3, r2]
 6099 0206 FB68     		ldr	r3, [r7, #12]
 6100 0208 0221     		movs	r1, #2
 6101 020a 1800     		movs	r0, r3
 6102 020c FFF7FEFF 		bl	I2C_Enable_IRQ
 6103              	.L365:
 6104 0210 0023     		movs	r3, #0
 6105 0212 00E0     		b	.L353
 6106              	.L351:
 6107 0214 0223     		movs	r3, #2
 6108              	.L353:
 6109 0216 1800     		movs	r0, r3
 6110 0218 BD46     		mov	sp, r7
 6111 021a 08B0     		add	sp, sp, #32
 6112              		@ sp needed
 6113 021c B0BD     		pop	{r4, r5, r7, pc}
 6114              	.L368:
 6115 021e C046     		.align	2
 6116              	.L367:
 6117 0220 00240080 		.word	-2147474432
 6118 0224 00000000 		.word	I2C_Master_ISR_DMA
 6119 0228 00000000 		.word	I2C_DMAMasterReceiveCplt
 6120 022c 00000000 		.word	I2C_DMAError
 6121 0230 00000000 		.word	I2C_Master_ISR_IT
 6123              		.section	.text.HAL_I2C_Slave_Seq_Transmit_IT,"ax",%progbits
 6124              		.align	1
 6125              		.global	HAL_I2C_Slave_Seq_Transmit_IT
 6126              		.syntax unified
 6127              		.code	16
 6128              		.thumb_func
 6130              	HAL_I2C_Slave_Seq_Transmit_IT:
 6131              		@ args = 0, pretend = 0, frame = 24
 6132              		@ frame_needed = 1, uses_anonymous_args = 0
 6133 0000 80B5     		push	{r7, lr}
 6134 0002 86B0     		sub	sp, sp, #24
 6135 0004 00AF     		add	r7, sp, #0
 6136 0006 F860     		str	r0, [r7, #12]
 6137 0008 B960     		str	r1, [r7, #8]
 6138 000a 3B60     		str	r3, [r7]
 6139 000c BB1D     		adds	r3, r7, #6
 6140 000e 1A80     		strh	r2, [r3]
 6141 0010 FB68     		ldr	r3, [r7, #12]
 6142 0012 4122     		movs	r2, #65
 6143 0014 9B5C     		ldrb	r3, [r3, r2]
 6144 0016 DBB2     		uxtb	r3, r3
 6145 0018 1A00     		movs	r2, r3
 6146 001a 2823     		movs	r3, #40
 6147 001c 1340     		ands	r3, r2
 6148 001e 282B     		cmp	r3, #40
 6149 0020 00D0     		beq	.LCB6597
 6150 0022 9EE0     		b	.L370	@long jump
 6151              	.LCB6597:
 6152 0024 BB68     		ldr	r3, [r7, #8]
 6153 0026 002B     		cmp	r3, #0
 6154 0028 03D0     		beq	.L371
ARM GAS  /tmp/ccnCrYSN.s 			page 108


 6155 002a BB1D     		adds	r3, r7, #6
 6156 002c 1B88     		ldrh	r3, [r3]
 6157 002e 002B     		cmp	r3, #0
 6158 0030 05D1     		bne	.L372
 6159              	.L371:
 6160 0032 FB68     		ldr	r3, [r7, #12]
 6161 0034 8022     		movs	r2, #128
 6162 0036 9200     		lsls	r2, r2, #2
 6163 0038 5A64     		str	r2, [r3, #68]
 6164 003a 0123     		movs	r3, #1
 6165 003c 92E0     		b	.L373
 6166              	.L372:
 6167 003e 4B4A     		ldr	r2, .L377
 6168 0040 FB68     		ldr	r3, [r7, #12]
 6169 0042 1100     		movs	r1, r2
 6170 0044 1800     		movs	r0, r3
 6171 0046 FFF7FEFF 		bl	I2C_Disable_IRQ
 6172 004a FB68     		ldr	r3, [r7, #12]
 6173 004c 4022     		movs	r2, #64
 6174 004e 9B5C     		ldrb	r3, [r3, r2]
 6175 0050 012B     		cmp	r3, #1
 6176 0052 01D1     		bne	.L374
 6177 0054 0223     		movs	r3, #2
 6178 0056 85E0     		b	.L373
 6179              	.L374:
 6180 0058 FB68     		ldr	r3, [r7, #12]
 6181 005a 4022     		movs	r2, #64
 6182 005c 0121     		movs	r1, #1
 6183 005e 9954     		strb	r1, [r3, r2]
 6184 0060 FB68     		ldr	r3, [r7, #12]
 6185 0062 4122     		movs	r2, #65
 6186 0064 9B5C     		ldrb	r3, [r3, r2]
 6187 0066 DBB2     		uxtb	r3, r3
 6188 0068 2A2B     		cmp	r3, #42
 6189 006a 2CD1     		bne	.L375
 6190 006c FB68     		ldr	r3, [r7, #12]
 6191 006e 0221     		movs	r1, #2
 6192 0070 1800     		movs	r0, r3
 6193 0072 FFF7FEFF 		bl	I2C_Disable_IRQ
 6194 0076 FB68     		ldr	r3, [r7, #12]
 6195 0078 1B68     		ldr	r3, [r3]
 6196 007a 1A68     		ldr	r2, [r3]
 6197 007c 8023     		movs	r3, #128
 6198 007e 1B02     		lsls	r3, r3, #8
 6199 0080 1A40     		ands	r2, r3
 6200 0082 8023     		movs	r3, #128
 6201 0084 1B02     		lsls	r3, r3, #8
 6202 0086 9A42     		cmp	r2, r3
 6203 0088 1DD1     		bne	.L375
 6204 008a FB68     		ldr	r3, [r7, #12]
 6205 008c 1B68     		ldr	r3, [r3]
 6206 008e 1A68     		ldr	r2, [r3]
 6207 0090 FB68     		ldr	r3, [r7, #12]
 6208 0092 1B68     		ldr	r3, [r3]
 6209 0094 3649     		ldr	r1, .L377+4
 6210 0096 0A40     		ands	r2, r1
 6211 0098 1A60     		str	r2, [r3]
ARM GAS  /tmp/ccnCrYSN.s 			page 109


 6212 009a FB68     		ldr	r3, [r7, #12]
 6213 009c DB6B     		ldr	r3, [r3, #60]
 6214 009e 002B     		cmp	r3, #0
 6215 00a0 11D0     		beq	.L375
 6216 00a2 FB68     		ldr	r3, [r7, #12]
 6217 00a4 DB6B     		ldr	r3, [r3, #60]
 6218 00a6 334A     		ldr	r2, .L377+8
 6219 00a8 5A63     		str	r2, [r3, #52]
 6220 00aa FB68     		ldr	r3, [r7, #12]
 6221 00ac DB6B     		ldr	r3, [r3, #60]
 6222 00ae 1800     		movs	r0, r3
 6223 00b0 FFF7FEFF 		bl	HAL_DMA_Abort_IT
 6224 00b4 031E     		subs	r3, r0, #0
 6225 00b6 06D0     		beq	.L375
 6226 00b8 FB68     		ldr	r3, [r7, #12]
 6227 00ba DB6B     		ldr	r3, [r3, #60]
 6228 00bc 5A6B     		ldr	r2, [r3, #52]
 6229 00be FB68     		ldr	r3, [r7, #12]
 6230 00c0 DB6B     		ldr	r3, [r3, #60]
 6231 00c2 1800     		movs	r0, r3
 6232 00c4 9047     		blx	r2
 6233              	.L375:
 6234 00c6 FB68     		ldr	r3, [r7, #12]
 6235 00c8 4122     		movs	r2, #65
 6236 00ca 2921     		movs	r1, #41
 6237 00cc 9954     		strb	r1, [r3, r2]
 6238 00ce FB68     		ldr	r3, [r7, #12]
 6239 00d0 4222     		movs	r2, #66
 6240 00d2 2021     		movs	r1, #32
 6241 00d4 9954     		strb	r1, [r3, r2]
 6242 00d6 FB68     		ldr	r3, [r7, #12]
 6243 00d8 0022     		movs	r2, #0
 6244 00da 5A64     		str	r2, [r3, #68]
 6245 00dc FB68     		ldr	r3, [r7, #12]
 6246 00de 1B68     		ldr	r3, [r3]
 6247 00e0 5A68     		ldr	r2, [r3, #4]
 6248 00e2 FB68     		ldr	r3, [r7, #12]
 6249 00e4 1B68     		ldr	r3, [r3]
 6250 00e6 2249     		ldr	r1, .L377+4
 6251 00e8 0A40     		ands	r2, r1
 6252 00ea 5A60     		str	r2, [r3, #4]
 6253 00ec FB68     		ldr	r3, [r7, #12]
 6254 00ee BA68     		ldr	r2, [r7, #8]
 6255 00f0 5A62     		str	r2, [r3, #36]
 6256 00f2 FB68     		ldr	r3, [r7, #12]
 6257 00f4 BA1D     		adds	r2, r7, #6
 6258 00f6 1288     		ldrh	r2, [r2]
 6259 00f8 5A85     		strh	r2, [r3, #42]
 6260 00fa FB68     		ldr	r3, [r7, #12]
 6261 00fc 5B8D     		ldrh	r3, [r3, #42]
 6262 00fe 9AB2     		uxth	r2, r3
 6263 0100 FB68     		ldr	r3, [r7, #12]
 6264 0102 1A85     		strh	r2, [r3, #40]
 6265 0104 FB68     		ldr	r3, [r7, #12]
 6266 0106 3A68     		ldr	r2, [r7]
 6267 0108 DA62     		str	r2, [r3, #44]
 6268 010a FB68     		ldr	r3, [r7, #12]
ARM GAS  /tmp/ccnCrYSN.s 			page 110


 6269 010c 1A4A     		ldr	r2, .L377+12
 6270 010e 5A63     		str	r2, [r3, #52]
 6271 0110 FB68     		ldr	r3, [r7, #12]
 6272 0112 1B68     		ldr	r3, [r3]
 6273 0114 9B69     		ldr	r3, [r3, #24]
 6274 0116 0822     		movs	r2, #8
 6275 0118 1340     		ands	r3, r2
 6276 011a 1B07     		lsls	r3, r3, #28
 6277 011c DB0F     		lsrs	r3, r3, #31
 6278 011e DAB2     		uxtb	r2, r3
 6279 0120 1721     		movs	r1, #23
 6280 0122 7B18     		adds	r3, r7, r1
 6281 0124 1A70     		strb	r2, [r3]
 6282 0126 FB68     		ldr	r3, [r7, #12]
 6283 0128 1B68     		ldr	r3, [r3]
 6284 012a 9B69     		ldr	r3, [r3, #24]
 6285 012c 1B0C     		lsrs	r3, r3, #16
 6286 012e DBB2     		uxtb	r3, r3
 6287 0130 0122     		movs	r2, #1
 6288 0132 1340     		ands	r3, r2
 6289 0134 DBB2     		uxtb	r3, r3
 6290 0136 012B     		cmp	r3, #1
 6291 0138 07D1     		bne	.L376
 6292 013a 7B18     		adds	r3, r7, r1
 6293 013c 1B78     		ldrb	r3, [r3]
 6294 013e 002B     		cmp	r3, #0
 6295 0140 03D0     		beq	.L376
 6296 0142 FB68     		ldr	r3, [r7, #12]
 6297 0144 1B68     		ldr	r3, [r3]
 6298 0146 0822     		movs	r2, #8
 6299 0148 DA61     		str	r2, [r3, #28]
 6300              	.L376:
 6301 014a FB68     		ldr	r3, [r7, #12]
 6302 014c 4022     		movs	r2, #64
 6303 014e 0021     		movs	r1, #0
 6304 0150 9954     		strb	r1, [r3, r2]
 6305 0152 064A     		ldr	r2, .L377
 6306 0154 FB68     		ldr	r3, [r7, #12]
 6307 0156 1100     		movs	r1, r2
 6308 0158 1800     		movs	r0, r3
 6309 015a FFF7FEFF 		bl	I2C_Enable_IRQ
 6310 015e 0023     		movs	r3, #0
 6311 0160 00E0     		b	.L373
 6312              	.L370:
 6313 0162 0123     		movs	r3, #1
 6314              	.L373:
 6315 0164 1800     		movs	r0, r3
 6316 0166 BD46     		mov	sp, r7
 6317 0168 06B0     		add	sp, sp, #24
 6318              		@ sp needed
 6319 016a 80BD     		pop	{r7, pc}
 6320              	.L378:
 6321              		.align	2
 6322              	.L377:
 6323 016c 01800000 		.word	32769
 6324 0170 FF7FFFFF 		.word	-32769
 6325 0174 00000000 		.word	I2C_DMAAbort
ARM GAS  /tmp/ccnCrYSN.s 			page 111


 6326 0178 00000000 		.word	I2C_Slave_ISR_IT
 6328              		.section	.text.HAL_I2C_Slave_Seq_Transmit_DMA,"ax",%progbits
 6329              		.align	1
 6330              		.global	HAL_I2C_Slave_Seq_Transmit_DMA
 6331              		.syntax unified
 6332              		.code	16
 6333              		.thumb_func
 6335              	HAL_I2C_Slave_Seq_Transmit_DMA:
 6336              		@ args = 0, pretend = 0, frame = 24
 6337              		@ frame_needed = 1, uses_anonymous_args = 0
 6338 0000 B0B5     		push	{r4, r5, r7, lr}
 6339 0002 86B0     		sub	sp, sp, #24
 6340 0004 00AF     		add	r7, sp, #0
 6341 0006 F860     		str	r0, [r7, #12]
 6342 0008 B960     		str	r1, [r7, #8]
 6343 000a 3B60     		str	r3, [r7]
 6344 000c BB1D     		adds	r3, r7, #6
 6345 000e 1A80     		strh	r2, [r3]
 6346 0010 FB68     		ldr	r3, [r7, #12]
 6347 0012 4122     		movs	r2, #65
 6348 0014 9B5C     		ldrb	r3, [r3, r2]
 6349 0016 DBB2     		uxtb	r3, r3
 6350 0018 1A00     		movs	r2, r3
 6351 001a 2823     		movs	r3, #40
 6352 001c 1340     		ands	r3, r2
 6353 001e 282B     		cmp	r3, #40
 6354 0020 00D0     		beq	.LCB6812
 6355 0022 35E1     		b	.L380	@long jump
 6356              	.LCB6812:
 6357 0024 BB68     		ldr	r3, [r7, #8]
 6358 0026 002B     		cmp	r3, #0
 6359 0028 03D0     		beq	.L381
 6360 002a BB1D     		adds	r3, r7, #6
 6361 002c 1B88     		ldrh	r3, [r3]
 6362 002e 002B     		cmp	r3, #0
 6363 0030 05D1     		bne	.L382
 6364              	.L381:
 6365 0032 FB68     		ldr	r3, [r7, #12]
 6366 0034 8022     		movs	r2, #128
 6367 0036 9200     		lsls	r2, r2, #2
 6368 0038 5A64     		str	r2, [r3, #68]
 6369 003a 0123     		movs	r3, #1
 6370 003c 29E1     		b	.L383
 6371              	.L382:
 6372 003e FB68     		ldr	r3, [r7, #12]
 6373 0040 4022     		movs	r2, #64
 6374 0042 9B5C     		ldrb	r3, [r3, r2]
 6375 0044 012B     		cmp	r3, #1
 6376 0046 01D1     		bne	.L384
 6377 0048 0223     		movs	r3, #2
 6378 004a 22E1     		b	.L383
 6379              	.L384:
 6380 004c FB68     		ldr	r3, [r7, #12]
 6381 004e 4022     		movs	r2, #64
 6382 0050 0121     		movs	r1, #1
 6383 0052 9954     		strb	r1, [r3, r2]
 6384 0054 914A     		ldr	r2, .L394
ARM GAS  /tmp/ccnCrYSN.s 			page 112


 6385 0056 FB68     		ldr	r3, [r7, #12]
 6386 0058 1100     		movs	r1, r2
 6387 005a 1800     		movs	r0, r3
 6388 005c FFF7FEFF 		bl	I2C_Disable_IRQ
 6389 0060 FB68     		ldr	r3, [r7, #12]
 6390 0062 4122     		movs	r2, #65
 6391 0064 9B5C     		ldrb	r3, [r3, r2]
 6392 0066 DBB2     		uxtb	r3, r3
 6393 0068 2A2B     		cmp	r3, #42
 6394 006a 2DD1     		bne	.L385
 6395 006c FB68     		ldr	r3, [r7, #12]
 6396 006e 0221     		movs	r1, #2
 6397 0070 1800     		movs	r0, r3
 6398 0072 FFF7FEFF 		bl	I2C_Disable_IRQ
 6399 0076 FB68     		ldr	r3, [r7, #12]
 6400 0078 1B68     		ldr	r3, [r3]
 6401 007a 1A68     		ldr	r2, [r3]
 6402 007c 8023     		movs	r3, #128
 6403 007e 1B02     		lsls	r3, r3, #8
 6404 0080 1A40     		ands	r2, r3
 6405 0082 8023     		movs	r3, #128
 6406 0084 1B02     		lsls	r3, r3, #8
 6407 0086 9A42     		cmp	r2, r3
 6408 0088 4CD1     		bne	.L386
 6409 008a FB68     		ldr	r3, [r7, #12]
 6410 008c DB6B     		ldr	r3, [r3, #60]
 6411 008e 002B     		cmp	r3, #0
 6412 0090 48D0     		beq	.L386
 6413 0092 FB68     		ldr	r3, [r7, #12]
 6414 0094 1B68     		ldr	r3, [r3]
 6415 0096 1A68     		ldr	r2, [r3]
 6416 0098 FB68     		ldr	r3, [r7, #12]
 6417 009a 1B68     		ldr	r3, [r3]
 6418 009c 8049     		ldr	r1, .L394+4
 6419 009e 0A40     		ands	r2, r1
 6420 00a0 1A60     		str	r2, [r3]
 6421 00a2 FB68     		ldr	r3, [r7, #12]
 6422 00a4 DB6B     		ldr	r3, [r3, #60]
 6423 00a6 7F4A     		ldr	r2, .L394+8
 6424 00a8 5A63     		str	r2, [r3, #52]
 6425 00aa FB68     		ldr	r3, [r7, #12]
 6426 00ac DB6B     		ldr	r3, [r3, #60]
 6427 00ae 1800     		movs	r0, r3
 6428 00b0 FFF7FEFF 		bl	HAL_DMA_Abort_IT
 6429 00b4 031E     		subs	r3, r0, #0
 6430 00b6 35D0     		beq	.L386
 6431 00b8 FB68     		ldr	r3, [r7, #12]
 6432 00ba DB6B     		ldr	r3, [r3, #60]
 6433 00bc 5A6B     		ldr	r2, [r3, #52]
 6434 00be FB68     		ldr	r3, [r7, #12]
 6435 00c0 DB6B     		ldr	r3, [r3, #60]
 6436 00c2 1800     		movs	r0, r3
 6437 00c4 9047     		blx	r2
 6438 00c6 2DE0     		b	.L386
 6439              	.L385:
 6440 00c8 FB68     		ldr	r3, [r7, #12]
 6441 00ca 4122     		movs	r2, #65
ARM GAS  /tmp/ccnCrYSN.s 			page 113


 6442 00cc 9B5C     		ldrb	r3, [r3, r2]
 6443 00ce DBB2     		uxtb	r3, r3
 6444 00d0 292B     		cmp	r3, #41
 6445 00d2 27D1     		bne	.L386
 6446 00d4 FB68     		ldr	r3, [r7, #12]
 6447 00d6 1B68     		ldr	r3, [r3]
 6448 00d8 1A68     		ldr	r2, [r3]
 6449 00da 8023     		movs	r3, #128
 6450 00dc DB01     		lsls	r3, r3, #7
 6451 00de 1A40     		ands	r2, r3
 6452 00e0 8023     		movs	r3, #128
 6453 00e2 DB01     		lsls	r3, r3, #7
 6454 00e4 9A42     		cmp	r2, r3
 6455 00e6 1DD1     		bne	.L386
 6456 00e8 FB68     		ldr	r3, [r7, #12]
 6457 00ea 1B68     		ldr	r3, [r3]
 6458 00ec 1A68     		ldr	r2, [r3]
 6459 00ee FB68     		ldr	r3, [r7, #12]
 6460 00f0 1B68     		ldr	r3, [r3]
 6461 00f2 6D49     		ldr	r1, .L394+12
 6462 00f4 0A40     		ands	r2, r1
 6463 00f6 1A60     		str	r2, [r3]
 6464 00f8 FB68     		ldr	r3, [r7, #12]
 6465 00fa 9B6B     		ldr	r3, [r3, #56]
 6466 00fc 002B     		cmp	r3, #0
 6467 00fe 11D0     		beq	.L386
 6468 0100 FB68     		ldr	r3, [r7, #12]
 6469 0102 9B6B     		ldr	r3, [r3, #56]
 6470 0104 674A     		ldr	r2, .L394+8
 6471 0106 5A63     		str	r2, [r3, #52]
 6472 0108 FB68     		ldr	r3, [r7, #12]
 6473 010a 9B6B     		ldr	r3, [r3, #56]
 6474 010c 1800     		movs	r0, r3
 6475 010e FFF7FEFF 		bl	HAL_DMA_Abort_IT
 6476 0112 031E     		subs	r3, r0, #0
 6477 0114 06D0     		beq	.L386
 6478 0116 FB68     		ldr	r3, [r7, #12]
 6479 0118 9B6B     		ldr	r3, [r3, #56]
 6480 011a 5A6B     		ldr	r2, [r3, #52]
 6481 011c FB68     		ldr	r3, [r7, #12]
 6482 011e 9B6B     		ldr	r3, [r3, #56]
 6483 0120 1800     		movs	r0, r3
 6484 0122 9047     		blx	r2
 6485              	.L386:
 6486 0124 FB68     		ldr	r3, [r7, #12]
 6487 0126 4122     		movs	r2, #65
 6488 0128 2921     		movs	r1, #41
 6489 012a 9954     		strb	r1, [r3, r2]
 6490 012c FB68     		ldr	r3, [r7, #12]
 6491 012e 4222     		movs	r2, #66
 6492 0130 2021     		movs	r1, #32
 6493 0132 9954     		strb	r1, [r3, r2]
 6494 0134 FB68     		ldr	r3, [r7, #12]
 6495 0136 0022     		movs	r2, #0
 6496 0138 5A64     		str	r2, [r3, #68]
 6497 013a FB68     		ldr	r3, [r7, #12]
 6498 013c 1B68     		ldr	r3, [r3]
ARM GAS  /tmp/ccnCrYSN.s 			page 114


 6499 013e 5A68     		ldr	r2, [r3, #4]
 6500 0140 FB68     		ldr	r3, [r7, #12]
 6501 0142 1B68     		ldr	r3, [r3]
 6502 0144 5649     		ldr	r1, .L394+4
 6503 0146 0A40     		ands	r2, r1
 6504 0148 5A60     		str	r2, [r3, #4]
 6505 014a FB68     		ldr	r3, [r7, #12]
 6506 014c BA68     		ldr	r2, [r7, #8]
 6507 014e 5A62     		str	r2, [r3, #36]
 6508 0150 FB68     		ldr	r3, [r7, #12]
 6509 0152 BA1D     		adds	r2, r7, #6
 6510 0154 1288     		ldrh	r2, [r2]
 6511 0156 5A85     		strh	r2, [r3, #42]
 6512 0158 FB68     		ldr	r3, [r7, #12]
 6513 015a 5B8D     		ldrh	r3, [r3, #42]
 6514 015c 9AB2     		uxth	r2, r3
 6515 015e FB68     		ldr	r3, [r7, #12]
 6516 0160 1A85     		strh	r2, [r3, #40]
 6517 0162 FB68     		ldr	r3, [r7, #12]
 6518 0164 3A68     		ldr	r2, [r7]
 6519 0166 DA62     		str	r2, [r3, #44]
 6520 0168 FB68     		ldr	r3, [r7, #12]
 6521 016a 504A     		ldr	r2, .L394+16
 6522 016c 5A63     		str	r2, [r3, #52]
 6523 016e FB68     		ldr	r3, [r7, #12]
 6524 0170 9B6B     		ldr	r3, [r3, #56]
 6525 0172 002B     		cmp	r3, #0
 6526 0174 23D0     		beq	.L387
 6527 0176 FB68     		ldr	r3, [r7, #12]
 6528 0178 9B6B     		ldr	r3, [r3, #56]
 6529 017a 4D4A     		ldr	r2, .L394+20
 6530 017c 9A62     		str	r2, [r3, #40]
 6531 017e FB68     		ldr	r3, [r7, #12]
 6532 0180 9B6B     		ldr	r3, [r3, #56]
 6533 0182 4C4A     		ldr	r2, .L394+24
 6534 0184 1A63     		str	r2, [r3, #48]
 6535 0186 FB68     		ldr	r3, [r7, #12]
 6536 0188 9B6B     		ldr	r3, [r3, #56]
 6537 018a 0022     		movs	r2, #0
 6538 018c DA62     		str	r2, [r3, #44]
 6539 018e FB68     		ldr	r3, [r7, #12]
 6540 0190 9B6B     		ldr	r3, [r3, #56]
 6541 0192 0022     		movs	r2, #0
 6542 0194 5A63     		str	r2, [r3, #52]
 6543 0196 FB68     		ldr	r3, [r7, #12]
 6544 0198 986B     		ldr	r0, [r3, #56]
 6545 019a B968     		ldr	r1, [r7, #8]
 6546 019c FB68     		ldr	r3, [r7, #12]
 6547 019e 1B68     		ldr	r3, [r3]
 6548 01a0 2833     		adds	r3, r3, #40
 6549 01a2 1A00     		movs	r2, r3
 6550 01a4 FB68     		ldr	r3, [r7, #12]
 6551 01a6 1B8D     		ldrh	r3, [r3, #40]
 6552 01a8 1725     		movs	r5, #23
 6553 01aa 7C19     		adds	r4, r7, r5
 6554 01ac FFF7FEFF 		bl	HAL_DMA_Start_IT
 6555 01b0 0300     		movs	r3, r0
ARM GAS  /tmp/ccnCrYSN.s 			page 115


 6556 01b2 2370     		strb	r3, [r4]
 6557 01b4 7B19     		adds	r3, r7, r5
 6558 01b6 1B78     		ldrb	r3, [r3]
 6559 01b8 002B     		cmp	r3, #0
 6560 01ba 36D1     		bne	.L389
 6561 01bc 13E0     		b	.L392
 6562              	.L387:
 6563 01be FB68     		ldr	r3, [r7, #12]
 6564 01c0 4122     		movs	r2, #65
 6565 01c2 2821     		movs	r1, #40
 6566 01c4 9954     		strb	r1, [r3, r2]
 6567 01c6 FB68     		ldr	r3, [r7, #12]
 6568 01c8 4222     		movs	r2, #66
 6569 01ca 0021     		movs	r1, #0
 6570 01cc 9954     		strb	r1, [r3, r2]
 6571 01ce FB68     		ldr	r3, [r7, #12]
 6572 01d0 5B6C     		ldr	r3, [r3, #68]
 6573 01d2 8022     		movs	r2, #128
 6574 01d4 1A43     		orrs	r2, r3
 6575 01d6 FB68     		ldr	r3, [r7, #12]
 6576 01d8 5A64     		str	r2, [r3, #68]
 6577 01da FB68     		ldr	r3, [r7, #12]
 6578 01dc 4022     		movs	r2, #64
 6579 01de 0021     		movs	r1, #0
 6580 01e0 9954     		strb	r1, [r3, r2]
 6581 01e2 0123     		movs	r3, #1
 6582 01e4 55E0     		b	.L383
 6583              	.L392:
 6584 01e6 FB68     		ldr	r3, [r7, #12]
 6585 01e8 5B8D     		ldrh	r3, [r3, #42]
 6586 01ea 9AB2     		uxth	r2, r3
 6587 01ec FB68     		ldr	r3, [r7, #12]
 6588 01ee 1B8D     		ldrh	r3, [r3, #40]
 6589 01f0 D31A     		subs	r3, r2, r3
 6590 01f2 9AB2     		uxth	r2, r3
 6591 01f4 FB68     		ldr	r3, [r7, #12]
 6592 01f6 5A85     		strh	r2, [r3, #42]
 6593 01f8 FB68     		ldr	r3, [r7, #12]
 6594 01fa 0022     		movs	r2, #0
 6595 01fc 1A85     		strh	r2, [r3, #40]
 6596 01fe FB68     		ldr	r3, [r7, #12]
 6597 0200 1B68     		ldr	r3, [r3]
 6598 0202 9B69     		ldr	r3, [r3, #24]
 6599 0204 0822     		movs	r2, #8
 6600 0206 1340     		ands	r3, r2
 6601 0208 1B07     		lsls	r3, r3, #28
 6602 020a DB0F     		lsrs	r3, r3, #31
 6603 020c DAB2     		uxtb	r2, r3
 6604 020e 1623     		movs	r3, #22
 6605 0210 FB18     		adds	r3, r7, r3
 6606 0212 1A70     		strb	r2, [r3]
 6607 0214 FB68     		ldr	r3, [r7, #12]
 6608 0216 1B68     		ldr	r3, [r3]
 6609 0218 9B69     		ldr	r3, [r3, #24]
 6610 021a 1B0C     		lsrs	r3, r3, #16
 6611 021c DBB2     		uxtb	r3, r3
 6612 021e 0122     		movs	r2, #1
ARM GAS  /tmp/ccnCrYSN.s 			page 116


 6613 0220 1340     		ands	r3, r2
 6614 0222 DBB2     		uxtb	r3, r3
 6615 0224 012B     		cmp	r3, #1
 6616 0226 1DD1     		bne	.L391
 6617 0228 13E0     		b	.L393
 6618              	.L389:
 6619 022a FB68     		ldr	r3, [r7, #12]
 6620 022c 4122     		movs	r2, #65
 6621 022e 2821     		movs	r1, #40
 6622 0230 9954     		strb	r1, [r3, r2]
 6623 0232 FB68     		ldr	r3, [r7, #12]
 6624 0234 4222     		movs	r2, #66
 6625 0236 0021     		movs	r1, #0
 6626 0238 9954     		strb	r1, [r3, r2]
 6627 023a FB68     		ldr	r3, [r7, #12]
 6628 023c 5B6C     		ldr	r3, [r3, #68]
 6629 023e 1022     		movs	r2, #16
 6630 0240 1A43     		orrs	r2, r3
 6631 0242 FB68     		ldr	r3, [r7, #12]
 6632 0244 5A64     		str	r2, [r3, #68]
 6633 0246 FB68     		ldr	r3, [r7, #12]
 6634 0248 4022     		movs	r2, #64
 6635 024a 0021     		movs	r1, #0
 6636 024c 9954     		strb	r1, [r3, r2]
 6637 024e 0123     		movs	r3, #1
 6638 0250 1FE0     		b	.L383
 6639              	.L393:
 6640 0252 1623     		movs	r3, #22
 6641 0254 FB18     		adds	r3, r7, r3
 6642 0256 1B78     		ldrb	r3, [r3]
 6643 0258 002B     		cmp	r3, #0
 6644 025a 03D0     		beq	.L391
 6645 025c FB68     		ldr	r3, [r7, #12]
 6646 025e 1B68     		ldr	r3, [r3]
 6647 0260 0822     		movs	r2, #8
 6648 0262 DA61     		str	r2, [r3, #28]
 6649              	.L391:
 6650 0264 FB68     		ldr	r3, [r7, #12]
 6651 0266 4022     		movs	r2, #64
 6652 0268 0021     		movs	r1, #0
 6653 026a 9954     		strb	r1, [r3, r2]
 6654 026c FB68     		ldr	r3, [r7, #12]
 6655 026e 1B68     		ldr	r3, [r3]
 6656 0270 1A68     		ldr	r2, [r3]
 6657 0272 FB68     		ldr	r3, [r7, #12]
 6658 0274 1B68     		ldr	r3, [r3]
 6659 0276 8021     		movs	r1, #128
 6660 0278 C901     		lsls	r1, r1, #7
 6661 027a 0A43     		orrs	r2, r1
 6662 027c 1A60     		str	r2, [r3]
 6663 027e 8023     		movs	r3, #128
 6664 0280 1A02     		lsls	r2, r3, #8
 6665 0282 FB68     		ldr	r3, [r7, #12]
 6666 0284 1100     		movs	r1, r2
 6667 0286 1800     		movs	r0, r3
 6668 0288 FFF7FEFF 		bl	I2C_Enable_IRQ
 6669 028c 0023     		movs	r3, #0
ARM GAS  /tmp/ccnCrYSN.s 			page 117


 6670 028e 00E0     		b	.L383
 6671              	.L380:
 6672 0290 0123     		movs	r3, #1
 6673              	.L383:
 6674 0292 1800     		movs	r0, r3
 6675 0294 BD46     		mov	sp, r7
 6676 0296 06B0     		add	sp, sp, #24
 6677              		@ sp needed
 6678 0298 B0BD     		pop	{r4, r5, r7, pc}
 6679              	.L395:
 6680 029a C046     		.align	2
 6681              	.L394:
 6682 029c 01800000 		.word	32769
 6683 02a0 FF7FFFFF 		.word	-32769
 6684 02a4 00000000 		.word	I2C_DMAAbort
 6685 02a8 FFBFFFFF 		.word	-16385
 6686 02ac 00000000 		.word	I2C_Slave_ISR_DMA
 6687 02b0 00000000 		.word	I2C_DMASlaveTransmitCplt
 6688 02b4 00000000 		.word	I2C_DMAError
 6690              		.section	.text.HAL_I2C_Slave_Seq_Receive_IT,"ax",%progbits
 6691              		.align	1
 6692              		.global	HAL_I2C_Slave_Seq_Receive_IT
 6693              		.syntax unified
 6694              		.code	16
 6695              		.thumb_func
 6697              	HAL_I2C_Slave_Seq_Receive_IT:
 6698              		@ args = 0, pretend = 0, frame = 24
 6699              		@ frame_needed = 1, uses_anonymous_args = 0
 6700 0000 80B5     		push	{r7, lr}
 6701 0002 86B0     		sub	sp, sp, #24
 6702 0004 00AF     		add	r7, sp, #0
 6703 0006 F860     		str	r0, [r7, #12]
 6704 0008 B960     		str	r1, [r7, #8]
 6705 000a 3B60     		str	r3, [r7]
 6706 000c BB1D     		adds	r3, r7, #6
 6707 000e 1A80     		strh	r2, [r3]
 6708 0010 FB68     		ldr	r3, [r7, #12]
 6709 0012 4122     		movs	r2, #65
 6710 0014 9B5C     		ldrb	r3, [r3, r2]
 6711 0016 DBB2     		uxtb	r3, r3
 6712 0018 1A00     		movs	r2, r3
 6713 001a 2823     		movs	r3, #40
 6714 001c 1340     		ands	r3, r2
 6715 001e 282B     		cmp	r3, #40
 6716 0020 00D0     		beq	.LCB7197
 6717 0022 9EE0     		b	.L397	@long jump
 6718              	.LCB7197:
 6719 0024 BB68     		ldr	r3, [r7, #8]
 6720 0026 002B     		cmp	r3, #0
 6721 0028 03D0     		beq	.L398
 6722 002a BB1D     		adds	r3, r7, #6
 6723 002c 1B88     		ldrh	r3, [r3]
 6724 002e 002B     		cmp	r3, #0
 6725 0030 05D1     		bne	.L399
 6726              	.L398:
 6727 0032 FB68     		ldr	r3, [r7, #12]
 6728 0034 8022     		movs	r2, #128
ARM GAS  /tmp/ccnCrYSN.s 			page 118


 6729 0036 9200     		lsls	r2, r2, #2
 6730 0038 5A64     		str	r2, [r3, #68]
 6731 003a 0123     		movs	r3, #1
 6732 003c 92E0     		b	.L400
 6733              	.L399:
 6734 003e 4B4A     		ldr	r2, .L404
 6735 0040 FB68     		ldr	r3, [r7, #12]
 6736 0042 1100     		movs	r1, r2
 6737 0044 1800     		movs	r0, r3
 6738 0046 FFF7FEFF 		bl	I2C_Disable_IRQ
 6739 004a FB68     		ldr	r3, [r7, #12]
 6740 004c 4022     		movs	r2, #64
 6741 004e 9B5C     		ldrb	r3, [r3, r2]
 6742 0050 012B     		cmp	r3, #1
 6743 0052 01D1     		bne	.L401
 6744 0054 0223     		movs	r3, #2
 6745 0056 85E0     		b	.L400
 6746              	.L401:
 6747 0058 FB68     		ldr	r3, [r7, #12]
 6748 005a 4022     		movs	r2, #64
 6749 005c 0121     		movs	r1, #1
 6750 005e 9954     		strb	r1, [r3, r2]
 6751 0060 FB68     		ldr	r3, [r7, #12]
 6752 0062 4122     		movs	r2, #65
 6753 0064 9B5C     		ldrb	r3, [r3, r2]
 6754 0066 DBB2     		uxtb	r3, r3
 6755 0068 292B     		cmp	r3, #41
 6756 006a 2CD1     		bne	.L402
 6757 006c FB68     		ldr	r3, [r7, #12]
 6758 006e 0121     		movs	r1, #1
 6759 0070 1800     		movs	r0, r3
 6760 0072 FFF7FEFF 		bl	I2C_Disable_IRQ
 6761 0076 FB68     		ldr	r3, [r7, #12]
 6762 0078 1B68     		ldr	r3, [r3]
 6763 007a 1A68     		ldr	r2, [r3]
 6764 007c 8023     		movs	r3, #128
 6765 007e DB01     		lsls	r3, r3, #7
 6766 0080 1A40     		ands	r2, r3
 6767 0082 8023     		movs	r3, #128
 6768 0084 DB01     		lsls	r3, r3, #7
 6769 0086 9A42     		cmp	r2, r3
 6770 0088 1DD1     		bne	.L402
 6771 008a FB68     		ldr	r3, [r7, #12]
 6772 008c 1B68     		ldr	r3, [r3]
 6773 008e 1A68     		ldr	r2, [r3]
 6774 0090 FB68     		ldr	r3, [r7, #12]
 6775 0092 1B68     		ldr	r3, [r3]
 6776 0094 3649     		ldr	r1, .L404+4
 6777 0096 0A40     		ands	r2, r1
 6778 0098 1A60     		str	r2, [r3]
 6779 009a FB68     		ldr	r3, [r7, #12]
 6780 009c 9B6B     		ldr	r3, [r3, #56]
 6781 009e 002B     		cmp	r3, #0
 6782 00a0 11D0     		beq	.L402
 6783 00a2 FB68     		ldr	r3, [r7, #12]
 6784 00a4 9B6B     		ldr	r3, [r3, #56]
 6785 00a6 334A     		ldr	r2, .L404+8
ARM GAS  /tmp/ccnCrYSN.s 			page 119


 6786 00a8 5A63     		str	r2, [r3, #52]
 6787 00aa FB68     		ldr	r3, [r7, #12]
 6788 00ac 9B6B     		ldr	r3, [r3, #56]
 6789 00ae 1800     		movs	r0, r3
 6790 00b0 FFF7FEFF 		bl	HAL_DMA_Abort_IT
 6791 00b4 031E     		subs	r3, r0, #0
 6792 00b6 06D0     		beq	.L402
 6793 00b8 FB68     		ldr	r3, [r7, #12]
 6794 00ba 9B6B     		ldr	r3, [r3, #56]
 6795 00bc 5A6B     		ldr	r2, [r3, #52]
 6796 00be FB68     		ldr	r3, [r7, #12]
 6797 00c0 9B6B     		ldr	r3, [r3, #56]
 6798 00c2 1800     		movs	r0, r3
 6799 00c4 9047     		blx	r2
 6800              	.L402:
 6801 00c6 FB68     		ldr	r3, [r7, #12]
 6802 00c8 4122     		movs	r2, #65
 6803 00ca 2A21     		movs	r1, #42
 6804 00cc 9954     		strb	r1, [r3, r2]
 6805 00ce FB68     		ldr	r3, [r7, #12]
 6806 00d0 4222     		movs	r2, #66
 6807 00d2 2021     		movs	r1, #32
 6808 00d4 9954     		strb	r1, [r3, r2]
 6809 00d6 FB68     		ldr	r3, [r7, #12]
 6810 00d8 0022     		movs	r2, #0
 6811 00da 5A64     		str	r2, [r3, #68]
 6812 00dc FB68     		ldr	r3, [r7, #12]
 6813 00de 1B68     		ldr	r3, [r3]
 6814 00e0 5A68     		ldr	r2, [r3, #4]
 6815 00e2 FB68     		ldr	r3, [r7, #12]
 6816 00e4 1B68     		ldr	r3, [r3]
 6817 00e6 2449     		ldr	r1, .L404+12
 6818 00e8 0A40     		ands	r2, r1
 6819 00ea 5A60     		str	r2, [r3, #4]
 6820 00ec FB68     		ldr	r3, [r7, #12]
 6821 00ee BA68     		ldr	r2, [r7, #8]
 6822 00f0 5A62     		str	r2, [r3, #36]
 6823 00f2 FB68     		ldr	r3, [r7, #12]
 6824 00f4 BA1D     		adds	r2, r7, #6
 6825 00f6 1288     		ldrh	r2, [r2]
 6826 00f8 5A85     		strh	r2, [r3, #42]
 6827 00fa FB68     		ldr	r3, [r7, #12]
 6828 00fc 5B8D     		ldrh	r3, [r3, #42]
 6829 00fe 9AB2     		uxth	r2, r3
 6830 0100 FB68     		ldr	r3, [r7, #12]
 6831 0102 1A85     		strh	r2, [r3, #40]
 6832 0104 FB68     		ldr	r3, [r7, #12]
 6833 0106 3A68     		ldr	r2, [r7]
 6834 0108 DA62     		str	r2, [r3, #44]
 6835 010a FB68     		ldr	r3, [r7, #12]
 6836 010c 1B4A     		ldr	r2, .L404+16
 6837 010e 5A63     		str	r2, [r3, #52]
 6838 0110 FB68     		ldr	r3, [r7, #12]
 6839 0112 1B68     		ldr	r3, [r3]
 6840 0114 9B69     		ldr	r3, [r3, #24]
 6841 0116 0822     		movs	r2, #8
 6842 0118 1340     		ands	r3, r2
ARM GAS  /tmp/ccnCrYSN.s 			page 120


 6843 011a 1B07     		lsls	r3, r3, #28
 6844 011c DB0F     		lsrs	r3, r3, #31
 6845 011e DAB2     		uxtb	r2, r3
 6846 0120 1721     		movs	r1, #23
 6847 0122 7B18     		adds	r3, r7, r1
 6848 0124 1A70     		strb	r2, [r3]
 6849 0126 FB68     		ldr	r3, [r7, #12]
 6850 0128 1B68     		ldr	r3, [r3]
 6851 012a 9B69     		ldr	r3, [r3, #24]
 6852 012c 1B0C     		lsrs	r3, r3, #16
 6853 012e DBB2     		uxtb	r3, r3
 6854 0130 0122     		movs	r2, #1
 6855 0132 1340     		ands	r3, r2
 6856 0134 DBB2     		uxtb	r3, r3
 6857 0136 002B     		cmp	r3, #0
 6858 0138 07D1     		bne	.L403
 6859 013a 7B18     		adds	r3, r7, r1
 6860 013c 1B78     		ldrb	r3, [r3]
 6861 013e 002B     		cmp	r3, #0
 6862 0140 03D0     		beq	.L403
 6863 0142 FB68     		ldr	r3, [r7, #12]
 6864 0144 1B68     		ldr	r3, [r3]
 6865 0146 0822     		movs	r2, #8
 6866 0148 DA61     		str	r2, [r3, #28]
 6867              	.L403:
 6868 014a FB68     		ldr	r3, [r7, #12]
 6869 014c 4022     		movs	r2, #64
 6870 014e 0021     		movs	r1, #0
 6871 0150 9954     		strb	r1, [r3, r2]
 6872 0152 064A     		ldr	r2, .L404
 6873 0154 FB68     		ldr	r3, [r7, #12]
 6874 0156 1100     		movs	r1, r2
 6875 0158 1800     		movs	r0, r3
 6876 015a FFF7FEFF 		bl	I2C_Enable_IRQ
 6877 015e 0023     		movs	r3, #0
 6878 0160 00E0     		b	.L400
 6879              	.L397:
 6880 0162 0123     		movs	r3, #1
 6881              	.L400:
 6882 0164 1800     		movs	r0, r3
 6883 0166 BD46     		mov	sp, r7
 6884 0168 06B0     		add	sp, sp, #24
 6885              		@ sp needed
 6886 016a 80BD     		pop	{r7, pc}
 6887              	.L405:
 6888              		.align	2
 6889              	.L404:
 6890 016c 02800000 		.word	32770
 6891 0170 FFBFFFFF 		.word	-16385
 6892 0174 00000000 		.word	I2C_DMAAbort
 6893 0178 FF7FFFFF 		.word	-32769
 6894 017c 00000000 		.word	I2C_Slave_ISR_IT
 6896              		.section	.text.HAL_I2C_Slave_Seq_Receive_DMA,"ax",%progbits
 6897              		.align	1
 6898              		.global	HAL_I2C_Slave_Seq_Receive_DMA
 6899              		.syntax unified
 6900              		.code	16
ARM GAS  /tmp/ccnCrYSN.s 			page 121


 6901              		.thumb_func
 6903              	HAL_I2C_Slave_Seq_Receive_DMA:
 6904              		@ args = 0, pretend = 0, frame = 24
 6905              		@ frame_needed = 1, uses_anonymous_args = 0
 6906 0000 B0B5     		push	{r4, r5, r7, lr}
 6907 0002 86B0     		sub	sp, sp, #24
 6908 0004 00AF     		add	r7, sp, #0
 6909 0006 F860     		str	r0, [r7, #12]
 6910 0008 B960     		str	r1, [r7, #8]
 6911 000a 3B60     		str	r3, [r7]
 6912 000c BB1D     		adds	r3, r7, #6
 6913 000e 1A80     		strh	r2, [r3]
 6914 0010 FB68     		ldr	r3, [r7, #12]
 6915 0012 4122     		movs	r2, #65
 6916 0014 9B5C     		ldrb	r3, [r3, r2]
 6917 0016 DBB2     		uxtb	r3, r3
 6918 0018 1A00     		movs	r2, r3
 6919 001a 2823     		movs	r3, #40
 6920 001c 1340     		ands	r3, r2
 6921 001e 282B     		cmp	r3, #40
 6922 0020 00D0     		beq	.LCB7413
 6923 0022 34E1     		b	.L407	@long jump
 6924              	.LCB7413:
 6925 0024 BB68     		ldr	r3, [r7, #8]
 6926 0026 002B     		cmp	r3, #0
 6927 0028 03D0     		beq	.L408
 6928 002a BB1D     		adds	r3, r7, #6
 6929 002c 1B88     		ldrh	r3, [r3]
 6930 002e 002B     		cmp	r3, #0
 6931 0030 05D1     		bne	.L409
 6932              	.L408:
 6933 0032 FB68     		ldr	r3, [r7, #12]
 6934 0034 8022     		movs	r2, #128
 6935 0036 9200     		lsls	r2, r2, #2
 6936 0038 5A64     		str	r2, [r3, #68]
 6937 003a 0123     		movs	r3, #1
 6938 003c 28E1     		b	.L410
 6939              	.L409:
 6940 003e 964A     		ldr	r2, .L421
 6941 0040 FB68     		ldr	r3, [r7, #12]
 6942 0042 1100     		movs	r1, r2
 6943 0044 1800     		movs	r0, r3
 6944 0046 FFF7FEFF 		bl	I2C_Disable_IRQ
 6945 004a FB68     		ldr	r3, [r7, #12]
 6946 004c 4022     		movs	r2, #64
 6947 004e 9B5C     		ldrb	r3, [r3, r2]
 6948 0050 012B     		cmp	r3, #1
 6949 0052 01D1     		bne	.L411
 6950 0054 0223     		movs	r3, #2
 6951 0056 1BE1     		b	.L410
 6952              	.L411:
 6953 0058 FB68     		ldr	r3, [r7, #12]
 6954 005a 4022     		movs	r2, #64
 6955 005c 0121     		movs	r1, #1
 6956 005e 9954     		strb	r1, [r3, r2]
 6957 0060 FB68     		ldr	r3, [r7, #12]
 6958 0062 4122     		movs	r2, #65
ARM GAS  /tmp/ccnCrYSN.s 			page 122


 6959 0064 9B5C     		ldrb	r3, [r3, r2]
 6960 0066 DBB2     		uxtb	r3, r3
 6961 0068 292B     		cmp	r3, #41
 6962 006a 2DD1     		bne	.L412
 6963 006c FB68     		ldr	r3, [r7, #12]
 6964 006e 0121     		movs	r1, #1
 6965 0070 1800     		movs	r0, r3
 6966 0072 FFF7FEFF 		bl	I2C_Disable_IRQ
 6967 0076 FB68     		ldr	r3, [r7, #12]
 6968 0078 1B68     		ldr	r3, [r3]
 6969 007a 1A68     		ldr	r2, [r3]
 6970 007c 8023     		movs	r3, #128
 6971 007e DB01     		lsls	r3, r3, #7
 6972 0080 1A40     		ands	r2, r3
 6973 0082 8023     		movs	r3, #128
 6974 0084 DB01     		lsls	r3, r3, #7
 6975 0086 9A42     		cmp	r2, r3
 6976 0088 4CD1     		bne	.L413
 6977 008a FB68     		ldr	r3, [r7, #12]
 6978 008c 9B6B     		ldr	r3, [r3, #56]
 6979 008e 002B     		cmp	r3, #0
 6980 0090 48D0     		beq	.L413
 6981 0092 FB68     		ldr	r3, [r7, #12]
 6982 0094 1B68     		ldr	r3, [r3]
 6983 0096 1A68     		ldr	r2, [r3]
 6984 0098 FB68     		ldr	r3, [r7, #12]
 6985 009a 1B68     		ldr	r3, [r3]
 6986 009c 7F49     		ldr	r1, .L421+4
 6987 009e 0A40     		ands	r2, r1
 6988 00a0 1A60     		str	r2, [r3]
 6989 00a2 FB68     		ldr	r3, [r7, #12]
 6990 00a4 9B6B     		ldr	r3, [r3, #56]
 6991 00a6 7E4A     		ldr	r2, .L421+8
 6992 00a8 5A63     		str	r2, [r3, #52]
 6993 00aa FB68     		ldr	r3, [r7, #12]
 6994 00ac 9B6B     		ldr	r3, [r3, #56]
 6995 00ae 1800     		movs	r0, r3
 6996 00b0 FFF7FEFF 		bl	HAL_DMA_Abort_IT
 6997 00b4 031E     		subs	r3, r0, #0
 6998 00b6 35D0     		beq	.L413
 6999 00b8 FB68     		ldr	r3, [r7, #12]
 7000 00ba 9B6B     		ldr	r3, [r3, #56]
 7001 00bc 5A6B     		ldr	r2, [r3, #52]
 7002 00be FB68     		ldr	r3, [r7, #12]
 7003 00c0 9B6B     		ldr	r3, [r3, #56]
 7004 00c2 1800     		movs	r0, r3
 7005 00c4 9047     		blx	r2
 7006 00c6 2DE0     		b	.L413
 7007              	.L412:
 7008 00c8 FB68     		ldr	r3, [r7, #12]
 7009 00ca 4122     		movs	r2, #65
 7010 00cc 9B5C     		ldrb	r3, [r3, r2]
 7011 00ce DBB2     		uxtb	r3, r3
 7012 00d0 2A2B     		cmp	r3, #42
 7013 00d2 27D1     		bne	.L413
 7014 00d4 FB68     		ldr	r3, [r7, #12]
 7015 00d6 1B68     		ldr	r3, [r3]
ARM GAS  /tmp/ccnCrYSN.s 			page 123


 7016 00d8 1A68     		ldr	r2, [r3]
 7017 00da 8023     		movs	r3, #128
 7018 00dc 1B02     		lsls	r3, r3, #8
 7019 00de 1A40     		ands	r2, r3
 7020 00e0 8023     		movs	r3, #128
 7021 00e2 1B02     		lsls	r3, r3, #8
 7022 00e4 9A42     		cmp	r2, r3
 7023 00e6 1DD1     		bne	.L413
 7024 00e8 FB68     		ldr	r3, [r7, #12]
 7025 00ea 1B68     		ldr	r3, [r3]
 7026 00ec 1A68     		ldr	r2, [r3]
 7027 00ee FB68     		ldr	r3, [r7, #12]
 7028 00f0 1B68     		ldr	r3, [r3]
 7029 00f2 6C49     		ldr	r1, .L421+12
 7030 00f4 0A40     		ands	r2, r1
 7031 00f6 1A60     		str	r2, [r3]
 7032 00f8 FB68     		ldr	r3, [r7, #12]
 7033 00fa DB6B     		ldr	r3, [r3, #60]
 7034 00fc 002B     		cmp	r3, #0
 7035 00fe 11D0     		beq	.L413
 7036 0100 FB68     		ldr	r3, [r7, #12]
 7037 0102 DB6B     		ldr	r3, [r3, #60]
 7038 0104 664A     		ldr	r2, .L421+8
 7039 0106 5A63     		str	r2, [r3, #52]
 7040 0108 FB68     		ldr	r3, [r7, #12]
 7041 010a DB6B     		ldr	r3, [r3, #60]
 7042 010c 1800     		movs	r0, r3
 7043 010e FFF7FEFF 		bl	HAL_DMA_Abort_IT
 7044 0112 031E     		subs	r3, r0, #0
 7045 0114 06D0     		beq	.L413
 7046 0116 FB68     		ldr	r3, [r7, #12]
 7047 0118 DB6B     		ldr	r3, [r3, #60]
 7048 011a 5A6B     		ldr	r2, [r3, #52]
 7049 011c FB68     		ldr	r3, [r7, #12]
 7050 011e DB6B     		ldr	r3, [r3, #60]
 7051 0120 1800     		movs	r0, r3
 7052 0122 9047     		blx	r2
 7053              	.L413:
 7054 0124 FB68     		ldr	r3, [r7, #12]
 7055 0126 4122     		movs	r2, #65
 7056 0128 2A21     		movs	r1, #42
 7057 012a 9954     		strb	r1, [r3, r2]
 7058 012c FB68     		ldr	r3, [r7, #12]
 7059 012e 4222     		movs	r2, #66
 7060 0130 2021     		movs	r1, #32
 7061 0132 9954     		strb	r1, [r3, r2]
 7062 0134 FB68     		ldr	r3, [r7, #12]
 7063 0136 0022     		movs	r2, #0
 7064 0138 5A64     		str	r2, [r3, #68]
 7065 013a FB68     		ldr	r3, [r7, #12]
 7066 013c 1B68     		ldr	r3, [r3]
 7067 013e 5A68     		ldr	r2, [r3, #4]
 7068 0140 FB68     		ldr	r3, [r7, #12]
 7069 0142 1B68     		ldr	r3, [r3]
 7070 0144 5749     		ldr	r1, .L421+12
 7071 0146 0A40     		ands	r2, r1
 7072 0148 5A60     		str	r2, [r3, #4]
ARM GAS  /tmp/ccnCrYSN.s 			page 124


 7073 014a FB68     		ldr	r3, [r7, #12]
 7074 014c BA68     		ldr	r2, [r7, #8]
 7075 014e 5A62     		str	r2, [r3, #36]
 7076 0150 FB68     		ldr	r3, [r7, #12]
 7077 0152 BA1D     		adds	r2, r7, #6
 7078 0154 1288     		ldrh	r2, [r2]
 7079 0156 5A85     		strh	r2, [r3, #42]
 7080 0158 FB68     		ldr	r3, [r7, #12]
 7081 015a 5B8D     		ldrh	r3, [r3, #42]
 7082 015c 9AB2     		uxth	r2, r3
 7083 015e FB68     		ldr	r3, [r7, #12]
 7084 0160 1A85     		strh	r2, [r3, #40]
 7085 0162 FB68     		ldr	r3, [r7, #12]
 7086 0164 3A68     		ldr	r2, [r7]
 7087 0166 DA62     		str	r2, [r3, #44]
 7088 0168 FB68     		ldr	r3, [r7, #12]
 7089 016a 4F4A     		ldr	r2, .L421+16
 7090 016c 5A63     		str	r2, [r3, #52]
 7091 016e FB68     		ldr	r3, [r7, #12]
 7092 0170 DB6B     		ldr	r3, [r3, #60]
 7093 0172 002B     		cmp	r3, #0
 7094 0174 23D0     		beq	.L414
 7095 0176 FB68     		ldr	r3, [r7, #12]
 7096 0178 DB6B     		ldr	r3, [r3, #60]
 7097 017a 4C4A     		ldr	r2, .L421+20
 7098 017c 9A62     		str	r2, [r3, #40]
 7099 017e FB68     		ldr	r3, [r7, #12]
 7100 0180 DB6B     		ldr	r3, [r3, #60]
 7101 0182 4B4A     		ldr	r2, .L421+24
 7102 0184 1A63     		str	r2, [r3, #48]
 7103 0186 FB68     		ldr	r3, [r7, #12]
 7104 0188 DB6B     		ldr	r3, [r3, #60]
 7105 018a 0022     		movs	r2, #0
 7106 018c DA62     		str	r2, [r3, #44]
 7107 018e FB68     		ldr	r3, [r7, #12]
 7108 0190 DB6B     		ldr	r3, [r3, #60]
 7109 0192 0022     		movs	r2, #0
 7110 0194 5A63     		str	r2, [r3, #52]
 7111 0196 FB68     		ldr	r3, [r7, #12]
 7112 0198 D86B     		ldr	r0, [r3, #60]
 7113 019a FB68     		ldr	r3, [r7, #12]
 7114 019c 1B68     		ldr	r3, [r3]
 7115 019e 2433     		adds	r3, r3, #36
 7116 01a0 1900     		movs	r1, r3
 7117 01a2 BA68     		ldr	r2, [r7, #8]
 7118 01a4 FB68     		ldr	r3, [r7, #12]
 7119 01a6 1B8D     		ldrh	r3, [r3, #40]
 7120 01a8 1725     		movs	r5, #23
 7121 01aa 7C19     		adds	r4, r7, r5
 7122 01ac FFF7FEFF 		bl	HAL_DMA_Start_IT
 7123 01b0 0300     		movs	r3, r0
 7124 01b2 2370     		strb	r3, [r4]
 7125 01b4 7B19     		adds	r3, r7, r5
 7126 01b6 1B78     		ldrb	r3, [r3]
 7127 01b8 002B     		cmp	r3, #0
 7128 01ba 36D1     		bne	.L416
 7129 01bc 13E0     		b	.L419
ARM GAS  /tmp/ccnCrYSN.s 			page 125


 7130              	.L414:
 7131 01be FB68     		ldr	r3, [r7, #12]
 7132 01c0 4122     		movs	r2, #65
 7133 01c2 2821     		movs	r1, #40
 7134 01c4 9954     		strb	r1, [r3, r2]
 7135 01c6 FB68     		ldr	r3, [r7, #12]
 7136 01c8 4222     		movs	r2, #66
 7137 01ca 0021     		movs	r1, #0
 7138 01cc 9954     		strb	r1, [r3, r2]
 7139 01ce FB68     		ldr	r3, [r7, #12]
 7140 01d0 5B6C     		ldr	r3, [r3, #68]
 7141 01d2 8022     		movs	r2, #128
 7142 01d4 1A43     		orrs	r2, r3
 7143 01d6 FB68     		ldr	r3, [r7, #12]
 7144 01d8 5A64     		str	r2, [r3, #68]
 7145 01da FB68     		ldr	r3, [r7, #12]
 7146 01dc 4022     		movs	r2, #64
 7147 01de 0021     		movs	r1, #0
 7148 01e0 9954     		strb	r1, [r3, r2]
 7149 01e2 0123     		movs	r3, #1
 7150 01e4 54E0     		b	.L410
 7151              	.L419:
 7152 01e6 FB68     		ldr	r3, [r7, #12]
 7153 01e8 5B8D     		ldrh	r3, [r3, #42]
 7154 01ea 9AB2     		uxth	r2, r3
 7155 01ec FB68     		ldr	r3, [r7, #12]
 7156 01ee 1B8D     		ldrh	r3, [r3, #40]
 7157 01f0 D31A     		subs	r3, r2, r3
 7158 01f2 9AB2     		uxth	r2, r3
 7159 01f4 FB68     		ldr	r3, [r7, #12]
 7160 01f6 5A85     		strh	r2, [r3, #42]
 7161 01f8 FB68     		ldr	r3, [r7, #12]
 7162 01fa 0022     		movs	r2, #0
 7163 01fc 1A85     		strh	r2, [r3, #40]
 7164 01fe FB68     		ldr	r3, [r7, #12]
 7165 0200 1B68     		ldr	r3, [r3]
 7166 0202 9B69     		ldr	r3, [r3, #24]
 7167 0204 0822     		movs	r2, #8
 7168 0206 1340     		ands	r3, r2
 7169 0208 1B07     		lsls	r3, r3, #28
 7170 020a DB0F     		lsrs	r3, r3, #31
 7171 020c DAB2     		uxtb	r2, r3
 7172 020e 1623     		movs	r3, #22
 7173 0210 FB18     		adds	r3, r7, r3
 7174 0212 1A70     		strb	r2, [r3]
 7175 0214 FB68     		ldr	r3, [r7, #12]
 7176 0216 1B68     		ldr	r3, [r3]
 7177 0218 9B69     		ldr	r3, [r3, #24]
 7178 021a 1B0C     		lsrs	r3, r3, #16
 7179 021c DBB2     		uxtb	r3, r3
 7180 021e 0122     		movs	r2, #1
 7181 0220 1340     		ands	r3, r2
 7182 0222 DBB2     		uxtb	r3, r3
 7183 0224 002B     		cmp	r3, #0
 7184 0226 1DD1     		bne	.L418
 7185 0228 13E0     		b	.L420
 7186              	.L416:
ARM GAS  /tmp/ccnCrYSN.s 			page 126


 7187 022a FB68     		ldr	r3, [r7, #12]
 7188 022c 4122     		movs	r2, #65
 7189 022e 2821     		movs	r1, #40
 7190 0230 9954     		strb	r1, [r3, r2]
 7191 0232 FB68     		ldr	r3, [r7, #12]
 7192 0234 4222     		movs	r2, #66
 7193 0236 0021     		movs	r1, #0
 7194 0238 9954     		strb	r1, [r3, r2]
 7195 023a FB68     		ldr	r3, [r7, #12]
 7196 023c 5B6C     		ldr	r3, [r3, #68]
 7197 023e 1022     		movs	r2, #16
 7198 0240 1A43     		orrs	r2, r3
 7199 0242 FB68     		ldr	r3, [r7, #12]
 7200 0244 5A64     		str	r2, [r3, #68]
 7201 0246 FB68     		ldr	r3, [r7, #12]
 7202 0248 4022     		movs	r2, #64
 7203 024a 0021     		movs	r1, #0
 7204 024c 9954     		strb	r1, [r3, r2]
 7205 024e 0123     		movs	r3, #1
 7206 0250 1EE0     		b	.L410
 7207              	.L420:
 7208 0252 1623     		movs	r3, #22
 7209 0254 FB18     		adds	r3, r7, r3
 7210 0256 1B78     		ldrb	r3, [r3]
 7211 0258 002B     		cmp	r3, #0
 7212 025a 03D0     		beq	.L418
 7213 025c FB68     		ldr	r3, [r7, #12]
 7214 025e 1B68     		ldr	r3, [r3]
 7215 0260 0822     		movs	r2, #8
 7216 0262 DA61     		str	r2, [r3, #28]
 7217              	.L418:
 7218 0264 FB68     		ldr	r3, [r7, #12]
 7219 0266 4022     		movs	r2, #64
 7220 0268 0021     		movs	r1, #0
 7221 026a 9954     		strb	r1, [r3, r2]
 7222 026c FB68     		ldr	r3, [r7, #12]
 7223 026e 1B68     		ldr	r3, [r3]
 7224 0270 1A68     		ldr	r2, [r3]
 7225 0272 FB68     		ldr	r3, [r7, #12]
 7226 0274 1B68     		ldr	r3, [r3]
 7227 0276 8021     		movs	r1, #128
 7228 0278 0902     		lsls	r1, r1, #8
 7229 027a 0A43     		orrs	r2, r1
 7230 027c 1A60     		str	r2, [r3]
 7231 027e 064A     		ldr	r2, .L421
 7232 0280 FB68     		ldr	r3, [r7, #12]
 7233 0282 1100     		movs	r1, r2
 7234 0284 1800     		movs	r0, r3
 7235 0286 FFF7FEFF 		bl	I2C_Enable_IRQ
 7236 028a 0023     		movs	r3, #0
 7237 028c 00E0     		b	.L410
 7238              	.L407:
 7239 028e 0123     		movs	r3, #1
 7240              	.L410:
 7241 0290 1800     		movs	r0, r3
 7242 0292 BD46     		mov	sp, r7
 7243 0294 06B0     		add	sp, sp, #24
ARM GAS  /tmp/ccnCrYSN.s 			page 127


 7244              		@ sp needed
 7245 0296 B0BD     		pop	{r4, r5, r7, pc}
 7246              	.L422:
 7247              		.align	2
 7248              	.L421:
 7249 0298 02800000 		.word	32770
 7250 029c FFBFFFFF 		.word	-16385
 7251 02a0 00000000 		.word	I2C_DMAAbort
 7252 02a4 FF7FFFFF 		.word	-32769
 7253 02a8 00000000 		.word	I2C_Slave_ISR_DMA
 7254 02ac 00000000 		.word	I2C_DMASlaveReceiveCplt
 7255 02b0 00000000 		.word	I2C_DMAError
 7257              		.section	.text.HAL_I2C_EnableListen_IT,"ax",%progbits
 7258              		.align	1
 7259              		.global	HAL_I2C_EnableListen_IT
 7260              		.syntax unified
 7261              		.code	16
 7262              		.thumb_func
 7264              	HAL_I2C_EnableListen_IT:
 7265              		@ args = 0, pretend = 0, frame = 8
 7266              		@ frame_needed = 1, uses_anonymous_args = 0
 7267 0000 80B5     		push	{r7, lr}
 7268 0002 82B0     		sub	sp, sp, #8
 7269 0004 00AF     		add	r7, sp, #0
 7270 0006 7860     		str	r0, [r7, #4]
 7271 0008 7B68     		ldr	r3, [r7, #4]
 7272 000a 4122     		movs	r2, #65
 7273 000c 9B5C     		ldrb	r3, [r3, r2]
 7274 000e DBB2     		uxtb	r3, r3
 7275 0010 202B     		cmp	r3, #32
 7276 0012 0FD1     		bne	.L424
 7277 0014 7B68     		ldr	r3, [r7, #4]
 7278 0016 4122     		movs	r2, #65
 7279 0018 2821     		movs	r1, #40
 7280 001a 9954     		strb	r1, [r3, r2]
 7281 001c 7B68     		ldr	r3, [r7, #4]
 7282 001e 084A     		ldr	r2, .L426
 7283 0020 5A63     		str	r2, [r3, #52]
 7284 0022 8023     		movs	r3, #128
 7285 0024 1A02     		lsls	r2, r3, #8
 7286 0026 7B68     		ldr	r3, [r7, #4]
 7287 0028 1100     		movs	r1, r2
 7288 002a 1800     		movs	r0, r3
 7289 002c FFF7FEFF 		bl	I2C_Enable_IRQ
 7290 0030 0023     		movs	r3, #0
 7291 0032 00E0     		b	.L425
 7292              	.L424:
 7293 0034 0223     		movs	r3, #2
 7294              	.L425:
 7295 0036 1800     		movs	r0, r3
 7296 0038 BD46     		mov	sp, r7
 7297 003a 02B0     		add	sp, sp, #8
 7298              		@ sp needed
 7299 003c 80BD     		pop	{r7, pc}
 7300              	.L427:
 7301 003e C046     		.align	2
 7302              	.L426:
ARM GAS  /tmp/ccnCrYSN.s 			page 128


 7303 0040 00000000 		.word	I2C_Slave_ISR_IT
 7305              		.section	.text.HAL_I2C_DisableListen_IT,"ax",%progbits
 7306              		.align	1
 7307              		.global	HAL_I2C_DisableListen_IT
 7308              		.syntax unified
 7309              		.code	16
 7310              		.thumb_func
 7312              	HAL_I2C_DisableListen_IT:
 7313              		@ args = 0, pretend = 0, frame = 16
 7314              		@ frame_needed = 1, uses_anonymous_args = 0
 7315 0000 80B5     		push	{r7, lr}
 7316 0002 84B0     		sub	sp, sp, #16
 7317 0004 00AF     		add	r7, sp, #0
 7318 0006 7860     		str	r0, [r7, #4]
 7319 0008 7B68     		ldr	r3, [r7, #4]
 7320 000a 4122     		movs	r2, #65
 7321 000c 9B5C     		ldrb	r3, [r3, r2]
 7322 000e DBB2     		uxtb	r3, r3
 7323 0010 282B     		cmp	r3, #40
 7324 0012 24D1     		bne	.L429
 7325 0014 7B68     		ldr	r3, [r7, #4]
 7326 0016 4122     		movs	r2, #65
 7327 0018 9B5C     		ldrb	r3, [r3, r2]
 7328 001a DBB2     		uxtb	r3, r3
 7329 001c 1A00     		movs	r2, r3
 7330 001e 0323     		movs	r3, #3
 7331 0020 1340     		ands	r3, r2
 7332 0022 FB60     		str	r3, [r7, #12]
 7333 0024 7B68     		ldr	r3, [r7, #4]
 7334 0026 4222     		movs	r2, #66
 7335 0028 9B5C     		ldrb	r3, [r3, r2]
 7336 002a DBB2     		uxtb	r3, r3
 7337 002c 1A00     		movs	r2, r3
 7338 002e FB68     		ldr	r3, [r7, #12]
 7339 0030 1A43     		orrs	r2, r3
 7340 0032 7B68     		ldr	r3, [r7, #4]
 7341 0034 1A63     		str	r2, [r3, #48]
 7342 0036 7B68     		ldr	r3, [r7, #4]
 7343 0038 4122     		movs	r2, #65
 7344 003a 2021     		movs	r1, #32
 7345 003c 9954     		strb	r1, [r3, r2]
 7346 003e 7B68     		ldr	r3, [r7, #4]
 7347 0040 4222     		movs	r2, #66
 7348 0042 0021     		movs	r1, #0
 7349 0044 9954     		strb	r1, [r3, r2]
 7350 0046 7B68     		ldr	r3, [r7, #4]
 7351 0048 0022     		movs	r2, #0
 7352 004a 5A63     		str	r2, [r3, #52]
 7353 004c 8023     		movs	r3, #128
 7354 004e 1A02     		lsls	r2, r3, #8
 7355 0050 7B68     		ldr	r3, [r7, #4]
 7356 0052 1100     		movs	r1, r2
 7357 0054 1800     		movs	r0, r3
 7358 0056 FFF7FEFF 		bl	I2C_Disable_IRQ
 7359 005a 0023     		movs	r3, #0
 7360 005c 00E0     		b	.L430
 7361              	.L429:
ARM GAS  /tmp/ccnCrYSN.s 			page 129


 7362 005e 0223     		movs	r3, #2
 7363              	.L430:
 7364 0060 1800     		movs	r0, r3
 7365 0062 BD46     		mov	sp, r7
 7366 0064 04B0     		add	sp, sp, #16
 7367              		@ sp needed
 7368 0066 80BD     		pop	{r7, pc}
 7370              		.section	.text.HAL_I2C_Master_Abort_IT,"ax",%progbits
 7371              		.align	1
 7372              		.global	HAL_I2C_Master_Abort_IT
 7373              		.syntax unified
 7374              		.code	16
 7375              		.thumb_func
 7377              	HAL_I2C_Master_Abort_IT:
 7378              		@ args = 0, pretend = 0, frame = 16
 7379              		@ frame_needed = 1, uses_anonymous_args = 0
 7380 0000 80B5     		push	{r7, lr}
 7381 0002 86B0     		sub	sp, sp, #24
 7382 0004 02AF     		add	r7, sp, #8
 7383 0006 7860     		str	r0, [r7, #4]
 7384 0008 0A00     		movs	r2, r1
 7385 000a BB1C     		adds	r3, r7, #2
 7386 000c 1A80     		strh	r2, [r3]
 7387 000e 0F20     		movs	r0, #15
 7388 0010 3B18     		adds	r3, r7, r0
 7389 0012 7A68     		ldr	r2, [r7, #4]
 7390 0014 4221     		movs	r1, #66
 7391 0016 525C     		ldrb	r2, [r2, r1]
 7392 0018 1A70     		strb	r2, [r3]
 7393 001a 0200     		movs	r2, r0
 7394 001c BB18     		adds	r3, r7, r2
 7395 001e 1B78     		ldrb	r3, [r3]
 7396 0020 102B     		cmp	r3, #16
 7397 0022 03D0     		beq	.L432
 7398 0024 BB18     		adds	r3, r7, r2
 7399 0026 1B78     		ldrb	r3, [r3]
 7400 0028 402B     		cmp	r3, #64
 7401 002a 41D1     		bne	.L433
 7402              	.L432:
 7403 002c 7B68     		ldr	r3, [r7, #4]
 7404 002e 4022     		movs	r2, #64
 7405 0030 9B5C     		ldrb	r3, [r3, r2]
 7406 0032 012B     		cmp	r3, #1
 7407 0034 01D1     		bne	.L434
 7408 0036 0223     		movs	r3, #2
 7409 0038 3BE0     		b	.L435
 7410              	.L434:
 7411 003a 7B68     		ldr	r3, [r7, #4]
 7412 003c 4022     		movs	r2, #64
 7413 003e 0121     		movs	r1, #1
 7414 0040 9954     		strb	r1, [r3, r2]
 7415 0042 7B68     		ldr	r3, [r7, #4]
 7416 0044 4122     		movs	r2, #65
 7417 0046 9B5C     		ldrb	r3, [r3, r2]
 7418 0048 DBB2     		uxtb	r3, r3
 7419 004a 212B     		cmp	r3, #33
 7420 004c 08D1     		bne	.L436
ARM GAS  /tmp/ccnCrYSN.s 			page 130


 7421 004e 7B68     		ldr	r3, [r7, #4]
 7422 0050 0121     		movs	r1, #1
 7423 0052 1800     		movs	r0, r3
 7424 0054 FFF7FEFF 		bl	I2C_Disable_IRQ
 7425 0058 7B68     		ldr	r3, [r7, #4]
 7426 005a 1122     		movs	r2, #17
 7427 005c 1A63     		str	r2, [r3, #48]
 7428 005e 0DE0     		b	.L437
 7429              	.L436:
 7430 0060 7B68     		ldr	r3, [r7, #4]
 7431 0062 4122     		movs	r2, #65
 7432 0064 9B5C     		ldrb	r3, [r3, r2]
 7433 0066 DBB2     		uxtb	r3, r3
 7434 0068 222B     		cmp	r3, #34
 7435 006a 07D1     		bne	.L437
 7436 006c 7B68     		ldr	r3, [r7, #4]
 7437 006e 0221     		movs	r1, #2
 7438 0070 1800     		movs	r0, r3
 7439 0072 FFF7FEFF 		bl	I2C_Disable_IRQ
 7440 0076 7B68     		ldr	r3, [r7, #4]
 7441 0078 1222     		movs	r2, #18
 7442 007a 1A63     		str	r2, [r3, #48]
 7443              	.L437:
 7444 007c 7B68     		ldr	r3, [r7, #4]
 7445 007e 4122     		movs	r2, #65
 7446 0080 6021     		movs	r1, #96
 7447 0082 9954     		strb	r1, [r3, r2]
 7448 0084 8023     		movs	r3, #128
 7449 0086 9A04     		lsls	r2, r3, #18
 7450 0088 BB1C     		adds	r3, r7, #2
 7451 008a 1988     		ldrh	r1, [r3]
 7452 008c 7868     		ldr	r0, [r7, #4]
 7453 008e 0B4B     		ldr	r3, .L438
 7454 0090 0093     		str	r3, [sp]
 7455 0092 1300     		movs	r3, r2
 7456 0094 0122     		movs	r2, #1
 7457 0096 FFF7FEFF 		bl	I2C_TransferConfig
 7458 009a 7B68     		ldr	r3, [r7, #4]
 7459 009c 4022     		movs	r2, #64
 7460 009e 0021     		movs	r1, #0
 7461 00a0 9954     		strb	r1, [r3, r2]
 7462 00a2 7B68     		ldr	r3, [r7, #4]
 7463 00a4 2021     		movs	r1, #32
 7464 00a6 1800     		movs	r0, r3
 7465 00a8 FFF7FEFF 		bl	I2C_Enable_IRQ
 7466 00ac 0023     		movs	r3, #0
 7467 00ae 00E0     		b	.L435
 7468              	.L433:
 7469 00b0 0123     		movs	r3, #1
 7470              	.L435:
 7471 00b2 1800     		movs	r0, r3
 7472 00b4 BD46     		mov	sp, r7
 7473 00b6 04B0     		add	sp, sp, #16
 7474              		@ sp needed
 7475 00b8 80BD     		pop	{r7, pc}
 7476              	.L439:
 7477 00ba C046     		.align	2
ARM GAS  /tmp/ccnCrYSN.s 			page 131


 7478              	.L438:
 7479 00bc 00400080 		.word	-2147467264
 7481              		.section	.text.HAL_I2C_EV_IRQHandler,"ax",%progbits
 7482              		.align	1
 7483              		.global	HAL_I2C_EV_IRQHandler
 7484              		.syntax unified
 7485              		.code	16
 7486              		.thumb_func
 7488              	HAL_I2C_EV_IRQHandler:
 7489              		@ args = 0, pretend = 0, frame = 16
 7490              		@ frame_needed = 1, uses_anonymous_args = 0
 7491 0000 80B5     		push	{r7, lr}
 7492 0002 84B0     		sub	sp, sp, #16
 7493 0004 00AF     		add	r7, sp, #0
 7494 0006 7860     		str	r0, [r7, #4]
 7495 0008 7B68     		ldr	r3, [r7, #4]
 7496 000a 1B68     		ldr	r3, [r3]
 7497 000c 9B69     		ldr	r3, [r3, #24]
 7498 000e FB60     		str	r3, [r7, #12]
 7499 0010 7B68     		ldr	r3, [r7, #4]
 7500 0012 1B68     		ldr	r3, [r3]
 7501 0014 1B68     		ldr	r3, [r3]
 7502 0016 BB60     		str	r3, [r7, #8]
 7503 0018 7B68     		ldr	r3, [r7, #4]
 7504 001a 5B6B     		ldr	r3, [r3, #52]
 7505 001c 002B     		cmp	r3, #0
 7506 001e 05D0     		beq	.L442
 7507 0020 7B68     		ldr	r3, [r7, #4]
 7508 0022 5B6B     		ldr	r3, [r3, #52]
 7509 0024 BA68     		ldr	r2, [r7, #8]
 7510 0026 F968     		ldr	r1, [r7, #12]
 7511 0028 7868     		ldr	r0, [r7, #4]
 7512 002a 9847     		blx	r3
 7513              	.L442:
 7514 002c C046     		nop
 7515 002e BD46     		mov	sp, r7
 7516 0030 04B0     		add	sp, sp, #16
 7517              		@ sp needed
 7518 0032 80BD     		pop	{r7, pc}
 7520              		.section	.text.HAL_I2C_ER_IRQHandler,"ax",%progbits
 7521              		.align	1
 7522              		.global	HAL_I2C_ER_IRQHandler
 7523              		.syntax unified
 7524              		.code	16
 7525              		.thumb_func
 7527              	HAL_I2C_ER_IRQHandler:
 7528              		@ args = 0, pretend = 0, frame = 24
 7529              		@ frame_needed = 1, uses_anonymous_args = 0
 7530 0000 80B5     		push	{r7, lr}
 7531 0002 86B0     		sub	sp, sp, #24
 7532 0004 00AF     		add	r7, sp, #0
 7533 0006 7860     		str	r0, [r7, #4]
 7534 0008 7B68     		ldr	r3, [r7, #4]
 7535 000a 1B68     		ldr	r3, [r3]
 7536 000c 9B69     		ldr	r3, [r3, #24]
 7537 000e 7B61     		str	r3, [r7, #20]
 7538 0010 7B68     		ldr	r3, [r7, #4]
ARM GAS  /tmp/ccnCrYSN.s 			page 132


 7539 0012 1B68     		ldr	r3, [r3]
 7540 0014 1B68     		ldr	r3, [r3]
 7541 0016 3B61     		str	r3, [r7, #16]
 7542 0018 7B69     		ldr	r3, [r7, #20]
 7543 001a 1B0A     		lsrs	r3, r3, #8
 7544 001c 1A00     		movs	r2, r3
 7545 001e 0123     		movs	r3, #1
 7546 0020 1340     		ands	r3, r2
 7547 0022 10D0     		beq	.L444
 7548 0024 3B69     		ldr	r3, [r7, #16]
 7549 0026 DB09     		lsrs	r3, r3, #7
 7550 0028 1A00     		movs	r2, r3
 7551 002a 0123     		movs	r3, #1
 7552 002c 1340     		ands	r3, r2
 7553 002e 0AD0     		beq	.L444
 7554 0030 7B68     		ldr	r3, [r7, #4]
 7555 0032 5B6C     		ldr	r3, [r3, #68]
 7556 0034 0122     		movs	r2, #1
 7557 0036 1A43     		orrs	r2, r3
 7558 0038 7B68     		ldr	r3, [r7, #4]
 7559 003a 5A64     		str	r2, [r3, #68]
 7560 003c 7B68     		ldr	r3, [r7, #4]
 7561 003e 1B68     		ldr	r3, [r3]
 7562 0040 8022     		movs	r2, #128
 7563 0042 5200     		lsls	r2, r2, #1
 7564 0044 DA61     		str	r2, [r3, #28]
 7565              	.L444:
 7566 0046 7B69     		ldr	r3, [r7, #20]
 7567 0048 9B0A     		lsrs	r3, r3, #10
 7568 004a 1A00     		movs	r2, r3
 7569 004c 0123     		movs	r3, #1
 7570 004e 1340     		ands	r3, r2
 7571 0050 10D0     		beq	.L445
 7572 0052 3B69     		ldr	r3, [r7, #16]
 7573 0054 DB09     		lsrs	r3, r3, #7
 7574 0056 1A00     		movs	r2, r3
 7575 0058 0123     		movs	r3, #1
 7576 005a 1340     		ands	r3, r2
 7577 005c 0AD0     		beq	.L445
 7578 005e 7B68     		ldr	r3, [r7, #4]
 7579 0060 5B6C     		ldr	r3, [r3, #68]
 7580 0062 0822     		movs	r2, #8
 7581 0064 1A43     		orrs	r2, r3
 7582 0066 7B68     		ldr	r3, [r7, #4]
 7583 0068 5A64     		str	r2, [r3, #68]
 7584 006a 7B68     		ldr	r3, [r7, #4]
 7585 006c 1B68     		ldr	r3, [r3]
 7586 006e 8022     		movs	r2, #128
 7587 0070 D200     		lsls	r2, r2, #3
 7588 0072 DA61     		str	r2, [r3, #28]
 7589              	.L445:
 7590 0074 7B69     		ldr	r3, [r7, #20]
 7591 0076 5B0A     		lsrs	r3, r3, #9
 7592 0078 1A00     		movs	r2, r3
 7593 007a 0123     		movs	r3, #1
 7594 007c 1340     		ands	r3, r2
 7595 007e 10D0     		beq	.L446
ARM GAS  /tmp/ccnCrYSN.s 			page 133


 7596 0080 3B69     		ldr	r3, [r7, #16]
 7597 0082 DB09     		lsrs	r3, r3, #7
 7598 0084 1A00     		movs	r2, r3
 7599 0086 0123     		movs	r3, #1
 7600 0088 1340     		ands	r3, r2
 7601 008a 0AD0     		beq	.L446
 7602 008c 7B68     		ldr	r3, [r7, #4]
 7603 008e 5B6C     		ldr	r3, [r3, #68]
 7604 0090 0222     		movs	r2, #2
 7605 0092 1A43     		orrs	r2, r3
 7606 0094 7B68     		ldr	r3, [r7, #4]
 7607 0096 5A64     		str	r2, [r3, #68]
 7608 0098 7B68     		ldr	r3, [r7, #4]
 7609 009a 1B68     		ldr	r3, [r3]
 7610 009c 8022     		movs	r2, #128
 7611 009e 9200     		lsls	r2, r2, #2
 7612 00a0 DA61     		str	r2, [r3, #28]
 7613              	.L446:
 7614 00a2 7B68     		ldr	r3, [r7, #4]
 7615 00a4 5B6C     		ldr	r3, [r3, #68]
 7616 00a6 FB60     		str	r3, [r7, #12]
 7617 00a8 FB68     		ldr	r3, [r7, #12]
 7618 00aa 0B22     		movs	r2, #11
 7619 00ac 1340     		ands	r3, r2
 7620 00ae 05D0     		beq	.L448
 7621 00b0 FA68     		ldr	r2, [r7, #12]
 7622 00b2 7B68     		ldr	r3, [r7, #4]
 7623 00b4 1100     		movs	r1, r2
 7624 00b6 1800     		movs	r0, r3
 7625 00b8 FFF7FEFF 		bl	I2C_ITError
 7626              	.L448:
 7627 00bc C046     		nop
 7628 00be BD46     		mov	sp, r7
 7629 00c0 06B0     		add	sp, sp, #24
 7630              		@ sp needed
 7631 00c2 80BD     		pop	{r7, pc}
 7633              		.section	.text.HAL_I2C_MasterTxCpltCallback,"ax",%progbits
 7634              		.align	1
 7635              		.weak	HAL_I2C_MasterTxCpltCallback
 7636              		.syntax unified
 7637              		.code	16
 7638              		.thumb_func
 7640              	HAL_I2C_MasterTxCpltCallback:
 7641              		@ args = 0, pretend = 0, frame = 8
 7642              		@ frame_needed = 1, uses_anonymous_args = 0
 7643 0000 80B5     		push	{r7, lr}
 7644 0002 82B0     		sub	sp, sp, #8
 7645 0004 00AF     		add	r7, sp, #0
 7646 0006 7860     		str	r0, [r7, #4]
 7647 0008 C046     		nop
 7648 000a BD46     		mov	sp, r7
 7649 000c 02B0     		add	sp, sp, #8
 7650              		@ sp needed
 7651 000e 80BD     		pop	{r7, pc}
 7653              		.section	.text.HAL_I2C_MasterRxCpltCallback,"ax",%progbits
 7654              		.align	1
 7655              		.weak	HAL_I2C_MasterRxCpltCallback
ARM GAS  /tmp/ccnCrYSN.s 			page 134


 7656              		.syntax unified
 7657              		.code	16
 7658              		.thumb_func
 7660              	HAL_I2C_MasterRxCpltCallback:
 7661              		@ args = 0, pretend = 0, frame = 8
 7662              		@ frame_needed = 1, uses_anonymous_args = 0
 7663 0000 80B5     		push	{r7, lr}
 7664 0002 82B0     		sub	sp, sp, #8
 7665 0004 00AF     		add	r7, sp, #0
 7666 0006 7860     		str	r0, [r7, #4]
 7667 0008 C046     		nop
 7668 000a BD46     		mov	sp, r7
 7669 000c 02B0     		add	sp, sp, #8
 7670              		@ sp needed
 7671 000e 80BD     		pop	{r7, pc}
 7673              		.section	.text.HAL_I2C_SlaveTxCpltCallback,"ax",%progbits
 7674              		.align	1
 7675              		.weak	HAL_I2C_SlaveTxCpltCallback
 7676              		.syntax unified
 7677              		.code	16
 7678              		.thumb_func
 7680              	HAL_I2C_SlaveTxCpltCallback:
 7681              		@ args = 0, pretend = 0, frame = 8
 7682              		@ frame_needed = 1, uses_anonymous_args = 0
 7683 0000 80B5     		push	{r7, lr}
 7684 0002 82B0     		sub	sp, sp, #8
 7685 0004 00AF     		add	r7, sp, #0
 7686 0006 7860     		str	r0, [r7, #4]
 7687 0008 C046     		nop
 7688 000a BD46     		mov	sp, r7
 7689 000c 02B0     		add	sp, sp, #8
 7690              		@ sp needed
 7691 000e 80BD     		pop	{r7, pc}
 7693              		.section	.text.HAL_I2C_SlaveRxCpltCallback,"ax",%progbits
 7694              		.align	1
 7695              		.weak	HAL_I2C_SlaveRxCpltCallback
 7696              		.syntax unified
 7697              		.code	16
 7698              		.thumb_func
 7700              	HAL_I2C_SlaveRxCpltCallback:
 7701              		@ args = 0, pretend = 0, frame = 8
 7702              		@ frame_needed = 1, uses_anonymous_args = 0
 7703 0000 80B5     		push	{r7, lr}
 7704 0002 82B0     		sub	sp, sp, #8
 7705 0004 00AF     		add	r7, sp, #0
 7706 0006 7860     		str	r0, [r7, #4]
 7707 0008 C046     		nop
 7708 000a BD46     		mov	sp, r7
 7709 000c 02B0     		add	sp, sp, #8
 7710              		@ sp needed
 7711 000e 80BD     		pop	{r7, pc}
 7713              		.section	.text.HAL_I2C_AddrCallback,"ax",%progbits
 7714              		.align	1
 7715              		.weak	HAL_I2C_AddrCallback
 7716              		.syntax unified
 7717              		.code	16
 7718              		.thumb_func
ARM GAS  /tmp/ccnCrYSN.s 			page 135


 7720              	HAL_I2C_AddrCallback:
 7721              		@ args = 0, pretend = 0, frame = 8
 7722              		@ frame_needed = 1, uses_anonymous_args = 0
 7723 0000 80B5     		push	{r7, lr}
 7724 0002 82B0     		sub	sp, sp, #8
 7725 0004 00AF     		add	r7, sp, #0
 7726 0006 7860     		str	r0, [r7, #4]
 7727 0008 0800     		movs	r0, r1
 7728 000a 1100     		movs	r1, r2
 7729 000c FB1C     		adds	r3, r7, #3
 7730 000e 021C     		adds	r2, r0, #0
 7731 0010 1A70     		strb	r2, [r3]
 7732 0012 3B00     		movs	r3, r7
 7733 0014 0A1C     		adds	r2, r1, #0
 7734 0016 1A80     		strh	r2, [r3]
 7735 0018 C046     		nop
 7736 001a BD46     		mov	sp, r7
 7737 001c 02B0     		add	sp, sp, #8
 7738              		@ sp needed
 7739 001e 80BD     		pop	{r7, pc}
 7741              		.section	.text.HAL_I2C_ListenCpltCallback,"ax",%progbits
 7742              		.align	1
 7743              		.weak	HAL_I2C_ListenCpltCallback
 7744              		.syntax unified
 7745              		.code	16
 7746              		.thumb_func
 7748              	HAL_I2C_ListenCpltCallback:
 7749              		@ args = 0, pretend = 0, frame = 8
 7750              		@ frame_needed = 1, uses_anonymous_args = 0
 7751 0000 80B5     		push	{r7, lr}
 7752 0002 82B0     		sub	sp, sp, #8
 7753 0004 00AF     		add	r7, sp, #0
 7754 0006 7860     		str	r0, [r7, #4]
 7755 0008 C046     		nop
 7756 000a BD46     		mov	sp, r7
 7757 000c 02B0     		add	sp, sp, #8
 7758              		@ sp needed
 7759 000e 80BD     		pop	{r7, pc}
 7761              		.section	.text.HAL_I2C_MemTxCpltCallback,"ax",%progbits
 7762              		.align	1
 7763              		.weak	HAL_I2C_MemTxCpltCallback
 7764              		.syntax unified
 7765              		.code	16
 7766              		.thumb_func
 7768              	HAL_I2C_MemTxCpltCallback:
 7769              		@ args = 0, pretend = 0, frame = 8
 7770              		@ frame_needed = 1, uses_anonymous_args = 0
 7771 0000 80B5     		push	{r7, lr}
 7772 0002 82B0     		sub	sp, sp, #8
 7773 0004 00AF     		add	r7, sp, #0
 7774 0006 7860     		str	r0, [r7, #4]
 7775 0008 C046     		nop
 7776 000a BD46     		mov	sp, r7
 7777 000c 02B0     		add	sp, sp, #8
 7778              		@ sp needed
 7779 000e 80BD     		pop	{r7, pc}
 7781              		.section	.text.HAL_I2C_MemRxCpltCallback,"ax",%progbits
ARM GAS  /tmp/ccnCrYSN.s 			page 136


 7782              		.align	1
 7783              		.weak	HAL_I2C_MemRxCpltCallback
 7784              		.syntax unified
 7785              		.code	16
 7786              		.thumb_func
 7788              	HAL_I2C_MemRxCpltCallback:
 7789              		@ args = 0, pretend = 0, frame = 8
 7790              		@ frame_needed = 1, uses_anonymous_args = 0
 7791 0000 80B5     		push	{r7, lr}
 7792 0002 82B0     		sub	sp, sp, #8
 7793 0004 00AF     		add	r7, sp, #0
 7794 0006 7860     		str	r0, [r7, #4]
 7795 0008 C046     		nop
 7796 000a BD46     		mov	sp, r7
 7797 000c 02B0     		add	sp, sp, #8
 7798              		@ sp needed
 7799 000e 80BD     		pop	{r7, pc}
 7801              		.section	.text.HAL_I2C_ErrorCallback,"ax",%progbits
 7802              		.align	1
 7803              		.weak	HAL_I2C_ErrorCallback
 7804              		.syntax unified
 7805              		.code	16
 7806              		.thumb_func
 7808              	HAL_I2C_ErrorCallback:
 7809              		@ args = 0, pretend = 0, frame = 8
 7810              		@ frame_needed = 1, uses_anonymous_args = 0
 7811 0000 80B5     		push	{r7, lr}
 7812 0002 82B0     		sub	sp, sp, #8
 7813 0004 00AF     		add	r7, sp, #0
 7814 0006 7860     		str	r0, [r7, #4]
 7815 0008 C046     		nop
 7816 000a BD46     		mov	sp, r7
 7817 000c 02B0     		add	sp, sp, #8
 7818              		@ sp needed
 7819 000e 80BD     		pop	{r7, pc}
 7821              		.section	.text.HAL_I2C_AbortCpltCallback,"ax",%progbits
 7822              		.align	1
 7823              		.weak	HAL_I2C_AbortCpltCallback
 7824              		.syntax unified
 7825              		.code	16
 7826              		.thumb_func
 7828              	HAL_I2C_AbortCpltCallback:
 7829              		@ args = 0, pretend = 0, frame = 8
 7830              		@ frame_needed = 1, uses_anonymous_args = 0
 7831 0000 80B5     		push	{r7, lr}
 7832 0002 82B0     		sub	sp, sp, #8
 7833 0004 00AF     		add	r7, sp, #0
 7834 0006 7860     		str	r0, [r7, #4]
 7835 0008 C046     		nop
 7836 000a BD46     		mov	sp, r7
 7837 000c 02B0     		add	sp, sp, #8
 7838              		@ sp needed
 7839 000e 80BD     		pop	{r7, pc}
 7841              		.section	.text.HAL_I2C_GetState,"ax",%progbits
 7842              		.align	1
 7843              		.global	HAL_I2C_GetState
 7844              		.syntax unified
ARM GAS  /tmp/ccnCrYSN.s 			page 137


 7845              		.code	16
 7846              		.thumb_func
 7848              	HAL_I2C_GetState:
 7849              		@ args = 0, pretend = 0, frame = 8
 7850              		@ frame_needed = 1, uses_anonymous_args = 0
 7851 0000 80B5     		push	{r7, lr}
 7852 0002 82B0     		sub	sp, sp, #8
 7853 0004 00AF     		add	r7, sp, #0
 7854 0006 7860     		str	r0, [r7, #4]
 7855 0008 7B68     		ldr	r3, [r7, #4]
 7856 000a 4122     		movs	r2, #65
 7857 000c 9B5C     		ldrb	r3, [r3, r2]
 7858 000e DBB2     		uxtb	r3, r3
 7859 0010 1800     		movs	r0, r3
 7860 0012 BD46     		mov	sp, r7
 7861 0014 02B0     		add	sp, sp, #8
 7862              		@ sp needed
 7863 0016 80BD     		pop	{r7, pc}
 7865              		.section	.text.HAL_I2C_GetMode,"ax",%progbits
 7866              		.align	1
 7867              		.global	HAL_I2C_GetMode
 7868              		.syntax unified
 7869              		.code	16
 7870              		.thumb_func
 7872              	HAL_I2C_GetMode:
 7873              		@ args = 0, pretend = 0, frame = 8
 7874              		@ frame_needed = 1, uses_anonymous_args = 0
 7875 0000 80B5     		push	{r7, lr}
 7876 0002 82B0     		sub	sp, sp, #8
 7877 0004 00AF     		add	r7, sp, #0
 7878 0006 7860     		str	r0, [r7, #4]
 7879 0008 7B68     		ldr	r3, [r7, #4]
 7880 000a 4222     		movs	r2, #66
 7881 000c 9B5C     		ldrb	r3, [r3, r2]
 7882 000e DBB2     		uxtb	r3, r3
 7883 0010 1800     		movs	r0, r3
 7884 0012 BD46     		mov	sp, r7
 7885 0014 02B0     		add	sp, sp, #8
 7886              		@ sp needed
 7887 0016 80BD     		pop	{r7, pc}
 7889              		.section	.text.HAL_I2C_GetError,"ax",%progbits
 7890              		.align	1
 7891              		.global	HAL_I2C_GetError
 7892              		.syntax unified
 7893              		.code	16
 7894              		.thumb_func
 7896              	HAL_I2C_GetError:
 7897              		@ args = 0, pretend = 0, frame = 8
 7898              		@ frame_needed = 1, uses_anonymous_args = 0
 7899 0000 80B5     		push	{r7, lr}
 7900 0002 82B0     		sub	sp, sp, #8
 7901 0004 00AF     		add	r7, sp, #0
 7902 0006 7860     		str	r0, [r7, #4]
 7903 0008 7B68     		ldr	r3, [r7, #4]
 7904 000a 5B6C     		ldr	r3, [r3, #68]
 7905 000c 1800     		movs	r0, r3
 7906 000e BD46     		mov	sp, r7
ARM GAS  /tmp/ccnCrYSN.s 			page 138


 7907 0010 02B0     		add	sp, sp, #8
 7908              		@ sp needed
 7909 0012 80BD     		pop	{r7, pc}
 7911              		.section	.text.I2C_Master_ISR_IT,"ax",%progbits
 7912              		.align	1
 7913              		.syntax unified
 7914              		.code	16
 7915              		.thumb_func
 7917              	I2C_Master_ISR_IT:
 7918              		@ args = 0, pretend = 0, frame = 24
 7919              		@ frame_needed = 1, uses_anonymous_args = 0
 7920 0000 90B5     		push	{r4, r7, lr}
 7921 0002 89B0     		sub	sp, sp, #36
 7922 0004 02AF     		add	r7, sp, #8
 7923 0006 F860     		str	r0, [r7, #12]
 7924 0008 B960     		str	r1, [r7, #8]
 7925 000a 7A60     		str	r2, [r7, #4]
 7926 000c BB68     		ldr	r3, [r7, #8]
 7927 000e 7B61     		str	r3, [r7, #20]
 7928 0010 FB68     		ldr	r3, [r7, #12]
 7929 0012 4022     		movs	r2, #64
 7930 0014 9B5C     		ldrb	r3, [r3, r2]
 7931 0016 012B     		cmp	r3, #1
 7932 0018 01D1     		bne	.L466
 7933 001a 0223     		movs	r3, #2
 7934 001c 47E1     		b	.L467
 7935              	.L466:
 7936 001e FB68     		ldr	r3, [r7, #12]
 7937 0020 4022     		movs	r2, #64
 7938 0022 0121     		movs	r1, #1
 7939 0024 9954     		strb	r1, [r3, r2]
 7940 0026 7B69     		ldr	r3, [r7, #20]
 7941 0028 1B09     		lsrs	r3, r3, #4
 7942 002a 1A00     		movs	r2, r3
 7943 002c 0123     		movs	r3, #1
 7944 002e 1340     		ands	r3, r2
 7945 0030 14D0     		beq	.L468
 7946 0032 7B68     		ldr	r3, [r7, #4]
 7947 0034 1B09     		lsrs	r3, r3, #4
 7948 0036 1A00     		movs	r2, r3
 7949 0038 0123     		movs	r3, #1
 7950 003a 1340     		ands	r3, r2
 7951 003c 0ED0     		beq	.L468
 7952 003e FB68     		ldr	r3, [r7, #12]
 7953 0040 1B68     		ldr	r3, [r3]
 7954 0042 1022     		movs	r2, #16
 7955 0044 DA61     		str	r2, [r3, #28]
 7956 0046 FB68     		ldr	r3, [r7, #12]
 7957 0048 5B6C     		ldr	r3, [r3, #68]
 7958 004a 0422     		movs	r2, #4
 7959 004c 1A43     		orrs	r2, r3
 7960 004e FB68     		ldr	r3, [r7, #12]
 7961 0050 5A64     		str	r2, [r3, #68]
 7962 0052 FB68     		ldr	r3, [r7, #12]
 7963 0054 1800     		movs	r0, r3
 7964 0056 FFF7FEFF 		bl	I2C_Flush_TXDR
 7965 005a 11E1     		b	.L469
ARM GAS  /tmp/ccnCrYSN.s 			page 139


 7966              	.L468:
 7967 005c 7B69     		ldr	r3, [r7, #20]
 7968 005e 9B08     		lsrs	r3, r3, #2
 7969 0060 1A00     		movs	r2, r3
 7970 0062 0123     		movs	r3, #1
 7971 0064 1340     		ands	r3, r2
 7972 0066 23D0     		beq	.L470
 7973 0068 7B68     		ldr	r3, [r7, #4]
 7974 006a 9B08     		lsrs	r3, r3, #2
 7975 006c 1A00     		movs	r2, r3
 7976 006e 0123     		movs	r3, #1
 7977 0070 1340     		ands	r3, r2
 7978 0072 1DD0     		beq	.L470
 7979 0074 7B69     		ldr	r3, [r7, #20]
 7980 0076 0422     		movs	r2, #4
 7981 0078 9343     		bics	r3, r2
 7982 007a 7B61     		str	r3, [r7, #20]
 7983 007c FB68     		ldr	r3, [r7, #12]
 7984 007e 1B68     		ldr	r3, [r3]
 7985 0080 5A6A     		ldr	r2, [r3, #36]
 7986 0082 FB68     		ldr	r3, [r7, #12]
 7987 0084 5B6A     		ldr	r3, [r3, #36]
 7988 0086 D2B2     		uxtb	r2, r2
 7989 0088 1A70     		strb	r2, [r3]
 7990 008a FB68     		ldr	r3, [r7, #12]
 7991 008c 5B6A     		ldr	r3, [r3, #36]
 7992 008e 5A1C     		adds	r2, r3, #1
 7993 0090 FB68     		ldr	r3, [r7, #12]
 7994 0092 5A62     		str	r2, [r3, #36]
 7995 0094 FB68     		ldr	r3, [r7, #12]
 7996 0096 1B8D     		ldrh	r3, [r3, #40]
 7997 0098 013B     		subs	r3, r3, #1
 7998 009a 9AB2     		uxth	r2, r3
 7999 009c FB68     		ldr	r3, [r7, #12]
 8000 009e 1A85     		strh	r2, [r3, #40]
 8001 00a0 FB68     		ldr	r3, [r7, #12]
 8002 00a2 5B8D     		ldrh	r3, [r3, #42]
 8003 00a4 9BB2     		uxth	r3, r3
 8004 00a6 013B     		subs	r3, r3, #1
 8005 00a8 9AB2     		uxth	r2, r3
 8006 00aa FB68     		ldr	r3, [r7, #12]
 8007 00ac 5A85     		strh	r2, [r3, #42]
 8008 00ae E7E0     		b	.L469
 8009              	.L470:
 8010 00b0 7B69     		ldr	r3, [r7, #20]
 8011 00b2 9B09     		lsrs	r3, r3, #6
 8012 00b4 1A00     		movs	r2, r3
 8013 00b6 0123     		movs	r3, #1
 8014 00b8 1340     		ands	r3, r2
 8015 00ba 2AD1     		bne	.L471
 8016 00bc 7B69     		ldr	r3, [r7, #20]
 8017 00be 5B08     		lsrs	r3, r3, #1
 8018 00c0 1A00     		movs	r2, r3
 8019 00c2 0123     		movs	r3, #1
 8020 00c4 1340     		ands	r3, r2
 8021 00c6 24D0     		beq	.L471
 8022 00c8 7B68     		ldr	r3, [r7, #4]
ARM GAS  /tmp/ccnCrYSN.s 			page 140


 8023 00ca 5B08     		lsrs	r3, r3, #1
 8024 00cc 1A00     		movs	r2, r3
 8025 00ce 0123     		movs	r3, #1
 8026 00d0 1340     		ands	r3, r2
 8027 00d2 1ED0     		beq	.L471
 8028 00d4 FB68     		ldr	r3, [r7, #12]
 8029 00d6 5B8D     		ldrh	r3, [r3, #42]
 8030 00d8 9BB2     		uxth	r3, r3
 8031 00da 002B     		cmp	r3, #0
 8032 00dc 00D1     		bne	.LCB8575
 8033 00de CFE0     		b	.L469	@long jump
 8034              	.LCB8575:
 8035 00e0 FB68     		ldr	r3, [r7, #12]
 8036 00e2 5B6A     		ldr	r3, [r3, #36]
 8037 00e4 1A78     		ldrb	r2, [r3]
 8038 00e6 FB68     		ldr	r3, [r7, #12]
 8039 00e8 1B68     		ldr	r3, [r3]
 8040 00ea 9A62     		str	r2, [r3, #40]
 8041 00ec FB68     		ldr	r3, [r7, #12]
 8042 00ee 5B6A     		ldr	r3, [r3, #36]
 8043 00f0 5A1C     		adds	r2, r3, #1
 8044 00f2 FB68     		ldr	r3, [r7, #12]
 8045 00f4 5A62     		str	r2, [r3, #36]
 8046 00f6 FB68     		ldr	r3, [r7, #12]
 8047 00f8 1B8D     		ldrh	r3, [r3, #40]
 8048 00fa 013B     		subs	r3, r3, #1
 8049 00fc 9AB2     		uxth	r2, r3
 8050 00fe FB68     		ldr	r3, [r7, #12]
 8051 0100 1A85     		strh	r2, [r3, #40]
 8052 0102 FB68     		ldr	r3, [r7, #12]
 8053 0104 5B8D     		ldrh	r3, [r3, #42]
 8054 0106 9BB2     		uxth	r3, r3
 8055 0108 013B     		subs	r3, r3, #1
 8056 010a 9AB2     		uxth	r2, r3
 8057 010c FB68     		ldr	r3, [r7, #12]
 8058 010e 5A85     		strh	r2, [r3, #42]
 8059 0110 B6E0     		b	.L469
 8060              	.L471:
 8061 0112 7B69     		ldr	r3, [r7, #20]
 8062 0114 DB09     		lsrs	r3, r3, #7
 8063 0116 1A00     		movs	r2, r3
 8064 0118 0123     		movs	r3, #1
 8065 011a 1340     		ands	r3, r2
 8066 011c 00D1     		bne	.LCB8610
 8067 011e 7BE0     		b	.L473	@long jump
 8068              	.LCB8610:
 8069 0120 7B68     		ldr	r3, [r7, #4]
 8070 0122 9B09     		lsrs	r3, r3, #6
 8071 0124 1A00     		movs	r2, r3
 8072 0126 0123     		movs	r3, #1
 8073 0128 1340     		ands	r3, r2
 8074 012a 00D1     		bne	.LCB8617
 8075 012c 74E0     		b	.L473	@long jump
 8076              	.LCB8617:
 8077 012e FB68     		ldr	r3, [r7, #12]
 8078 0130 5B8D     		ldrh	r3, [r3, #42]
 8079 0132 9BB2     		uxth	r3, r3
ARM GAS  /tmp/ccnCrYSN.s 			page 141


 8080 0134 002B     		cmp	r3, #0
 8081 0136 59D0     		beq	.L474
 8082 0138 FB68     		ldr	r3, [r7, #12]
 8083 013a 1B8D     		ldrh	r3, [r3, #40]
 8084 013c 002B     		cmp	r3, #0
 8085 013e 55D1     		bne	.L474
 8086 0140 FB68     		ldr	r3, [r7, #12]
 8087 0142 1B68     		ldr	r3, [r3]
 8088 0144 5B68     		ldr	r3, [r3, #4]
 8089 0146 9AB2     		uxth	r2, r3
 8090 0148 1223     		movs	r3, #18
 8091 014a FB18     		adds	r3, r7, r3
 8092 014c 9205     		lsls	r2, r2, #22
 8093 014e 920D     		lsrs	r2, r2, #22
 8094 0150 1A80     		strh	r2, [r3]
 8095 0152 FB68     		ldr	r3, [r7, #12]
 8096 0154 5B8D     		ldrh	r3, [r3, #42]
 8097 0156 9BB2     		uxth	r3, r3
 8098 0158 FF2B     		cmp	r3, #255
 8099 015a 1FD9     		bls	.L475
 8100 015c FB68     		ldr	r3, [r7, #12]
 8101 015e 1B68     		ldr	r3, [r3]
 8102 0160 9B69     		ldr	r3, [r3, #24]
 8103 0162 1B0C     		lsrs	r3, r3, #16
 8104 0164 DBB2     		uxtb	r3, r3
 8105 0166 0122     		movs	r2, #1
 8106 0168 1340     		ands	r3, r2
 8107 016a DBB2     		uxtb	r3, r3
 8108 016c 012B     		cmp	r3, #1
 8109 016e 03D1     		bne	.L476
 8110 0170 FB68     		ldr	r3, [r7, #12]
 8111 0172 0122     		movs	r2, #1
 8112 0174 1A85     		strh	r2, [r3, #40]
 8113 0176 02E0     		b	.L477
 8114              	.L476:
 8115 0178 FB68     		ldr	r3, [r7, #12]
 8116 017a FF22     		movs	r2, #255
 8117 017c 1A85     		strh	r2, [r3, #40]
 8118              	.L477:
 8119 017e FB68     		ldr	r3, [r7, #12]
 8120 0180 1B8D     		ldrh	r3, [r3, #40]
 8121 0182 DAB2     		uxtb	r2, r3
 8122 0184 8023     		movs	r3, #128
 8123 0186 5C04     		lsls	r4, r3, #17
 8124 0188 1223     		movs	r3, #18
 8125 018a FB18     		adds	r3, r7, r3
 8126 018c 1988     		ldrh	r1, [r3]
 8127 018e F868     		ldr	r0, [r7, #12]
 8128 0190 0023     		movs	r3, #0
 8129 0192 0093     		str	r3, [sp]
 8130 0194 2300     		movs	r3, r4
 8131 0196 FFF7FEFF 		bl	I2C_TransferConfig
 8132 019a 3CE0     		b	.L480
 8133              	.L475:
 8134 019c FB68     		ldr	r3, [r7, #12]
 8135 019e 5B8D     		ldrh	r3, [r3, #42]
 8136 01a0 9AB2     		uxth	r2, r3
ARM GAS  /tmp/ccnCrYSN.s 			page 142


 8137 01a2 FB68     		ldr	r3, [r7, #12]
 8138 01a4 1A85     		strh	r2, [r3, #40]
 8139 01a6 FB68     		ldr	r3, [r7, #12]
 8140 01a8 DB6A     		ldr	r3, [r3, #44]
 8141 01aa 434A     		ldr	r2, .L485
 8142 01ac 9342     		cmp	r3, r2
 8143 01ae 0ED0     		beq	.L479
 8144 01b0 FB68     		ldr	r3, [r7, #12]
 8145 01b2 1B8D     		ldrh	r3, [r3, #40]
 8146 01b4 DAB2     		uxtb	r2, r3
 8147 01b6 FB68     		ldr	r3, [r7, #12]
 8148 01b8 DC6A     		ldr	r4, [r3, #44]
 8149 01ba 1223     		movs	r3, #18
 8150 01bc FB18     		adds	r3, r7, r3
 8151 01be 1988     		ldrh	r1, [r3]
 8152 01c0 F868     		ldr	r0, [r7, #12]
 8153 01c2 0023     		movs	r3, #0
 8154 01c4 0093     		str	r3, [sp]
 8155 01c6 2300     		movs	r3, r4
 8156 01c8 FFF7FEFF 		bl	I2C_TransferConfig
 8157 01cc 23E0     		b	.L480
 8158              	.L479:
 8159 01ce FB68     		ldr	r3, [r7, #12]
 8160 01d0 1B8D     		ldrh	r3, [r3, #40]
 8161 01d2 DAB2     		uxtb	r2, r3
 8162 01d4 8023     		movs	r3, #128
 8163 01d6 9C04     		lsls	r4, r3, #18
 8164 01d8 1223     		movs	r3, #18
 8165 01da FB18     		adds	r3, r7, r3
 8166 01dc 1988     		ldrh	r1, [r3]
 8167 01de F868     		ldr	r0, [r7, #12]
 8168 01e0 0023     		movs	r3, #0
 8169 01e2 0093     		str	r3, [sp]
 8170 01e4 2300     		movs	r3, r4
 8171 01e6 FFF7FEFF 		bl	I2C_TransferConfig
 8172 01ea 14E0     		b	.L480
 8173              	.L474:
 8174 01ec FB68     		ldr	r3, [r7, #12]
 8175 01ee 1B68     		ldr	r3, [r3]
 8176 01f0 5A68     		ldr	r2, [r3, #4]
 8177 01f2 8023     		movs	r3, #128
 8178 01f4 9B04     		lsls	r3, r3, #18
 8179 01f6 1A40     		ands	r2, r3
 8180 01f8 8023     		movs	r3, #128
 8181 01fa 9B04     		lsls	r3, r3, #18
 8182 01fc 9A42     		cmp	r2, r3
 8183 01fe 04D0     		beq	.L481
 8184 0200 FB68     		ldr	r3, [r7, #12]
 8185 0202 1800     		movs	r0, r3
 8186 0204 FFF7FEFF 		bl	I2C_ITMasterSeqCplt
 8187 0208 3AE0     		b	.L469
 8188              	.L481:
 8189 020a FB68     		ldr	r3, [r7, #12]
 8190 020c 4021     		movs	r1, #64
 8191 020e 1800     		movs	r0, r3
 8192 0210 FFF7FEFF 		bl	I2C_ITError
 8193 0214 34E0     		b	.L469
ARM GAS  /tmp/ccnCrYSN.s 			page 143


 8194              	.L480:
 8195 0216 33E0     		b	.L469
 8196              	.L473:
 8197 0218 7B69     		ldr	r3, [r7, #20]
 8198 021a 9B09     		lsrs	r3, r3, #6
 8199 021c 1A00     		movs	r2, r3
 8200 021e 0123     		movs	r3, #1
 8201 0220 1340     		ands	r3, r2
 8202 0222 2DD0     		beq	.L469
 8203 0224 7B68     		ldr	r3, [r7, #4]
 8204 0226 9B09     		lsrs	r3, r3, #6
 8205 0228 1A00     		movs	r2, r3
 8206 022a 0123     		movs	r3, #1
 8207 022c 1340     		ands	r3, r2
 8208 022e 27D0     		beq	.L469
 8209 0230 FB68     		ldr	r3, [r7, #12]
 8210 0232 5B8D     		ldrh	r3, [r3, #42]
 8211 0234 9BB2     		uxth	r3, r3
 8212 0236 002B     		cmp	r3, #0
 8213 0238 1DD1     		bne	.L482
 8214 023a FB68     		ldr	r3, [r7, #12]
 8215 023c 1B68     		ldr	r3, [r3]
 8216 023e 5A68     		ldr	r2, [r3, #4]
 8217 0240 8023     		movs	r3, #128
 8218 0242 9B04     		lsls	r3, r3, #18
 8219 0244 1A40     		ands	r2, r3
 8220 0246 8023     		movs	r3, #128
 8221 0248 9B04     		lsls	r3, r3, #18
 8222 024a 9A42     		cmp	r2, r3
 8223 024c 18D0     		beq	.L469
 8224 024e FB68     		ldr	r3, [r7, #12]
 8225 0250 DB6A     		ldr	r3, [r3, #44]
 8226 0252 194A     		ldr	r2, .L485
 8227 0254 9342     		cmp	r3, r2
 8228 0256 09D1     		bne	.L483
 8229 0258 FB68     		ldr	r3, [r7, #12]
 8230 025a 1B68     		ldr	r3, [r3]
 8231 025c 5A68     		ldr	r2, [r3, #4]
 8232 025e FB68     		ldr	r3, [r7, #12]
 8233 0260 1B68     		ldr	r3, [r3]
 8234 0262 8021     		movs	r1, #128
 8235 0264 C901     		lsls	r1, r1, #7
 8236 0266 0A43     		orrs	r2, r1
 8237 0268 5A60     		str	r2, [r3, #4]
 8238 026a 09E0     		b	.L469
 8239              	.L483:
 8240 026c FB68     		ldr	r3, [r7, #12]
 8241 026e 1800     		movs	r0, r3
 8242 0270 FFF7FEFF 		bl	I2C_ITMasterSeqCplt
 8243 0274 04E0     		b	.L469
 8244              	.L482:
 8245 0276 FB68     		ldr	r3, [r7, #12]
 8246 0278 4021     		movs	r1, #64
 8247 027a 1800     		movs	r0, r3
 8248 027c FFF7FEFF 		bl	I2C_ITError
 8249              	.L469:
 8250 0280 7B69     		ldr	r3, [r7, #20]
ARM GAS  /tmp/ccnCrYSN.s 			page 144


 8251 0282 5B09     		lsrs	r3, r3, #5
 8252 0284 1A00     		movs	r2, r3
 8253 0286 0123     		movs	r3, #1
 8254 0288 1340     		ands	r3, r2
 8255 028a 0BD0     		beq	.L484
 8256 028c 7B68     		ldr	r3, [r7, #4]
 8257 028e 5B09     		lsrs	r3, r3, #5
 8258 0290 1A00     		movs	r2, r3
 8259 0292 0123     		movs	r3, #1
 8260 0294 1340     		ands	r3, r2
 8261 0296 05D0     		beq	.L484
 8262 0298 7A69     		ldr	r2, [r7, #20]
 8263 029a FB68     		ldr	r3, [r7, #12]
 8264 029c 1100     		movs	r1, r2
 8265 029e 1800     		movs	r0, r3
 8266 02a0 FFF7FEFF 		bl	I2C_ITMasterCplt
 8267              	.L484:
 8268 02a4 FB68     		ldr	r3, [r7, #12]
 8269 02a6 4022     		movs	r2, #64
 8270 02a8 0021     		movs	r1, #0
 8271 02aa 9954     		strb	r1, [r3, r2]
 8272 02ac 0023     		movs	r3, #0
 8273              	.L467:
 8274 02ae 1800     		movs	r0, r3
 8275 02b0 BD46     		mov	sp, r7
 8276 02b2 07B0     		add	sp, sp, #28
 8277              		@ sp needed
 8278 02b4 90BD     		pop	{r4, r7, pc}
 8279              	.L486:
 8280 02b6 C046     		.align	2
 8281              	.L485:
 8282 02b8 0000FFFF 		.word	-65536
 8284              		.section	.text.I2C_Mem_ISR_IT,"ax",%progbits
 8285              		.align	1
 8286              		.syntax unified
 8287              		.code	16
 8288              		.thumb_func
 8290              	I2C_Mem_ISR_IT:
 8291              		@ args = 0, pretend = 0, frame = 24
 8292              		@ frame_needed = 1, uses_anonymous_args = 0
 8293 0000 90B5     		push	{r4, r7, lr}
 8294 0002 89B0     		sub	sp, sp, #36
 8295 0004 02AF     		add	r7, sp, #8
 8296 0006 F860     		str	r0, [r7, #12]
 8297 0008 B960     		str	r1, [r7, #8]
 8298 000a 7A60     		str	r2, [r7, #4]
 8299 000c A54B     		ldr	r3, .L508
 8300 000e 7B61     		str	r3, [r7, #20]
 8301 0010 BB68     		ldr	r3, [r7, #8]
 8302 0012 3B61     		str	r3, [r7, #16]
 8303 0014 FB68     		ldr	r3, [r7, #12]
 8304 0016 4022     		movs	r2, #64
 8305 0018 9B5C     		ldrb	r3, [r3, r2]
 8306 001a 012B     		cmp	r3, #1
 8307 001c 01D1     		bne	.L488
 8308 001e 0223     		movs	r3, #2
 8309 0020 3BE1     		b	.L489
ARM GAS  /tmp/ccnCrYSN.s 			page 145


 8310              	.L488:
 8311 0022 FB68     		ldr	r3, [r7, #12]
 8312 0024 4022     		movs	r2, #64
 8313 0026 0121     		movs	r1, #1
 8314 0028 9954     		strb	r1, [r3, r2]
 8315 002a 3B69     		ldr	r3, [r7, #16]
 8316 002c 1B09     		lsrs	r3, r3, #4
 8317 002e 1A00     		movs	r2, r3
 8318 0030 0123     		movs	r3, #1
 8319 0032 1340     		ands	r3, r2
 8320 0034 14D0     		beq	.L490
 8321 0036 7B68     		ldr	r3, [r7, #4]
 8322 0038 1B09     		lsrs	r3, r3, #4
 8323 003a 1A00     		movs	r2, r3
 8324 003c 0123     		movs	r3, #1
 8325 003e 1340     		ands	r3, r2
 8326 0040 0ED0     		beq	.L490
 8327 0042 FB68     		ldr	r3, [r7, #12]
 8328 0044 1B68     		ldr	r3, [r3]
 8329 0046 1022     		movs	r2, #16
 8330 0048 DA61     		str	r2, [r3, #28]
 8331 004a FB68     		ldr	r3, [r7, #12]
 8332 004c 5B6C     		ldr	r3, [r3, #68]
 8333 004e 0422     		movs	r2, #4
 8334 0050 1A43     		orrs	r2, r3
 8335 0052 FB68     		ldr	r3, [r7, #12]
 8336 0054 5A64     		str	r2, [r3, #68]
 8337 0056 FB68     		ldr	r3, [r7, #12]
 8338 0058 1800     		movs	r0, r3
 8339 005a FFF7FEFF 		bl	I2C_Flush_TXDR
 8340 005e 05E1     		b	.L491
 8341              	.L490:
 8342 0060 3B69     		ldr	r3, [r7, #16]
 8343 0062 9B08     		lsrs	r3, r3, #2
 8344 0064 1A00     		movs	r2, r3
 8345 0066 0123     		movs	r3, #1
 8346 0068 1340     		ands	r3, r2
 8347 006a 23D0     		beq	.L492
 8348 006c 7B68     		ldr	r3, [r7, #4]
 8349 006e 9B08     		lsrs	r3, r3, #2
 8350 0070 1A00     		movs	r2, r3
 8351 0072 0123     		movs	r3, #1
 8352 0074 1340     		ands	r3, r2
 8353 0076 1DD0     		beq	.L492
 8354 0078 3B69     		ldr	r3, [r7, #16]
 8355 007a 0422     		movs	r2, #4
 8356 007c 9343     		bics	r3, r2
 8357 007e 3B61     		str	r3, [r7, #16]
 8358 0080 FB68     		ldr	r3, [r7, #12]
 8359 0082 1B68     		ldr	r3, [r3]
 8360 0084 5A6A     		ldr	r2, [r3, #36]
 8361 0086 FB68     		ldr	r3, [r7, #12]
 8362 0088 5B6A     		ldr	r3, [r3, #36]
 8363 008a D2B2     		uxtb	r2, r2
 8364 008c 1A70     		strb	r2, [r3]
 8365 008e FB68     		ldr	r3, [r7, #12]
 8366 0090 5B6A     		ldr	r3, [r3, #36]
ARM GAS  /tmp/ccnCrYSN.s 			page 146


 8367 0092 5A1C     		adds	r2, r3, #1
 8368 0094 FB68     		ldr	r3, [r7, #12]
 8369 0096 5A62     		str	r2, [r3, #36]
 8370 0098 FB68     		ldr	r3, [r7, #12]
 8371 009a 1B8D     		ldrh	r3, [r3, #40]
 8372 009c 013B     		subs	r3, r3, #1
 8373 009e 9AB2     		uxth	r2, r3
 8374 00a0 FB68     		ldr	r3, [r7, #12]
 8375 00a2 1A85     		strh	r2, [r3, #40]
 8376 00a4 FB68     		ldr	r3, [r7, #12]
 8377 00a6 5B8D     		ldrh	r3, [r3, #42]
 8378 00a8 9BB2     		uxth	r3, r3
 8379 00aa 013B     		subs	r3, r3, #1
 8380 00ac 9AB2     		uxth	r2, r3
 8381 00ae FB68     		ldr	r3, [r7, #12]
 8382 00b0 5A85     		strh	r2, [r3, #42]
 8383 00b2 DBE0     		b	.L491
 8384              	.L492:
 8385 00b4 3B69     		ldr	r3, [r7, #16]
 8386 00b6 5B08     		lsrs	r3, r3, #1
 8387 00b8 1A00     		movs	r2, r3
 8388 00ba 0123     		movs	r3, #1
 8389 00bc 1340     		ands	r3, r2
 8390 00be 2CD0     		beq	.L493
 8391 00c0 7B68     		ldr	r3, [r7, #4]
 8392 00c2 5B08     		lsrs	r3, r3, #1
 8393 00c4 1A00     		movs	r2, r3
 8394 00c6 0123     		movs	r3, #1
 8395 00c8 1340     		ands	r3, r2
 8396 00ca 26D0     		beq	.L493
 8397 00cc FB68     		ldr	r3, [r7, #12]
 8398 00ce 1B6D     		ldr	r3, [r3, #80]
 8399 00d0 0133     		adds	r3, r3, #1
 8400 00d2 18D1     		bne	.L494
 8401 00d4 FB68     		ldr	r3, [r7, #12]
 8402 00d6 5B6A     		ldr	r3, [r3, #36]
 8403 00d8 1A78     		ldrb	r2, [r3]
 8404 00da FB68     		ldr	r3, [r7, #12]
 8405 00dc 1B68     		ldr	r3, [r3]
 8406 00de 9A62     		str	r2, [r3, #40]
 8407 00e0 FB68     		ldr	r3, [r7, #12]
 8408 00e2 5B6A     		ldr	r3, [r3, #36]
 8409 00e4 5A1C     		adds	r2, r3, #1
 8410 00e6 FB68     		ldr	r3, [r7, #12]
 8411 00e8 5A62     		str	r2, [r3, #36]
 8412 00ea FB68     		ldr	r3, [r7, #12]
 8413 00ec 1B8D     		ldrh	r3, [r3, #40]
 8414 00ee 013B     		subs	r3, r3, #1
 8415 00f0 9AB2     		uxth	r2, r3
 8416 00f2 FB68     		ldr	r3, [r7, #12]
 8417 00f4 1A85     		strh	r2, [r3, #40]
 8418 00f6 FB68     		ldr	r3, [r7, #12]
 8419 00f8 5B8D     		ldrh	r3, [r3, #42]
 8420 00fa 9BB2     		uxth	r3, r3
 8421 00fc 013B     		subs	r3, r3, #1
 8422 00fe 9AB2     		uxth	r2, r3
 8423 0100 FB68     		ldr	r3, [r7, #12]
ARM GAS  /tmp/ccnCrYSN.s 			page 147


 8424 0102 5A85     		strh	r2, [r3, #42]
 8425 0104 B2E0     		b	.L491
 8426              	.L494:
 8427 0106 FB68     		ldr	r3, [r7, #12]
 8428 0108 1B68     		ldr	r3, [r3]
 8429 010a FA68     		ldr	r2, [r7, #12]
 8430 010c 126D     		ldr	r2, [r2, #80]
 8431 010e 9A62     		str	r2, [r3, #40]
 8432 0110 FB68     		ldr	r3, [r7, #12]
 8433 0112 0122     		movs	r2, #1
 8434 0114 5242     		rsbs	r2, r2, #0
 8435 0116 1A65     		str	r2, [r3, #80]
 8436 0118 A8E0     		b	.L491
 8437              	.L493:
 8438 011a 3B69     		ldr	r3, [r7, #16]
 8439 011c DB09     		lsrs	r3, r3, #7
 8440 011e 1A00     		movs	r2, r3
 8441 0120 0123     		movs	r3, #1
 8442 0122 1340     		ands	r3, r2
 8443 0124 4CD0     		beq	.L496
 8444 0126 7B68     		ldr	r3, [r7, #4]
 8445 0128 9B09     		lsrs	r3, r3, #6
 8446 012a 1A00     		movs	r2, r3
 8447 012c 0123     		movs	r3, #1
 8448 012e 1340     		ands	r3, r2
 8449 0130 46D0     		beq	.L496
 8450 0132 FB68     		ldr	r3, [r7, #12]
 8451 0134 5B8D     		ldrh	r3, [r3, #42]
 8452 0136 9BB2     		uxth	r3, r3
 8453 0138 002B     		cmp	r3, #0
 8454 013a 3AD0     		beq	.L497
 8455 013c FB68     		ldr	r3, [r7, #12]
 8456 013e 1B8D     		ldrh	r3, [r3, #40]
 8457 0140 002B     		cmp	r3, #0
 8458 0142 36D1     		bne	.L497
 8459 0144 FB68     		ldr	r3, [r7, #12]
 8460 0146 5B8D     		ldrh	r3, [r3, #42]
 8461 0148 9BB2     		uxth	r3, r3
 8462 014a FF2B     		cmp	r3, #255
 8463 014c 1ED9     		bls	.L498
 8464 014e FB68     		ldr	r3, [r7, #12]
 8465 0150 1B68     		ldr	r3, [r3]
 8466 0152 9B69     		ldr	r3, [r3, #24]
 8467 0154 1B0C     		lsrs	r3, r3, #16
 8468 0156 DBB2     		uxtb	r3, r3
 8469 0158 0122     		movs	r2, #1
 8470 015a 1340     		ands	r3, r2
 8471 015c DBB2     		uxtb	r3, r3
 8472 015e 012B     		cmp	r3, #1
 8473 0160 03D1     		bne	.L499
 8474 0162 FB68     		ldr	r3, [r7, #12]
 8475 0164 0122     		movs	r2, #1
 8476 0166 1A85     		strh	r2, [r3, #40]
 8477 0168 02E0     		b	.L500
 8478              	.L499:
 8479 016a FB68     		ldr	r3, [r7, #12]
 8480 016c FF22     		movs	r2, #255
ARM GAS  /tmp/ccnCrYSN.s 			page 148


 8481 016e 1A85     		strh	r2, [r3, #40]
 8482              	.L500:
 8483 0170 FB68     		ldr	r3, [r7, #12]
 8484 0172 DB6C     		ldr	r3, [r3, #76]
 8485 0174 99B2     		uxth	r1, r3
 8486 0176 FB68     		ldr	r3, [r7, #12]
 8487 0178 1B8D     		ldrh	r3, [r3, #40]
 8488 017a DAB2     		uxtb	r2, r3
 8489 017c 8023     		movs	r3, #128
 8490 017e 5B04     		lsls	r3, r3, #17
 8491 0180 F868     		ldr	r0, [r7, #12]
 8492 0182 0024     		movs	r4, #0
 8493 0184 0094     		str	r4, [sp]
 8494 0186 FFF7FEFF 		bl	I2C_TransferConfig
 8495 018a 18E0     		b	.L502
 8496              	.L498:
 8497 018c FB68     		ldr	r3, [r7, #12]
 8498 018e 5B8D     		ldrh	r3, [r3, #42]
 8499 0190 9AB2     		uxth	r2, r3
 8500 0192 FB68     		ldr	r3, [r7, #12]
 8501 0194 1A85     		strh	r2, [r3, #40]
 8502 0196 FB68     		ldr	r3, [r7, #12]
 8503 0198 DB6C     		ldr	r3, [r3, #76]
 8504 019a 99B2     		uxth	r1, r3
 8505 019c FB68     		ldr	r3, [r7, #12]
 8506 019e 1B8D     		ldrh	r3, [r3, #40]
 8507 01a0 DAB2     		uxtb	r2, r3
 8508 01a2 8023     		movs	r3, #128
 8509 01a4 9B04     		lsls	r3, r3, #18
 8510 01a6 F868     		ldr	r0, [r7, #12]
 8511 01a8 0024     		movs	r4, #0
 8512 01aa 0094     		str	r4, [sp]
 8513 01ac FFF7FEFF 		bl	I2C_TransferConfig
 8514 01b0 05E0     		b	.L502
 8515              	.L497:
 8516 01b2 FB68     		ldr	r3, [r7, #12]
 8517 01b4 4021     		movs	r1, #64
 8518 01b6 1800     		movs	r0, r3
 8519 01b8 FFF7FEFF 		bl	I2C_ITError
 8520 01bc 56E0     		b	.L491
 8521              	.L502:
 8522 01be 55E0     		b	.L491
 8523              	.L496:
 8524 01c0 3B69     		ldr	r3, [r7, #16]
 8525 01c2 9B09     		lsrs	r3, r3, #6
 8526 01c4 1A00     		movs	r2, r3
 8527 01c6 0123     		movs	r3, #1
 8528 01c8 1340     		ands	r3, r2
 8529 01ca 4FD0     		beq	.L491
 8530 01cc 7B68     		ldr	r3, [r7, #4]
 8531 01ce 9B09     		lsrs	r3, r3, #6
 8532 01d0 1A00     		movs	r2, r3
 8533 01d2 0123     		movs	r3, #1
 8534 01d4 1340     		ands	r3, r2
 8535 01d6 49D0     		beq	.L491
 8536 01d8 FB68     		ldr	r3, [r7, #12]
 8537 01da 0121     		movs	r1, #1
ARM GAS  /tmp/ccnCrYSN.s 			page 149


 8538 01dc 1800     		movs	r0, r3
 8539 01de FFF7FEFF 		bl	I2C_Disable_IRQ
 8540 01e2 FB68     		ldr	r3, [r7, #12]
 8541 01e4 0221     		movs	r1, #2
 8542 01e6 1800     		movs	r0, r3
 8543 01e8 FFF7FEFF 		bl	I2C_Enable_IRQ
 8544 01ec FB68     		ldr	r3, [r7, #12]
 8545 01ee 4122     		movs	r2, #65
 8546 01f0 9B5C     		ldrb	r3, [r3, r2]
 8547 01f2 DBB2     		uxtb	r3, r3
 8548 01f4 222B     		cmp	r3, #34
 8549 01f6 01D1     		bne	.L503
 8550 01f8 2B4B     		ldr	r3, .L508+4
 8551 01fa 7B61     		str	r3, [r7, #20]
 8552              	.L503:
 8553 01fc FB68     		ldr	r3, [r7, #12]
 8554 01fe 5B8D     		ldrh	r3, [r3, #42]
 8555 0200 9BB2     		uxth	r3, r3
 8556 0202 FF2B     		cmp	r3, #255
 8557 0204 1FD9     		bls	.L504
 8558 0206 FB68     		ldr	r3, [r7, #12]
 8559 0208 1B68     		ldr	r3, [r3]
 8560 020a 9B69     		ldr	r3, [r3, #24]
 8561 020c 1B0C     		lsrs	r3, r3, #16
 8562 020e DBB2     		uxtb	r3, r3
 8563 0210 0122     		movs	r2, #1
 8564 0212 1340     		ands	r3, r2
 8565 0214 DBB2     		uxtb	r3, r3
 8566 0216 012B     		cmp	r3, #1
 8567 0218 03D1     		bne	.L505
 8568 021a FB68     		ldr	r3, [r7, #12]
 8569 021c 0122     		movs	r2, #1
 8570 021e 1A85     		strh	r2, [r3, #40]
 8571 0220 02E0     		b	.L506
 8572              	.L505:
 8573 0222 FB68     		ldr	r3, [r7, #12]
 8574 0224 FF22     		movs	r2, #255
 8575 0226 1A85     		strh	r2, [r3, #40]
 8576              	.L506:
 8577 0228 FB68     		ldr	r3, [r7, #12]
 8578 022a DB6C     		ldr	r3, [r3, #76]
 8579 022c 99B2     		uxth	r1, r3
 8580 022e FB68     		ldr	r3, [r7, #12]
 8581 0230 1B8D     		ldrh	r3, [r3, #40]
 8582 0232 DAB2     		uxtb	r2, r3
 8583 0234 8023     		movs	r3, #128
 8584 0236 5C04     		lsls	r4, r3, #17
 8585 0238 F868     		ldr	r0, [r7, #12]
 8586 023a 7B69     		ldr	r3, [r7, #20]
 8587 023c 0093     		str	r3, [sp]
 8588 023e 2300     		movs	r3, r4
 8589 0240 FFF7FEFF 		bl	I2C_TransferConfig
 8590 0244 12E0     		b	.L491
 8591              	.L504:
 8592 0246 FB68     		ldr	r3, [r7, #12]
 8593 0248 5B8D     		ldrh	r3, [r3, #42]
 8594 024a 9AB2     		uxth	r2, r3
ARM GAS  /tmp/ccnCrYSN.s 			page 150


 8595 024c FB68     		ldr	r3, [r7, #12]
 8596 024e 1A85     		strh	r2, [r3, #40]
 8597 0250 FB68     		ldr	r3, [r7, #12]
 8598 0252 DB6C     		ldr	r3, [r3, #76]
 8599 0254 99B2     		uxth	r1, r3
 8600 0256 FB68     		ldr	r3, [r7, #12]
 8601 0258 1B8D     		ldrh	r3, [r3, #40]
 8602 025a DAB2     		uxtb	r2, r3
 8603 025c 8023     		movs	r3, #128
 8604 025e 9C04     		lsls	r4, r3, #18
 8605 0260 F868     		ldr	r0, [r7, #12]
 8606 0262 7B69     		ldr	r3, [r7, #20]
 8607 0264 0093     		str	r3, [sp]
 8608 0266 2300     		movs	r3, r4
 8609 0268 FFF7FEFF 		bl	I2C_TransferConfig
 8610              	.L491:
 8611 026c 3B69     		ldr	r3, [r7, #16]
 8612 026e 5B09     		lsrs	r3, r3, #5
 8613 0270 1A00     		movs	r2, r3
 8614 0272 0123     		movs	r3, #1
 8615 0274 1340     		ands	r3, r2
 8616 0276 0BD0     		beq	.L507
 8617 0278 7B68     		ldr	r3, [r7, #4]
 8618 027a 5B09     		lsrs	r3, r3, #5
 8619 027c 1A00     		movs	r2, r3
 8620 027e 0123     		movs	r3, #1
 8621 0280 1340     		ands	r3, r2
 8622 0282 05D0     		beq	.L507
 8623 0284 3A69     		ldr	r2, [r7, #16]
 8624 0286 FB68     		ldr	r3, [r7, #12]
 8625 0288 1100     		movs	r1, r2
 8626 028a 1800     		movs	r0, r3
 8627 028c FFF7FEFF 		bl	I2C_ITMasterCplt
 8628              	.L507:
 8629 0290 FB68     		ldr	r3, [r7, #12]
 8630 0292 4022     		movs	r2, #64
 8631 0294 0021     		movs	r1, #0
 8632 0296 9954     		strb	r1, [r3, r2]
 8633 0298 0023     		movs	r3, #0
 8634              	.L489:
 8635 029a 1800     		movs	r0, r3
 8636 029c BD46     		mov	sp, r7
 8637 029e 07B0     		add	sp, sp, #28
 8638              		@ sp needed
 8639 02a0 90BD     		pop	{r4, r7, pc}
 8640              	.L509:
 8641 02a2 C046     		.align	2
 8642              	.L508:
 8643 02a4 00200080 		.word	-2147475456
 8644 02a8 00240080 		.word	-2147474432
 8646              		.section	.text.I2C_Slave_ISR_IT,"ax",%progbits
 8647              		.align	1
 8648              		.syntax unified
 8649              		.code	16
 8650              		.thumb_func
 8652              	I2C_Slave_ISR_IT:
 8653              		@ args = 0, pretend = 0, frame = 24
ARM GAS  /tmp/ccnCrYSN.s 			page 151


 8654              		@ frame_needed = 1, uses_anonymous_args = 0
 8655 0000 80B5     		push	{r7, lr}
 8656 0002 86B0     		sub	sp, sp, #24
 8657 0004 00AF     		add	r7, sp, #0
 8658 0006 F860     		str	r0, [r7, #12]
 8659 0008 B960     		str	r1, [r7, #8]
 8660 000a 7A60     		str	r2, [r7, #4]
 8661 000c FB68     		ldr	r3, [r7, #12]
 8662 000e DB6A     		ldr	r3, [r3, #44]
 8663 0010 7B61     		str	r3, [r7, #20]
 8664 0012 BB68     		ldr	r3, [r7, #8]
 8665 0014 3B61     		str	r3, [r7, #16]
 8666 0016 FB68     		ldr	r3, [r7, #12]
 8667 0018 4022     		movs	r2, #64
 8668 001a 9B5C     		ldrb	r3, [r3, r2]
 8669 001c 012B     		cmp	r3, #1
 8670 001e 01D1     		bne	.L511
 8671 0020 0223     		movs	r3, #2
 8672 0022 FBE0     		b	.L512
 8673              	.L511:
 8674 0024 FB68     		ldr	r3, [r7, #12]
 8675 0026 4022     		movs	r2, #64
 8676 0028 0121     		movs	r1, #1
 8677 002a 9954     		strb	r1, [r3, r2]
 8678 002c 3B69     		ldr	r3, [r7, #16]
 8679 002e 5B09     		lsrs	r3, r3, #5
 8680 0030 1A00     		movs	r2, r3
 8681 0032 0123     		movs	r3, #1
 8682 0034 1340     		ands	r3, r2
 8683 0036 0CD0     		beq	.L513
 8684 0038 7B68     		ldr	r3, [r7, #4]
 8685 003a 5B09     		lsrs	r3, r3, #5
 8686 003c 1A00     		movs	r2, r3
 8687 003e 0123     		movs	r3, #1
 8688 0040 1340     		ands	r3, r2
 8689 0042 06D0     		beq	.L513
 8690 0044 3A69     		ldr	r2, [r7, #16]
 8691 0046 FB68     		ldr	r3, [r7, #12]
 8692 0048 1100     		movs	r1, r2
 8693 004a 1800     		movs	r0, r3
 8694 004c FFF7FEFF 		bl	I2C_ITSlaveCplt
 8695 0050 DFE0     		b	.L514
 8696              	.L513:
 8697 0052 3B69     		ldr	r3, [r7, #16]
 8698 0054 1B09     		lsrs	r3, r3, #4
 8699 0056 1A00     		movs	r2, r3
 8700 0058 0123     		movs	r3, #1
 8701 005a 1340     		ands	r3, r2
 8702 005c 54D0     		beq	.L515
 8703 005e 7B68     		ldr	r3, [r7, #4]
 8704 0060 1B09     		lsrs	r3, r3, #4
 8705 0062 1A00     		movs	r2, r3
 8706 0064 0123     		movs	r3, #1
 8707 0066 1340     		ands	r3, r2
 8708 0068 4ED0     		beq	.L515
 8709 006a FB68     		ldr	r3, [r7, #12]
 8710 006c 5B8D     		ldrh	r3, [r3, #42]
ARM GAS  /tmp/ccnCrYSN.s 			page 152


 8711 006e 9BB2     		uxth	r3, r3
 8712 0070 002B     		cmp	r3, #0
 8713 0072 2DD1     		bne	.L516
 8714 0074 FB68     		ldr	r3, [r7, #12]
 8715 0076 4122     		movs	r2, #65
 8716 0078 9B5C     		ldrb	r3, [r3, r2]
 8717 007a DBB2     		uxtb	r3, r3
 8718 007c 282B     		cmp	r3, #40
 8719 007e 0BD1     		bne	.L517
 8720 0080 7A69     		ldr	r2, [r7, #20]
 8721 0082 8023     		movs	r3, #128
 8722 0084 9B04     		lsls	r3, r3, #18
 8723 0086 9A42     		cmp	r2, r3
 8724 0088 06D1     		bne	.L517
 8725 008a 3A69     		ldr	r2, [r7, #16]
 8726 008c FB68     		ldr	r3, [r7, #12]
 8727 008e 1100     		movs	r1, r2
 8728 0090 1800     		movs	r0, r3
 8729 0092 FFF7FEFF 		bl	I2C_ITListenCplt
 8730 0096 36E0     		b	.L520
 8731              	.L517:
 8732 0098 FB68     		ldr	r3, [r7, #12]
 8733 009a 4122     		movs	r2, #65
 8734 009c 9B5C     		ldrb	r3, [r3, r2]
 8735 009e DBB2     		uxtb	r3, r3
 8736 00a0 292B     		cmp	r3, #41
 8737 00a2 10D1     		bne	.L519
 8738 00a4 7B69     		ldr	r3, [r7, #20]
 8739 00a6 5F4A     		ldr	r2, .L530
 8740 00a8 9342     		cmp	r3, r2
 8741 00aa 0CD0     		beq	.L519
 8742 00ac FB68     		ldr	r3, [r7, #12]
 8743 00ae 1B68     		ldr	r3, [r3]
 8744 00b0 1022     		movs	r2, #16
 8745 00b2 DA61     		str	r2, [r3, #28]
 8746 00b4 FB68     		ldr	r3, [r7, #12]
 8747 00b6 1800     		movs	r0, r3
 8748 00b8 FFF7FEFF 		bl	I2C_Flush_TXDR
 8749 00bc FB68     		ldr	r3, [r7, #12]
 8750 00be 1800     		movs	r0, r3
 8751 00c0 FFF7FEFF 		bl	I2C_ITSlaveSeqCplt
 8752 00c4 1FE0     		b	.L520
 8753              	.L519:
 8754 00c6 FB68     		ldr	r3, [r7, #12]
 8755 00c8 1B68     		ldr	r3, [r3]
 8756 00ca 1022     		movs	r2, #16
 8757 00cc DA61     		str	r2, [r3, #28]
 8758 00ce 9DE0     		b	.L528
 8759              	.L516:
 8760 00d0 FB68     		ldr	r3, [r7, #12]
 8761 00d2 1B68     		ldr	r3, [r3]
 8762 00d4 1022     		movs	r2, #16
 8763 00d6 DA61     		str	r2, [r3, #28]
 8764 00d8 FB68     		ldr	r3, [r7, #12]
 8765 00da 5B6C     		ldr	r3, [r3, #68]
 8766 00dc 0422     		movs	r2, #4
 8767 00de 1A43     		orrs	r2, r3
ARM GAS  /tmp/ccnCrYSN.s 			page 153


 8768 00e0 FB68     		ldr	r3, [r7, #12]
 8769 00e2 5A64     		str	r2, [r3, #68]
 8770 00e4 7B69     		ldr	r3, [r7, #20]
 8771 00e6 002B     		cmp	r3, #0
 8772 00e8 05D0     		beq	.L521
 8773 00ea 7A69     		ldr	r2, [r7, #20]
 8774 00ec 8023     		movs	r3, #128
 8775 00ee 5B04     		lsls	r3, r3, #17
 8776 00f0 9A42     		cmp	r2, r3
 8777 00f2 00D0     		beq	.LCB9406
 8778 00f4 8AE0     		b	.L528	@long jump
 8779              	.LCB9406:
 8780              	.L521:
 8781 00f6 FB68     		ldr	r3, [r7, #12]
 8782 00f8 5A6C     		ldr	r2, [r3, #68]
 8783 00fa FB68     		ldr	r3, [r7, #12]
 8784 00fc 1100     		movs	r1, r2
 8785 00fe 1800     		movs	r0, r3
 8786 0100 FFF7FEFF 		bl	I2C_ITError
 8787 0104 82E0     		b	.L528
 8788              	.L520:
 8789 0106 81E0     		b	.L528
 8790              	.L515:
 8791 0108 3B69     		ldr	r3, [r7, #16]
 8792 010a 9B08     		lsrs	r3, r3, #2
 8793 010c 1A00     		movs	r2, r3
 8794 010e 0123     		movs	r3, #1
 8795 0110 1340     		ands	r3, r2
 8796 0112 31D0     		beq	.L522
 8797 0114 7B68     		ldr	r3, [r7, #4]
 8798 0116 9B08     		lsrs	r3, r3, #2
 8799 0118 1A00     		movs	r2, r3
 8800 011a 0123     		movs	r3, #1
 8801 011c 1340     		ands	r3, r2
 8802 011e 2BD0     		beq	.L522
 8803 0120 FB68     		ldr	r3, [r7, #12]
 8804 0122 5B8D     		ldrh	r3, [r3, #42]
 8805 0124 9BB2     		uxth	r3, r3
 8806 0126 002B     		cmp	r3, #0
 8807 0128 18D0     		beq	.L523
 8808 012a FB68     		ldr	r3, [r7, #12]
 8809 012c 1B68     		ldr	r3, [r3]
 8810 012e 5A6A     		ldr	r2, [r3, #36]
 8811 0130 FB68     		ldr	r3, [r7, #12]
 8812 0132 5B6A     		ldr	r3, [r3, #36]
 8813 0134 D2B2     		uxtb	r2, r2
 8814 0136 1A70     		strb	r2, [r3]
 8815 0138 FB68     		ldr	r3, [r7, #12]
 8816 013a 5B6A     		ldr	r3, [r3, #36]
 8817 013c 5A1C     		adds	r2, r3, #1
 8818 013e FB68     		ldr	r3, [r7, #12]
 8819 0140 5A62     		str	r2, [r3, #36]
 8820 0142 FB68     		ldr	r3, [r7, #12]
 8821 0144 1B8D     		ldrh	r3, [r3, #40]
 8822 0146 013B     		subs	r3, r3, #1
 8823 0148 9AB2     		uxth	r2, r3
 8824 014a FB68     		ldr	r3, [r7, #12]
ARM GAS  /tmp/ccnCrYSN.s 			page 154


 8825 014c 1A85     		strh	r2, [r3, #40]
 8826 014e FB68     		ldr	r3, [r7, #12]
 8827 0150 5B8D     		ldrh	r3, [r3, #42]
 8828 0152 9BB2     		uxth	r3, r3
 8829 0154 013B     		subs	r3, r3, #1
 8830 0156 9AB2     		uxth	r2, r3
 8831 0158 FB68     		ldr	r3, [r7, #12]
 8832 015a 5A85     		strh	r2, [r3, #42]
 8833              	.L523:
 8834 015c FB68     		ldr	r3, [r7, #12]
 8835 015e 5B8D     		ldrh	r3, [r3, #42]
 8836 0160 9BB2     		uxth	r3, r3
 8837 0162 002B     		cmp	r3, #0
 8838 0164 54D1     		bne	.L529
 8839 0166 7B69     		ldr	r3, [r7, #20]
 8840 0168 2E4A     		ldr	r2, .L530
 8841 016a 9342     		cmp	r3, r2
 8842 016c 50D0     		beq	.L529
 8843 016e FB68     		ldr	r3, [r7, #12]
 8844 0170 1800     		movs	r0, r3
 8845 0172 FFF7FEFF 		bl	I2C_ITSlaveSeqCplt
 8846 0176 4BE0     		b	.L529
 8847              	.L522:
 8848 0178 3B69     		ldr	r3, [r7, #16]
 8849 017a DB08     		lsrs	r3, r3, #3
 8850 017c 1A00     		movs	r2, r3
 8851 017e 0123     		movs	r3, #1
 8852 0180 1340     		ands	r3, r2
 8853 0182 0CD0     		beq	.L525
 8854 0184 7B68     		ldr	r3, [r7, #4]
 8855 0186 DB08     		lsrs	r3, r3, #3
 8856 0188 1A00     		movs	r2, r3
 8857 018a 0123     		movs	r3, #1
 8858 018c 1340     		ands	r3, r2
 8859 018e 06D0     		beq	.L525
 8860 0190 3A69     		ldr	r2, [r7, #16]
 8861 0192 FB68     		ldr	r3, [r7, #12]
 8862 0194 1100     		movs	r1, r2
 8863 0196 1800     		movs	r0, r3
 8864 0198 FFF7FEFF 		bl	I2C_ITAddrCplt
 8865 019c 39E0     		b	.L514
 8866              	.L525:
 8867 019e 3B69     		ldr	r3, [r7, #16]
 8868 01a0 5B08     		lsrs	r3, r3, #1
 8869 01a2 1A00     		movs	r2, r3
 8870 01a4 0123     		movs	r3, #1
 8871 01a6 1340     		ands	r3, r2
 8872 01a8 33D0     		beq	.L514
 8873 01aa 7B68     		ldr	r3, [r7, #4]
 8874 01ac 5B08     		lsrs	r3, r3, #1
 8875 01ae 1A00     		movs	r2, r3
 8876 01b0 0123     		movs	r3, #1
 8877 01b2 1340     		ands	r3, r2
 8878 01b4 2DD0     		beq	.L514
 8879 01b6 FB68     		ldr	r3, [r7, #12]
 8880 01b8 5B8D     		ldrh	r3, [r3, #42]
 8881 01ba 9BB2     		uxth	r3, r3
ARM GAS  /tmp/ccnCrYSN.s 			page 155


 8882 01bc 002B     		cmp	r3, #0
 8883 01be 18D0     		beq	.L526
 8884 01c0 FB68     		ldr	r3, [r7, #12]
 8885 01c2 5B6A     		ldr	r3, [r3, #36]
 8886 01c4 1A78     		ldrb	r2, [r3]
 8887 01c6 FB68     		ldr	r3, [r7, #12]
 8888 01c8 1B68     		ldr	r3, [r3]
 8889 01ca 9A62     		str	r2, [r3, #40]
 8890 01cc FB68     		ldr	r3, [r7, #12]
 8891 01ce 5B6A     		ldr	r3, [r3, #36]
 8892 01d0 5A1C     		adds	r2, r3, #1
 8893 01d2 FB68     		ldr	r3, [r7, #12]
 8894 01d4 5A62     		str	r2, [r3, #36]
 8895 01d6 FB68     		ldr	r3, [r7, #12]
 8896 01d8 5B8D     		ldrh	r3, [r3, #42]
 8897 01da 9BB2     		uxth	r3, r3
 8898 01dc 013B     		subs	r3, r3, #1
 8899 01de 9AB2     		uxth	r2, r3
 8900 01e0 FB68     		ldr	r3, [r7, #12]
 8901 01e2 5A85     		strh	r2, [r3, #42]
 8902 01e4 FB68     		ldr	r3, [r7, #12]
 8903 01e6 1B8D     		ldrh	r3, [r3, #40]
 8904 01e8 013B     		subs	r3, r3, #1
 8905 01ea 9AB2     		uxth	r2, r3
 8906 01ec FB68     		ldr	r3, [r7, #12]
 8907 01ee 1A85     		strh	r2, [r3, #40]
 8908 01f0 0FE0     		b	.L514
 8909              	.L526:
 8910 01f2 7A69     		ldr	r2, [r7, #20]
 8911 01f4 8023     		movs	r3, #128
 8912 01f6 5B04     		lsls	r3, r3, #17
 8913 01f8 9A42     		cmp	r2, r3
 8914 01fa 02D0     		beq	.L527
 8915 01fc 7B69     		ldr	r3, [r7, #20]
 8916 01fe 002B     		cmp	r3, #0
 8917 0200 07D1     		bne	.L514
 8918              	.L527:
 8919 0202 FB68     		ldr	r3, [r7, #12]
 8920 0204 1800     		movs	r0, r3
 8921 0206 FFF7FEFF 		bl	I2C_ITSlaveSeqCplt
 8922 020a 02E0     		b	.L514
 8923              	.L528:
 8924 020c C046     		nop
 8925 020e 00E0     		b	.L514
 8926              	.L529:
 8927 0210 C046     		nop
 8928              	.L514:
 8929 0212 FB68     		ldr	r3, [r7, #12]
 8930 0214 4022     		movs	r2, #64
 8931 0216 0021     		movs	r1, #0
 8932 0218 9954     		strb	r1, [r3, r2]
 8933 021a 0023     		movs	r3, #0
 8934              	.L512:
 8935 021c 1800     		movs	r0, r3
 8936 021e BD46     		mov	sp, r7
 8937 0220 06B0     		add	sp, sp, #24
 8938              		@ sp needed
ARM GAS  /tmp/ccnCrYSN.s 			page 156


 8939 0222 80BD     		pop	{r7, pc}
 8940              	.L531:
 8941              		.align	2
 8942              	.L530:
 8943 0224 0000FFFF 		.word	-65536
 8945              		.section	.text.I2C_Master_ISR_DMA,"ax",%progbits
 8946              		.align	1
 8947              		.syntax unified
 8948              		.code	16
 8949              		.thumb_func
 8951              	I2C_Master_ISR_DMA:
 8952              		@ args = 0, pretend = 0, frame = 24
 8953              		@ frame_needed = 1, uses_anonymous_args = 0
 8954 0000 90B5     		push	{r4, r7, lr}
 8955 0002 89B0     		sub	sp, sp, #36
 8956 0004 02AF     		add	r7, sp, #8
 8957 0006 F860     		str	r0, [r7, #12]
 8958 0008 B960     		str	r1, [r7, #8]
 8959 000a 7A60     		str	r2, [r7, #4]
 8960 000c FB68     		ldr	r3, [r7, #12]
 8961 000e 4022     		movs	r2, #64
 8962 0010 9B5C     		ldrb	r3, [r3, r2]
 8963 0012 012B     		cmp	r3, #1
 8964 0014 01D1     		bne	.L533
 8965 0016 0223     		movs	r3, #2
 8966 0018 05E1     		b	.L534
 8967              	.L533:
 8968 001a FB68     		ldr	r3, [r7, #12]
 8969 001c 4022     		movs	r2, #64
 8970 001e 0121     		movs	r1, #1
 8971 0020 9954     		strb	r1, [r3, r2]
 8972 0022 BB68     		ldr	r3, [r7, #8]
 8973 0024 1B09     		lsrs	r3, r3, #4
 8974 0026 1A00     		movs	r2, r3
 8975 0028 0123     		movs	r3, #1
 8976 002a 1340     		ands	r3, r2
 8977 002c 19D0     		beq	.L535
 8978 002e 7B68     		ldr	r3, [r7, #4]
 8979 0030 1B09     		lsrs	r3, r3, #4
 8980 0032 1A00     		movs	r2, r3
 8981 0034 0123     		movs	r3, #1
 8982 0036 1340     		ands	r3, r2
 8983 0038 13D0     		beq	.L535
 8984 003a FB68     		ldr	r3, [r7, #12]
 8985 003c 1B68     		ldr	r3, [r3]
 8986 003e 1022     		movs	r2, #16
 8987 0040 DA61     		str	r2, [r3, #28]
 8988 0042 FB68     		ldr	r3, [r7, #12]
 8989 0044 5B6C     		ldr	r3, [r3, #68]
 8990 0046 0422     		movs	r2, #4
 8991 0048 1A43     		orrs	r2, r3
 8992 004a FB68     		ldr	r3, [r7, #12]
 8993 004c 5A64     		str	r2, [r3, #68]
 8994 004e FB68     		ldr	r3, [r7, #12]
 8995 0050 2021     		movs	r1, #32
 8996 0052 1800     		movs	r0, r3
 8997 0054 FFF7FEFF 		bl	I2C_Enable_IRQ
ARM GAS  /tmp/ccnCrYSN.s 			page 157


 8998 0058 FB68     		ldr	r3, [r7, #12]
 8999 005a 1800     		movs	r0, r3
 9000 005c FFF7FEFF 		bl	I2C_Flush_TXDR
 9001 0060 DCE0     		b	.L536
 9002              	.L535:
 9003 0062 BB68     		ldr	r3, [r7, #8]
 9004 0064 DB09     		lsrs	r3, r3, #7
 9005 0066 1A00     		movs	r2, r3
 9006 0068 0123     		movs	r3, #1
 9007 006a 1340     		ands	r3, r2
 9008 006c 00D1     		bne	.LCB9667
 9009 006e 8CE0     		b	.L537	@long jump
 9010              	.LCB9667:
 9011 0070 7B68     		ldr	r3, [r7, #4]
 9012 0072 9B09     		lsrs	r3, r3, #6
 9013 0074 1A00     		movs	r2, r3
 9014 0076 0123     		movs	r3, #1
 9015 0078 1340     		ands	r3, r2
 9016 007a 00D1     		bne	.LCB9674
 9017 007c 85E0     		b	.L537	@long jump
 9018              	.LCB9674:
 9019 007e FB68     		ldr	r3, [r7, #12]
 9020 0080 1B68     		ldr	r3, [r3]
 9021 0082 1A68     		ldr	r2, [r3]
 9022 0084 FB68     		ldr	r3, [r7, #12]
 9023 0086 1B68     		ldr	r3, [r3]
 9024 0088 4021     		movs	r1, #64
 9025 008a 8A43     		bics	r2, r1
 9026 008c 1A60     		str	r2, [r3]
 9027 008e FB68     		ldr	r3, [r7, #12]
 9028 0090 5B8D     		ldrh	r3, [r3, #42]
 9029 0092 9BB2     		uxth	r3, r3
 9030 0094 002B     		cmp	r3, #0
 9031 0096 63D0     		beq	.L538
 9032 0098 FB68     		ldr	r3, [r7, #12]
 9033 009a 1B68     		ldr	r3, [r3]
 9034 009c 5B68     		ldr	r3, [r3, #4]
 9035 009e 9AB2     		uxth	r2, r3
 9036 00a0 1223     		movs	r3, #18
 9037 00a2 FB18     		adds	r3, r7, r3
 9038 00a4 9205     		lsls	r2, r2, #22
 9039 00a6 920D     		lsrs	r2, r2, #22
 9040 00a8 1A80     		strh	r2, [r3]
 9041 00aa FB68     		ldr	r3, [r7, #12]
 9042 00ac 5B8D     		ldrh	r3, [r3, #42]
 9043 00ae 9BB2     		uxth	r3, r3
 9044 00b0 FF2B     		cmp	r3, #255
 9045 00b2 14D9     		bls	.L539
 9046 00b4 FB68     		ldr	r3, [r7, #12]
 9047 00b6 1B68     		ldr	r3, [r3]
 9048 00b8 9B69     		ldr	r3, [r3, #24]
 9049 00ba 1B0C     		lsrs	r3, r3, #16
 9050 00bc DBB2     		uxtb	r3, r3
 9051 00be 0122     		movs	r2, #1
 9052 00c0 1340     		ands	r3, r2
 9053 00c2 DBB2     		uxtb	r3, r3
 9054 00c4 012B     		cmp	r3, #1
ARM GAS  /tmp/ccnCrYSN.s 			page 158


 9055 00c6 03D1     		bne	.L540
 9056 00c8 FB68     		ldr	r3, [r7, #12]
 9057 00ca 0122     		movs	r2, #1
 9058 00cc 1A85     		strh	r2, [r3, #40]
 9059 00ce 02E0     		b	.L541
 9060              	.L540:
 9061 00d0 FB68     		ldr	r3, [r7, #12]
 9062 00d2 FF22     		movs	r2, #255
 9063 00d4 1A85     		strh	r2, [r3, #40]
 9064              	.L541:
 9065 00d6 8023     		movs	r3, #128
 9066 00d8 5B04     		lsls	r3, r3, #17
 9067 00da 7B61     		str	r3, [r7, #20]
 9068 00dc 10E0     		b	.L542
 9069              	.L539:
 9070 00de FB68     		ldr	r3, [r7, #12]
 9071 00e0 5B8D     		ldrh	r3, [r3, #42]
 9072 00e2 9AB2     		uxth	r2, r3
 9073 00e4 FB68     		ldr	r3, [r7, #12]
 9074 00e6 1A85     		strh	r2, [r3, #40]
 9075 00e8 FB68     		ldr	r3, [r7, #12]
 9076 00ea DB6A     		ldr	r3, [r3, #44]
 9077 00ec 504A     		ldr	r2, .L552
 9078 00ee 9342     		cmp	r3, r2
 9079 00f0 03D0     		beq	.L543
 9080 00f2 FB68     		ldr	r3, [r7, #12]
 9081 00f4 DB6A     		ldr	r3, [r3, #44]
 9082 00f6 7B61     		str	r3, [r7, #20]
 9083 00f8 02E0     		b	.L542
 9084              	.L543:
 9085 00fa 8023     		movs	r3, #128
 9086 00fc 9B04     		lsls	r3, r3, #18
 9087 00fe 7B61     		str	r3, [r7, #20]
 9088              	.L542:
 9089 0100 FB68     		ldr	r3, [r7, #12]
 9090 0102 1B8D     		ldrh	r3, [r3, #40]
 9091 0104 DAB2     		uxtb	r2, r3
 9092 0106 7C69     		ldr	r4, [r7, #20]
 9093 0108 1223     		movs	r3, #18
 9094 010a FB18     		adds	r3, r7, r3
 9095 010c 1988     		ldrh	r1, [r3]
 9096 010e F868     		ldr	r0, [r7, #12]
 9097 0110 0023     		movs	r3, #0
 9098 0112 0093     		str	r3, [sp]
 9099 0114 2300     		movs	r3, r4
 9100 0116 FFF7FEFF 		bl	I2C_TransferConfig
 9101 011a FB68     		ldr	r3, [r7, #12]
 9102 011c 5B8D     		ldrh	r3, [r3, #42]
 9103 011e 9AB2     		uxth	r2, r3
 9104 0120 FB68     		ldr	r3, [r7, #12]
 9105 0122 1B8D     		ldrh	r3, [r3, #40]
 9106 0124 D31A     		subs	r3, r2, r3
 9107 0126 9AB2     		uxth	r2, r3
 9108 0128 FB68     		ldr	r3, [r7, #12]
 9109 012a 5A85     		strh	r2, [r3, #42]
 9110 012c FB68     		ldr	r3, [r7, #12]
 9111 012e 4122     		movs	r2, #65
ARM GAS  /tmp/ccnCrYSN.s 			page 159


 9112 0130 9B5C     		ldrb	r3, [r3, r2]
 9113 0132 DBB2     		uxtb	r3, r3
 9114 0134 222B     		cmp	r3, #34
 9115 0136 09D1     		bne	.L544
 9116 0138 FB68     		ldr	r3, [r7, #12]
 9117 013a 1B68     		ldr	r3, [r3]
 9118 013c 1A68     		ldr	r2, [r3]
 9119 013e FB68     		ldr	r3, [r7, #12]
 9120 0140 1B68     		ldr	r3, [r3]
 9121 0142 8021     		movs	r1, #128
 9122 0144 0902     		lsls	r1, r1, #8
 9123 0146 0A43     		orrs	r2, r1
 9124 0148 1A60     		str	r2, [r3]
 9125 014a 67E0     		b	.L536
 9126              	.L544:
 9127 014c FB68     		ldr	r3, [r7, #12]
 9128 014e 1B68     		ldr	r3, [r3]
 9129 0150 1A68     		ldr	r2, [r3]
 9130 0152 FB68     		ldr	r3, [r7, #12]
 9131 0154 1B68     		ldr	r3, [r3]
 9132 0156 8021     		movs	r1, #128
 9133 0158 C901     		lsls	r1, r1, #7
 9134 015a 0A43     		orrs	r2, r1
 9135 015c 1A60     		str	r2, [r3]
 9136 015e 5DE0     		b	.L536
 9137              	.L538:
 9138 0160 FB68     		ldr	r3, [r7, #12]
 9139 0162 1B68     		ldr	r3, [r3]
 9140 0164 5A68     		ldr	r2, [r3, #4]
 9141 0166 8023     		movs	r3, #128
 9142 0168 9B04     		lsls	r3, r3, #18
 9143 016a 1A40     		ands	r2, r3
 9144 016c 8023     		movs	r3, #128
 9145 016e 9B04     		lsls	r3, r3, #18
 9146 0170 9A42     		cmp	r2, r3
 9147 0172 04D0     		beq	.L546
 9148 0174 FB68     		ldr	r3, [r7, #12]
 9149 0176 1800     		movs	r0, r3
 9150 0178 FFF7FEFF 		bl	I2C_ITMasterSeqCplt
 9151 017c 4EE0     		b	.L536
 9152              	.L546:
 9153 017e FB68     		ldr	r3, [r7, #12]
 9154 0180 4021     		movs	r1, #64
 9155 0182 1800     		movs	r0, r3
 9156 0184 FFF7FEFF 		bl	I2C_ITError
 9157 0188 48E0     		b	.L536
 9158              	.L537:
 9159 018a BB68     		ldr	r3, [r7, #8]
 9160 018c 9B09     		lsrs	r3, r3, #6
 9161 018e 1A00     		movs	r2, r3
 9162 0190 0123     		movs	r3, #1
 9163 0192 1340     		ands	r3, r2
 9164 0194 2ED0     		beq	.L547
 9165 0196 7B68     		ldr	r3, [r7, #4]
 9166 0198 9B09     		lsrs	r3, r3, #6
 9167 019a 1A00     		movs	r2, r3
 9168 019c 0123     		movs	r3, #1
ARM GAS  /tmp/ccnCrYSN.s 			page 160


 9169 019e 1340     		ands	r3, r2
 9170 01a0 28D0     		beq	.L547
 9171 01a2 FB68     		ldr	r3, [r7, #12]
 9172 01a4 5B8D     		ldrh	r3, [r3, #42]
 9173 01a6 9BB2     		uxth	r3, r3
 9174 01a8 002B     		cmp	r3, #0
 9175 01aa 1DD1     		bne	.L548
 9176 01ac FB68     		ldr	r3, [r7, #12]
 9177 01ae 1B68     		ldr	r3, [r3]
 9178 01b0 5A68     		ldr	r2, [r3, #4]
 9179 01b2 8023     		movs	r3, #128
 9180 01b4 9B04     		lsls	r3, r3, #18
 9181 01b6 1A40     		ands	r2, r3
 9182 01b8 8023     		movs	r3, #128
 9183 01ba 9B04     		lsls	r3, r3, #18
 9184 01bc 9A42     		cmp	r2, r3
 9185 01be 2CD0     		beq	.L551
 9186 01c0 FB68     		ldr	r3, [r7, #12]
 9187 01c2 DB6A     		ldr	r3, [r3, #44]
 9188 01c4 1A4A     		ldr	r2, .L552
 9189 01c6 9342     		cmp	r3, r2
 9190 01c8 09D1     		bne	.L550
 9191 01ca FB68     		ldr	r3, [r7, #12]
 9192 01cc 1B68     		ldr	r3, [r3]
 9193 01ce 5A68     		ldr	r2, [r3, #4]
 9194 01d0 FB68     		ldr	r3, [r7, #12]
 9195 01d2 1B68     		ldr	r3, [r3]
 9196 01d4 8021     		movs	r1, #128
 9197 01d6 C901     		lsls	r1, r1, #7
 9198 01d8 0A43     		orrs	r2, r1
 9199 01da 5A60     		str	r2, [r3, #4]
 9200 01dc 1DE0     		b	.L551
 9201              	.L550:
 9202 01de FB68     		ldr	r3, [r7, #12]
 9203 01e0 1800     		movs	r0, r3
 9204 01e2 FFF7FEFF 		bl	I2C_ITMasterSeqCplt
 9205 01e6 18E0     		b	.L551
 9206              	.L548:
 9207 01e8 FB68     		ldr	r3, [r7, #12]
 9208 01ea 4021     		movs	r1, #64
 9209 01ec 1800     		movs	r0, r3
 9210 01ee FFF7FEFF 		bl	I2C_ITError
 9211 01f2 12E0     		b	.L551
 9212              	.L547:
 9213 01f4 BB68     		ldr	r3, [r7, #8]
 9214 01f6 5B09     		lsrs	r3, r3, #5
 9215 01f8 1A00     		movs	r2, r3
 9216 01fa 0123     		movs	r3, #1
 9217 01fc 1340     		ands	r3, r2
 9218 01fe 0DD0     		beq	.L536
 9219 0200 7B68     		ldr	r3, [r7, #4]
 9220 0202 5B09     		lsrs	r3, r3, #5
 9221 0204 1A00     		movs	r2, r3
 9222 0206 0123     		movs	r3, #1
 9223 0208 1340     		ands	r3, r2
 9224 020a 07D0     		beq	.L536
 9225 020c BA68     		ldr	r2, [r7, #8]
ARM GAS  /tmp/ccnCrYSN.s 			page 161


 9226 020e FB68     		ldr	r3, [r7, #12]
 9227 0210 1100     		movs	r1, r2
 9228 0212 1800     		movs	r0, r3
 9229 0214 FFF7FEFF 		bl	I2C_ITMasterCplt
 9230 0218 00E0     		b	.L536
 9231              	.L551:
 9232 021a C046     		nop
 9233              	.L536:
 9234 021c FB68     		ldr	r3, [r7, #12]
 9235 021e 4022     		movs	r2, #64
 9236 0220 0021     		movs	r1, #0
 9237 0222 9954     		strb	r1, [r3, r2]
 9238 0224 0023     		movs	r3, #0
 9239              	.L534:
 9240 0226 1800     		movs	r0, r3
 9241 0228 BD46     		mov	sp, r7
 9242 022a 07B0     		add	sp, sp, #28
 9243              		@ sp needed
 9244 022c 90BD     		pop	{r4, r7, pc}
 9245              	.L553:
 9246 022e C046     		.align	2
 9247              	.L552:
 9248 0230 0000FFFF 		.word	-65536
 9250              		.section	.text.I2C_Mem_ISR_DMA,"ax",%progbits
 9251              		.align	1
 9252              		.syntax unified
 9253              		.code	16
 9254              		.thumb_func
 9256              	I2C_Mem_ISR_DMA:
 9257              		@ args = 0, pretend = 0, frame = 24
 9258              		@ frame_needed = 1, uses_anonymous_args = 0
 9259 0000 90B5     		push	{r4, r7, lr}
 9260 0002 89B0     		sub	sp, sp, #36
 9261 0004 02AF     		add	r7, sp, #8
 9262 0006 F860     		str	r0, [r7, #12]
 9263 0008 B960     		str	r1, [r7, #8]
 9264 000a 7A60     		str	r2, [r7, #4]
 9265 000c A94B     		ldr	r3, .L576
 9266 000e 7B61     		str	r3, [r7, #20]
 9267 0010 FB68     		ldr	r3, [r7, #12]
 9268 0012 4022     		movs	r2, #64
 9269 0014 9B5C     		ldrb	r3, [r3, r2]
 9270 0016 012B     		cmp	r3, #1
 9271 0018 01D1     		bne	.L555
 9272 001a 0223     		movs	r3, #2
 9273 001c 46E1     		b	.L556
 9274              	.L555:
 9275 001e FB68     		ldr	r3, [r7, #12]
 9276 0020 4022     		movs	r2, #64
 9277 0022 0121     		movs	r1, #1
 9278 0024 9954     		strb	r1, [r3, r2]
 9279 0026 BB68     		ldr	r3, [r7, #8]
 9280 0028 1B09     		lsrs	r3, r3, #4
 9281 002a 1A00     		movs	r2, r3
 9282 002c 0123     		movs	r3, #1
 9283 002e 1340     		ands	r3, r2
 9284 0030 19D0     		beq	.L557
ARM GAS  /tmp/ccnCrYSN.s 			page 162


 9285 0032 7B68     		ldr	r3, [r7, #4]
 9286 0034 1B09     		lsrs	r3, r3, #4
 9287 0036 1A00     		movs	r2, r3
 9288 0038 0123     		movs	r3, #1
 9289 003a 1340     		ands	r3, r2
 9290 003c 13D0     		beq	.L557
 9291 003e FB68     		ldr	r3, [r7, #12]
 9292 0040 1B68     		ldr	r3, [r3]
 9293 0042 1022     		movs	r2, #16
 9294 0044 DA61     		str	r2, [r3, #28]
 9295 0046 FB68     		ldr	r3, [r7, #12]
 9296 0048 5B6C     		ldr	r3, [r3, #68]
 9297 004a 0422     		movs	r2, #4
 9298 004c 1A43     		orrs	r2, r3
 9299 004e FB68     		ldr	r3, [r7, #12]
 9300 0050 5A64     		str	r2, [r3, #68]
 9301 0052 FB68     		ldr	r3, [r7, #12]
 9302 0054 2021     		movs	r1, #32
 9303 0056 1800     		movs	r0, r3
 9304 0058 FFF7FEFF 		bl	I2C_Enable_IRQ
 9305 005c FB68     		ldr	r3, [r7, #12]
 9306 005e 1800     		movs	r0, r3
 9307 0060 FFF7FEFF 		bl	I2C_Flush_TXDR
 9308 0064 1DE1     		b	.L558
 9309              	.L557:
 9310 0066 BB68     		ldr	r3, [r7, #8]
 9311 0068 5B08     		lsrs	r3, r3, #1
 9312 006a 1A00     		movs	r2, r3
 9313 006c 0123     		movs	r3, #1
 9314 006e 1340     		ands	r3, r2
 9315 0070 0FD0     		beq	.L559
 9316 0072 7B68     		ldr	r3, [r7, #4]
 9317 0074 5B08     		lsrs	r3, r3, #1
 9318 0076 1A00     		movs	r2, r3
 9319 0078 0123     		movs	r3, #1
 9320 007a 1340     		ands	r3, r2
 9321 007c 09D0     		beq	.L559
 9322 007e FB68     		ldr	r3, [r7, #12]
 9323 0080 1B68     		ldr	r3, [r3]
 9324 0082 FA68     		ldr	r2, [r7, #12]
 9325 0084 126D     		ldr	r2, [r2, #80]
 9326 0086 9A62     		str	r2, [r3, #40]
 9327 0088 FB68     		ldr	r3, [r7, #12]
 9328 008a 0122     		movs	r2, #1
 9329 008c 5242     		rsbs	r2, r2, #0
 9330 008e 1A65     		str	r2, [r3, #80]
 9331 0090 07E1     		b	.L558
 9332              	.L559:
 9333 0092 BB68     		ldr	r3, [r7, #8]
 9334 0094 DB09     		lsrs	r3, r3, #7
 9335 0096 1A00     		movs	r2, r3
 9336 0098 0123     		movs	r3, #1
 9337 009a 1340     		ands	r3, r2
 9338 009c 00D1     		bne	.LCB10038
 9339 009e 74E0     		b	.L560	@long jump
 9340              	.LCB10038:
 9341 00a0 7B68     		ldr	r3, [r7, #4]
ARM GAS  /tmp/ccnCrYSN.s 			page 163


 9342 00a2 9B09     		lsrs	r3, r3, #6
 9343 00a4 1A00     		movs	r2, r3
 9344 00a6 0123     		movs	r3, #1
 9345 00a8 1340     		ands	r3, r2
 9346 00aa 00D1     		bne	.LCB10045
 9347 00ac 6DE0     		b	.L560	@long jump
 9348              	.LCB10045:
 9349 00ae FB68     		ldr	r3, [r7, #12]
 9350 00b0 0121     		movs	r1, #1
 9351 00b2 1800     		movs	r0, r3
 9352 00b4 FFF7FEFF 		bl	I2C_Disable_IRQ
 9353 00b8 FB68     		ldr	r3, [r7, #12]
 9354 00ba 1021     		movs	r1, #16
 9355 00bc 1800     		movs	r0, r3
 9356 00be FFF7FEFF 		bl	I2C_Enable_IRQ
 9357 00c2 FB68     		ldr	r3, [r7, #12]
 9358 00c4 5B8D     		ldrh	r3, [r3, #42]
 9359 00c6 9BB2     		uxth	r3, r3
 9360 00c8 002B     		cmp	r3, #0
 9361 00ca 58D0     		beq	.L561
 9362 00cc FB68     		ldr	r3, [r7, #12]
 9363 00ce 5B8D     		ldrh	r3, [r3, #42]
 9364 00d0 9BB2     		uxth	r3, r3
 9365 00d2 FF2B     		cmp	r3, #255
 9366 00d4 1ED9     		bls	.L562
 9367 00d6 FB68     		ldr	r3, [r7, #12]
 9368 00d8 1B68     		ldr	r3, [r3]
 9369 00da 9B69     		ldr	r3, [r3, #24]
 9370 00dc 1B0C     		lsrs	r3, r3, #16
 9371 00de DBB2     		uxtb	r3, r3
 9372 00e0 0122     		movs	r2, #1
 9373 00e2 1340     		ands	r3, r2
 9374 00e4 DBB2     		uxtb	r3, r3
 9375 00e6 012B     		cmp	r3, #1
 9376 00e8 03D1     		bne	.L563
 9377 00ea FB68     		ldr	r3, [r7, #12]
 9378 00ec 0122     		movs	r2, #1
 9379 00ee 1A85     		strh	r2, [r3, #40]
 9380 00f0 02E0     		b	.L564
 9381              	.L563:
 9382 00f2 FB68     		ldr	r3, [r7, #12]
 9383 00f4 FF22     		movs	r2, #255
 9384 00f6 1A85     		strh	r2, [r3, #40]
 9385              	.L564:
 9386 00f8 FB68     		ldr	r3, [r7, #12]
 9387 00fa DB6C     		ldr	r3, [r3, #76]
 9388 00fc 99B2     		uxth	r1, r3
 9389 00fe FB68     		ldr	r3, [r7, #12]
 9390 0100 1B8D     		ldrh	r3, [r3, #40]
 9391 0102 DAB2     		uxtb	r2, r3
 9392 0104 8023     		movs	r3, #128
 9393 0106 5B04     		lsls	r3, r3, #17
 9394 0108 F868     		ldr	r0, [r7, #12]
 9395 010a 0024     		movs	r4, #0
 9396 010c 0094     		str	r4, [sp]
 9397 010e FFF7FEFF 		bl	I2C_TransferConfig
 9398 0112 11E0     		b	.L565
ARM GAS  /tmp/ccnCrYSN.s 			page 164


 9399              	.L562:
 9400 0114 FB68     		ldr	r3, [r7, #12]
 9401 0116 5B8D     		ldrh	r3, [r3, #42]
 9402 0118 9AB2     		uxth	r2, r3
 9403 011a FB68     		ldr	r3, [r7, #12]
 9404 011c 1A85     		strh	r2, [r3, #40]
 9405 011e FB68     		ldr	r3, [r7, #12]
 9406 0120 DB6C     		ldr	r3, [r3, #76]
 9407 0122 99B2     		uxth	r1, r3
 9408 0124 FB68     		ldr	r3, [r7, #12]
 9409 0126 1B8D     		ldrh	r3, [r3, #40]
 9410 0128 DAB2     		uxtb	r2, r3
 9411 012a 8023     		movs	r3, #128
 9412 012c 9B04     		lsls	r3, r3, #18
 9413 012e F868     		ldr	r0, [r7, #12]
 9414 0130 0024     		movs	r4, #0
 9415 0132 0094     		str	r4, [sp]
 9416 0134 FFF7FEFF 		bl	I2C_TransferConfig
 9417              	.L565:
 9418 0138 FB68     		ldr	r3, [r7, #12]
 9419 013a 5B8D     		ldrh	r3, [r3, #42]
 9420 013c 9AB2     		uxth	r2, r3
 9421 013e FB68     		ldr	r3, [r7, #12]
 9422 0140 1B8D     		ldrh	r3, [r3, #40]
 9423 0142 D31A     		subs	r3, r2, r3
 9424 0144 9AB2     		uxth	r2, r3
 9425 0146 FB68     		ldr	r3, [r7, #12]
 9426 0148 5A85     		strh	r2, [r3, #42]
 9427 014a FB68     		ldr	r3, [r7, #12]
 9428 014c 4122     		movs	r2, #65
 9429 014e 9B5C     		ldrb	r3, [r3, r2]
 9430 0150 DBB2     		uxtb	r3, r3
 9431 0152 222B     		cmp	r3, #34
 9432 0154 09D1     		bne	.L566
 9433 0156 FB68     		ldr	r3, [r7, #12]
 9434 0158 1B68     		ldr	r3, [r3]
 9435 015a 1A68     		ldr	r2, [r3]
 9436 015c FB68     		ldr	r3, [r7, #12]
 9437 015e 1B68     		ldr	r3, [r3]
 9438 0160 8021     		movs	r1, #128
 9439 0162 0902     		lsls	r1, r1, #8
 9440 0164 0A43     		orrs	r2, r1
 9441 0166 1A60     		str	r2, [r3]
 9442 0168 9BE0     		b	.L558
 9443              	.L566:
 9444 016a FB68     		ldr	r3, [r7, #12]
 9445 016c 1B68     		ldr	r3, [r3]
 9446 016e 1A68     		ldr	r2, [r3]
 9447 0170 FB68     		ldr	r3, [r7, #12]
 9448 0172 1B68     		ldr	r3, [r3]
 9449 0174 8021     		movs	r1, #128
 9450 0176 C901     		lsls	r1, r1, #7
 9451 0178 0A43     		orrs	r2, r1
 9452 017a 1A60     		str	r2, [r3]
 9453 017c 91E0     		b	.L558
 9454              	.L561:
 9455 017e FB68     		ldr	r3, [r7, #12]
ARM GAS  /tmp/ccnCrYSN.s 			page 165


 9456 0180 4021     		movs	r1, #64
 9457 0182 1800     		movs	r0, r3
 9458 0184 FFF7FEFF 		bl	I2C_ITError
 9459 0188 8BE0     		b	.L558
 9460              	.L560:
 9461 018a BB68     		ldr	r3, [r7, #8]
 9462 018c 9B09     		lsrs	r3, r3, #6
 9463 018e 1A00     		movs	r2, r3
 9464 0190 0123     		movs	r3, #1
 9465 0192 1340     		ands	r3, r2
 9466 0194 00D1     		bne	.LCB10176
 9467 0196 72E0     		b	.L568	@long jump
 9468              	.LCB10176:
 9469 0198 7B68     		ldr	r3, [r7, #4]
 9470 019a 9B09     		lsrs	r3, r3, #6
 9471 019c 1A00     		movs	r2, r3
 9472 019e 0123     		movs	r3, #1
 9473 01a0 1340     		ands	r3, r2
 9474 01a2 6CD0     		beq	.L568
 9475 01a4 FB68     		ldr	r3, [r7, #12]
 9476 01a6 0121     		movs	r1, #1
 9477 01a8 1800     		movs	r0, r3
 9478 01aa FFF7FEFF 		bl	I2C_Disable_IRQ
 9479 01ae FB68     		ldr	r3, [r7, #12]
 9480 01b0 1021     		movs	r1, #16
 9481 01b2 1800     		movs	r0, r3
 9482 01b4 FFF7FEFF 		bl	I2C_Enable_IRQ
 9483 01b8 FB68     		ldr	r3, [r7, #12]
 9484 01ba 4122     		movs	r2, #65
 9485 01bc 9B5C     		ldrb	r3, [r3, r2]
 9486 01be DBB2     		uxtb	r3, r3
 9487 01c0 222B     		cmp	r3, #34
 9488 01c2 01D1     		bne	.L569
 9489 01c4 3C4B     		ldr	r3, .L576+4
 9490 01c6 7B61     		str	r3, [r7, #20]
 9491              	.L569:
 9492 01c8 FB68     		ldr	r3, [r7, #12]
 9493 01ca 5B8D     		ldrh	r3, [r3, #42]
 9494 01cc 9BB2     		uxth	r3, r3
 9495 01ce FF2B     		cmp	r3, #255
 9496 01d0 1FD9     		bls	.L570
 9497 01d2 FB68     		ldr	r3, [r7, #12]
 9498 01d4 1B68     		ldr	r3, [r3]
 9499 01d6 9B69     		ldr	r3, [r3, #24]
 9500 01d8 1B0C     		lsrs	r3, r3, #16
 9501 01da DBB2     		uxtb	r3, r3
 9502 01dc 0122     		movs	r2, #1
 9503 01de 1340     		ands	r3, r2
 9504 01e0 DBB2     		uxtb	r3, r3
 9505 01e2 012B     		cmp	r3, #1
 9506 01e4 03D1     		bne	.L571
 9507 01e6 FB68     		ldr	r3, [r7, #12]
 9508 01e8 0122     		movs	r2, #1
 9509 01ea 1A85     		strh	r2, [r3, #40]
 9510 01ec 02E0     		b	.L572
 9511              	.L571:
 9512 01ee FB68     		ldr	r3, [r7, #12]
ARM GAS  /tmp/ccnCrYSN.s 			page 166


 9513 01f0 FF22     		movs	r2, #255
 9514 01f2 1A85     		strh	r2, [r3, #40]
 9515              	.L572:
 9516 01f4 FB68     		ldr	r3, [r7, #12]
 9517 01f6 DB6C     		ldr	r3, [r3, #76]
 9518 01f8 99B2     		uxth	r1, r3
 9519 01fa FB68     		ldr	r3, [r7, #12]
 9520 01fc 1B8D     		ldrh	r3, [r3, #40]
 9521 01fe DAB2     		uxtb	r2, r3
 9522 0200 8023     		movs	r3, #128
 9523 0202 5C04     		lsls	r4, r3, #17
 9524 0204 F868     		ldr	r0, [r7, #12]
 9525 0206 7B69     		ldr	r3, [r7, #20]
 9526 0208 0093     		str	r3, [sp]
 9527 020a 2300     		movs	r3, r4
 9528 020c FFF7FEFF 		bl	I2C_TransferConfig
 9529 0210 12E0     		b	.L573
 9530              	.L570:
 9531 0212 FB68     		ldr	r3, [r7, #12]
 9532 0214 5B8D     		ldrh	r3, [r3, #42]
 9533 0216 9AB2     		uxth	r2, r3
 9534 0218 FB68     		ldr	r3, [r7, #12]
 9535 021a 1A85     		strh	r2, [r3, #40]
 9536 021c FB68     		ldr	r3, [r7, #12]
 9537 021e DB6C     		ldr	r3, [r3, #76]
 9538 0220 99B2     		uxth	r1, r3
 9539 0222 FB68     		ldr	r3, [r7, #12]
 9540 0224 1B8D     		ldrh	r3, [r3, #40]
 9541 0226 DAB2     		uxtb	r2, r3
 9542 0228 8023     		movs	r3, #128
 9543 022a 9C04     		lsls	r4, r3, #18
 9544 022c F868     		ldr	r0, [r7, #12]
 9545 022e 7B69     		ldr	r3, [r7, #20]
 9546 0230 0093     		str	r3, [sp]
 9547 0232 2300     		movs	r3, r4
 9548 0234 FFF7FEFF 		bl	I2C_TransferConfig
 9549              	.L573:
 9550 0238 FB68     		ldr	r3, [r7, #12]
 9551 023a 5B8D     		ldrh	r3, [r3, #42]
 9552 023c 9AB2     		uxth	r2, r3
 9553 023e FB68     		ldr	r3, [r7, #12]
 9554 0240 1B8D     		ldrh	r3, [r3, #40]
 9555 0242 D31A     		subs	r3, r2, r3
 9556 0244 9AB2     		uxth	r2, r3
 9557 0246 FB68     		ldr	r3, [r7, #12]
 9558 0248 5A85     		strh	r2, [r3, #42]
 9559 024a FB68     		ldr	r3, [r7, #12]
 9560 024c 4122     		movs	r2, #65
 9561 024e 9B5C     		ldrb	r3, [r3, r2]
 9562 0250 DBB2     		uxtb	r3, r3
 9563 0252 222B     		cmp	r3, #34
 9564 0254 09D1     		bne	.L574
 9565 0256 FB68     		ldr	r3, [r7, #12]
 9566 0258 1B68     		ldr	r3, [r3]
 9567 025a 1A68     		ldr	r2, [r3]
 9568 025c FB68     		ldr	r3, [r7, #12]
 9569 025e 1B68     		ldr	r3, [r3]
ARM GAS  /tmp/ccnCrYSN.s 			page 167


 9570 0260 8021     		movs	r1, #128
 9571 0262 0902     		lsls	r1, r1, #8
 9572 0264 0A43     		orrs	r2, r1
 9573 0266 1A60     		str	r2, [r3]
 9574 0268 1BE0     		b	.L558
 9575              	.L574:
 9576 026a FB68     		ldr	r3, [r7, #12]
 9577 026c 1B68     		ldr	r3, [r3]
 9578 026e 1A68     		ldr	r2, [r3]
 9579 0270 FB68     		ldr	r3, [r7, #12]
 9580 0272 1B68     		ldr	r3, [r3]
 9581 0274 8021     		movs	r1, #128
 9582 0276 C901     		lsls	r1, r1, #7
 9583 0278 0A43     		orrs	r2, r1
 9584 027a 1A60     		str	r2, [r3]
 9585 027c 11E0     		b	.L558
 9586              	.L568:
 9587 027e BB68     		ldr	r3, [r7, #8]
 9588 0280 5B09     		lsrs	r3, r3, #5
 9589 0282 1A00     		movs	r2, r3
 9590 0284 0123     		movs	r3, #1
 9591 0286 1340     		ands	r3, r2
 9592 0288 0BD0     		beq	.L558
 9593 028a 7B68     		ldr	r3, [r7, #4]
 9594 028c 5B09     		lsrs	r3, r3, #5
 9595 028e 1A00     		movs	r2, r3
 9596 0290 0123     		movs	r3, #1
 9597 0292 1340     		ands	r3, r2
 9598 0294 05D0     		beq	.L558
 9599 0296 BA68     		ldr	r2, [r7, #8]
 9600 0298 FB68     		ldr	r3, [r7, #12]
 9601 029a 1100     		movs	r1, r2
 9602 029c 1800     		movs	r0, r3
 9603 029e FFF7FEFF 		bl	I2C_ITMasterCplt
 9604              	.L558:
 9605 02a2 FB68     		ldr	r3, [r7, #12]
 9606 02a4 4022     		movs	r2, #64
 9607 02a6 0021     		movs	r1, #0
 9608 02a8 9954     		strb	r1, [r3, r2]
 9609 02aa 0023     		movs	r3, #0
 9610              	.L556:
 9611 02ac 1800     		movs	r0, r3
 9612 02ae BD46     		mov	sp, r7
 9613 02b0 07B0     		add	sp, sp, #28
 9614              		@ sp needed
 9615 02b2 90BD     		pop	{r4, r7, pc}
 9616              	.L577:
 9617              		.align	2
 9618              	.L576:
 9619 02b4 00200080 		.word	-2147475456
 9620 02b8 00240080 		.word	-2147474432
 9622              		.section	.text.I2C_Slave_ISR_DMA,"ax",%progbits
 9623              		.align	1
 9624              		.syntax unified
 9625              		.code	16
 9626              		.thumb_func
 9628              	I2C_Slave_ISR_DMA:
ARM GAS  /tmp/ccnCrYSN.s 			page 168


 9629              		@ args = 0, pretend = 0, frame = 32
 9630              		@ frame_needed = 1, uses_anonymous_args = 0
 9631 0000 80B5     		push	{r7, lr}
 9632 0002 88B0     		sub	sp, sp, #32
 9633 0004 00AF     		add	r7, sp, #0
 9634 0006 F860     		str	r0, [r7, #12]
 9635 0008 B960     		str	r1, [r7, #8]
 9636 000a 7A60     		str	r2, [r7, #4]
 9637 000c FB68     		ldr	r3, [r7, #12]
 9638 000e DB6A     		ldr	r3, [r3, #44]
 9639 0010 BB61     		str	r3, [r7, #24]
 9640 0012 0023     		movs	r3, #0
 9641 0014 FB61     		str	r3, [r7, #28]
 9642 0016 FB68     		ldr	r3, [r7, #12]
 9643 0018 4022     		movs	r2, #64
 9644 001a 9B5C     		ldrb	r3, [r3, r2]
 9645 001c 012B     		cmp	r3, #1
 9646 001e 01D1     		bne	.L579
 9647 0020 0223     		movs	r3, #2
 9648 0022 DEE0     		b	.L580
 9649              	.L579:
 9650 0024 FB68     		ldr	r3, [r7, #12]
 9651 0026 4022     		movs	r2, #64
 9652 0028 0121     		movs	r1, #1
 9653 002a 9954     		strb	r1, [r3, r2]
 9654 002c BB68     		ldr	r3, [r7, #8]
 9655 002e 5B09     		lsrs	r3, r3, #5
 9656 0030 1A00     		movs	r2, r3
 9657 0032 0123     		movs	r3, #1
 9658 0034 1340     		ands	r3, r2
 9659 0036 0CD0     		beq	.L581
 9660 0038 7B68     		ldr	r3, [r7, #4]
 9661 003a 5B09     		lsrs	r3, r3, #5
 9662 003c 1A00     		movs	r2, r3
 9663 003e 0123     		movs	r3, #1
 9664 0040 1340     		ands	r3, r2
 9665 0042 06D0     		beq	.L581
 9666 0044 BA68     		ldr	r2, [r7, #8]
 9667 0046 FB68     		ldr	r3, [r7, #12]
 9668 0048 1100     		movs	r1, r2
 9669 004a 1800     		movs	r0, r3
 9670 004c FFF7FEFF 		bl	I2C_ITSlaveCplt
 9671 0050 C2E0     		b	.L582
 9672              	.L581:
 9673 0052 BB68     		ldr	r3, [r7, #8]
 9674 0054 1B09     		lsrs	r3, r3, #4
 9675 0056 1A00     		movs	r2, r3
 9676 0058 0123     		movs	r3, #1
 9677 005a 1340     		ands	r3, r2
 9678 005c 00D1     		bne	.LCB10412
 9679 005e A9E0     		b	.L583	@long jump
 9680              	.LCB10412:
 9681 0060 7B68     		ldr	r3, [r7, #4]
 9682 0062 1B09     		lsrs	r3, r3, #4
 9683 0064 1A00     		movs	r2, r3
 9684 0066 0123     		movs	r3, #1
 9685 0068 1340     		ands	r3, r2
ARM GAS  /tmp/ccnCrYSN.s 			page 169


 9686 006a 00D1     		bne	.LCB10419
 9687 006c A2E0     		b	.L583	@long jump
 9688              	.LCB10419:
 9689 006e 7B68     		ldr	r3, [r7, #4]
 9690 0070 9B0B     		lsrs	r3, r3, #14
 9691 0072 1A00     		movs	r2, r3
 9692 0074 0123     		movs	r3, #1
 9693 0076 1340     		ands	r3, r2
 9694 0078 06D1     		bne	.L584
 9695 007a 7B68     		ldr	r3, [r7, #4]
 9696 007c DB0B     		lsrs	r3, r3, #15
 9697 007e 1A00     		movs	r2, r3
 9698 0080 0123     		movs	r3, #1
 9699 0082 1340     		ands	r3, r2
 9700 0084 00D1     		bne	.LCB10433
 9701 0086 8EE0     		b	.L585	@long jump
 9702              	.LCB10433:
 9703              	.L584:
 9704 0088 FB68     		ldr	r3, [r7, #12]
 9705 008a DB6B     		ldr	r3, [r3, #60]
 9706 008c 002B     		cmp	r3, #0
 9707 008e 0DD0     		beq	.L586
 9708 0090 7B68     		ldr	r3, [r7, #4]
 9709 0092 DB0B     		lsrs	r3, r3, #15
 9710 0094 1A00     		movs	r2, r3
 9711 0096 0123     		movs	r3, #1
 9712 0098 1340     		ands	r3, r2
 9713 009a 07D0     		beq	.L586
 9714 009c FB68     		ldr	r3, [r7, #12]
 9715 009e DB6B     		ldr	r3, [r3, #60]
 9716 00a0 1B68     		ldr	r3, [r3]
 9717 00a2 5B68     		ldr	r3, [r3, #4]
 9718 00a4 002B     		cmp	r3, #0
 9719 00a6 01D1     		bne	.L586
 9720 00a8 0123     		movs	r3, #1
 9721 00aa FB61     		str	r3, [r7, #28]
 9722              	.L586:
 9723 00ac FB68     		ldr	r3, [r7, #12]
 9724 00ae 9B6B     		ldr	r3, [r3, #56]
 9725 00b0 002B     		cmp	r3, #0
 9726 00b2 0DD0     		beq	.L587
 9727 00b4 7B68     		ldr	r3, [r7, #4]
 9728 00b6 9B0B     		lsrs	r3, r3, #14
 9729 00b8 1A00     		movs	r2, r3
 9730 00ba 0123     		movs	r3, #1
 9731 00bc 1340     		ands	r3, r2
 9732 00be 07D0     		beq	.L587
 9733 00c0 FB68     		ldr	r3, [r7, #12]
 9734 00c2 9B6B     		ldr	r3, [r3, #56]
 9735 00c4 1B68     		ldr	r3, [r3]
 9736 00c6 5B68     		ldr	r3, [r3, #4]
 9737 00c8 002B     		cmp	r3, #0
 9738 00ca 01D1     		bne	.L587
 9739 00cc 0123     		movs	r3, #1
 9740 00ce FB61     		str	r3, [r7, #28]
 9741              	.L587:
 9742 00d0 FB69     		ldr	r3, [r7, #28]
ARM GAS  /tmp/ccnCrYSN.s 			page 170


 9743 00d2 012B     		cmp	r3, #1
 9744 00d4 2DD1     		bne	.L588
 9745 00d6 FB68     		ldr	r3, [r7, #12]
 9746 00d8 4122     		movs	r2, #65
 9747 00da 9B5C     		ldrb	r3, [r3, r2]
 9748 00dc DBB2     		uxtb	r3, r3
 9749 00de 282B     		cmp	r3, #40
 9750 00e0 0BD1     		bne	.L589
 9751 00e2 BA69     		ldr	r2, [r7, #24]
 9752 00e4 8023     		movs	r3, #128
 9753 00e6 9B04     		lsls	r3, r3, #18
 9754 00e8 9A42     		cmp	r2, r3
 9755 00ea 06D1     		bne	.L589
 9756 00ec BA68     		ldr	r2, [r7, #8]
 9757 00ee FB68     		ldr	r3, [r7, #12]
 9758 00f0 1100     		movs	r1, r2
 9759 00f2 1800     		movs	r0, r3
 9760 00f4 FFF7FEFF 		bl	I2C_ITListenCplt
 9761 00f8 54E0     		b	.L592
 9762              	.L589:
 9763 00fa FB68     		ldr	r3, [r7, #12]
 9764 00fc 4122     		movs	r2, #65
 9765 00fe 9B5C     		ldrb	r3, [r3, r2]
 9766 0100 DBB2     		uxtb	r3, r3
 9767 0102 292B     		cmp	r3, #41
 9768 0104 10D1     		bne	.L591
 9769 0106 BB69     		ldr	r3, [r7, #24]
 9770 0108 384A     		ldr	r2, .L600
 9771 010a 9342     		cmp	r3, r2
 9772 010c 0CD0     		beq	.L591
 9773 010e FB68     		ldr	r3, [r7, #12]
 9774 0110 1B68     		ldr	r3, [r3]
 9775 0112 1022     		movs	r2, #16
 9776 0114 DA61     		str	r2, [r3, #28]
 9777 0116 FB68     		ldr	r3, [r7, #12]
 9778 0118 1800     		movs	r0, r3
 9779 011a FFF7FEFF 		bl	I2C_Flush_TXDR
 9780 011e FB68     		ldr	r3, [r7, #12]
 9781 0120 1800     		movs	r0, r3
 9782 0122 FFF7FEFF 		bl	I2C_ITSlaveSeqCplt
 9783 0126 3DE0     		b	.L592
 9784              	.L591:
 9785 0128 FB68     		ldr	r3, [r7, #12]
 9786 012a 1B68     		ldr	r3, [r3]
 9787 012c 1022     		movs	r2, #16
 9788 012e DA61     		str	r2, [r3, #28]
 9789 0130 3EE0     		b	.L599
 9790              	.L588:
 9791 0132 FB68     		ldr	r3, [r7, #12]
 9792 0134 1B68     		ldr	r3, [r3]
 9793 0136 1022     		movs	r2, #16
 9794 0138 DA61     		str	r2, [r3, #28]
 9795 013a FB68     		ldr	r3, [r7, #12]
 9796 013c 5B6C     		ldr	r3, [r3, #68]
 9797 013e 0422     		movs	r2, #4
 9798 0140 1A43     		orrs	r2, r3
 9799 0142 FB68     		ldr	r3, [r7, #12]
ARM GAS  /tmp/ccnCrYSN.s 			page 171


 9800 0144 5A64     		str	r2, [r3, #68]
 9801 0146 1723     		movs	r3, #23
 9802 0148 FB18     		adds	r3, r7, r3
 9803 014a FA68     		ldr	r2, [r7, #12]
 9804 014c 4121     		movs	r1, #65
 9805 014e 525C     		ldrb	r2, [r2, r1]
 9806 0150 1A70     		strb	r2, [r3]
 9807 0152 BB69     		ldr	r3, [r7, #24]
 9808 0154 002B     		cmp	r3, #0
 9809 0156 04D0     		beq	.L593
 9810 0158 BA69     		ldr	r2, [r7, #24]
 9811 015a 8023     		movs	r3, #128
 9812 015c 5B04     		lsls	r3, r3, #17
 9813 015e 9A42     		cmp	r2, r3
 9814 0160 26D1     		bne	.L599
 9815              	.L593:
 9816 0162 1722     		movs	r2, #23
 9817 0164 BB18     		adds	r3, r7, r2
 9818 0166 1B78     		ldrb	r3, [r3]
 9819 0168 212B     		cmp	r3, #33
 9820 016a 03D0     		beq	.L594
 9821 016c BB18     		adds	r3, r7, r2
 9822 016e 1B78     		ldrb	r3, [r3]
 9823 0170 292B     		cmp	r3, #41
 9824 0172 03D1     		bne	.L595
 9825              	.L594:
 9826 0174 FB68     		ldr	r3, [r7, #12]
 9827 0176 2122     		movs	r2, #33
 9828 0178 1A63     		str	r2, [r3, #48]
 9829 017a 0BE0     		b	.L596
 9830              	.L595:
 9831 017c 1722     		movs	r2, #23
 9832 017e BB18     		adds	r3, r7, r2
 9833 0180 1B78     		ldrb	r3, [r3]
 9834 0182 222B     		cmp	r3, #34
 9835 0184 03D0     		beq	.L597
 9836 0186 BB18     		adds	r3, r7, r2
 9837 0188 1B78     		ldrb	r3, [r3]
 9838 018a 2A2B     		cmp	r3, #42
 9839 018c 02D1     		bne	.L596
 9840              	.L597:
 9841 018e FB68     		ldr	r3, [r7, #12]
 9842 0190 2222     		movs	r2, #34
 9843 0192 1A63     		str	r2, [r3, #48]
 9844              	.L596:
 9845 0194 FB68     		ldr	r3, [r7, #12]
 9846 0196 5A6C     		ldr	r2, [r3, #68]
 9847 0198 FB68     		ldr	r3, [r7, #12]
 9848 019a 1100     		movs	r1, r2
 9849 019c 1800     		movs	r0, r3
 9850 019e FFF7FEFF 		bl	I2C_ITError
 9851 01a2 05E0     		b	.L599
 9852              	.L592:
 9853 01a4 04E0     		b	.L599
 9854              	.L585:
 9855 01a6 FB68     		ldr	r3, [r7, #12]
 9856 01a8 1B68     		ldr	r3, [r3]
ARM GAS  /tmp/ccnCrYSN.s 			page 172


 9857 01aa 1022     		movs	r2, #16
 9858 01ac DA61     		str	r2, [r3, #28]
 9859 01ae 13E0     		b	.L582
 9860              	.L599:
 9861 01b0 C046     		nop
 9862 01b2 11E0     		b	.L582
 9863              	.L583:
 9864 01b4 BB68     		ldr	r3, [r7, #8]
 9865 01b6 DB08     		lsrs	r3, r3, #3
 9866 01b8 1A00     		movs	r2, r3
 9867 01ba 0123     		movs	r3, #1
 9868 01bc 1340     		ands	r3, r2
 9869 01be 0BD0     		beq	.L582
 9870 01c0 7B68     		ldr	r3, [r7, #4]
 9871 01c2 DB08     		lsrs	r3, r3, #3
 9872 01c4 1A00     		movs	r2, r3
 9873 01c6 0123     		movs	r3, #1
 9874 01c8 1340     		ands	r3, r2
 9875 01ca 05D0     		beq	.L582
 9876 01cc BA68     		ldr	r2, [r7, #8]
 9877 01ce FB68     		ldr	r3, [r7, #12]
 9878 01d0 1100     		movs	r1, r2
 9879 01d2 1800     		movs	r0, r3
 9880 01d4 FFF7FEFF 		bl	I2C_ITAddrCplt
 9881              	.L582:
 9882 01d8 FB68     		ldr	r3, [r7, #12]
 9883 01da 4022     		movs	r2, #64
 9884 01dc 0021     		movs	r1, #0
 9885 01de 9954     		strb	r1, [r3, r2]
 9886 01e0 0023     		movs	r3, #0
 9887              	.L580:
 9888 01e2 1800     		movs	r0, r3
 9889 01e4 BD46     		mov	sp, r7
 9890 01e6 08B0     		add	sp, sp, #32
 9891              		@ sp needed
 9892 01e8 80BD     		pop	{r7, pc}
 9893              	.L601:
 9894 01ea C046     		.align	2
 9895              	.L600:
 9896 01ec 0000FFFF 		.word	-65536
 9898              		.section	.text.I2C_RequestMemoryWrite,"ax",%progbits
 9899              		.align	1
 9900              		.syntax unified
 9901              		.code	16
 9902              		.thumb_func
 9904              	I2C_RequestMemoryWrite:
 9905              		@ args = 8, pretend = 0, frame = 16
 9906              		@ frame_needed = 1, uses_anonymous_args = 0
 9907 0000 B0B5     		push	{r4, r5, r7, lr}
 9908 0002 86B0     		sub	sp, sp, #24
 9909 0004 02AF     		add	r7, sp, #8
 9910 0006 F860     		str	r0, [r7, #12]
 9911 0008 0C00     		movs	r4, r1
 9912 000a 1000     		movs	r0, r2
 9913 000c 1900     		movs	r1, r3
 9914 000e 0A25     		movs	r5, #10
 9915 0010 7B19     		adds	r3, r7, r5
ARM GAS  /tmp/ccnCrYSN.s 			page 173


 9916 0012 221C     		adds	r2, r4, #0
 9917 0014 1A80     		strh	r2, [r3]
 9918 0016 0823     		movs	r3, #8
 9919 0018 FB18     		adds	r3, r7, r3
 9920 001a 021C     		adds	r2, r0, #0
 9921 001c 1A80     		strh	r2, [r3]
 9922 001e BB1D     		adds	r3, r7, #6
 9923 0020 0A1C     		adds	r2, r1, #0
 9924 0022 1A80     		strh	r2, [r3]
 9925 0024 BB1D     		adds	r3, r7, #6
 9926 0026 1B88     		ldrh	r3, [r3]
 9927 0028 DAB2     		uxtb	r2, r3
 9928 002a 8023     		movs	r3, #128
 9929 002c 5C04     		lsls	r4, r3, #17
 9930 002e 7B19     		adds	r3, r7, r5
 9931 0030 1988     		ldrh	r1, [r3]
 9932 0032 F868     		ldr	r0, [r7, #12]
 9933 0034 234B     		ldr	r3, .L609
 9934 0036 0093     		str	r3, [sp]
 9935 0038 2300     		movs	r3, r4
 9936 003a FFF7FEFF 		bl	I2C_TransferConfig
 9937 003e 7A6A     		ldr	r2, [r7, #36]
 9938 0040 396A     		ldr	r1, [r7, #32]
 9939 0042 FB68     		ldr	r3, [r7, #12]
 9940 0044 1800     		movs	r0, r3
 9941 0046 FFF7FEFF 		bl	I2C_WaitOnTXISFlagUntilTimeout
 9942 004a 031E     		subs	r3, r0, #0
 9943 004c 01D0     		beq	.L603
 9944 004e 0123     		movs	r3, #1
 9945 0050 33E0     		b	.L604
 9946              	.L603:
 9947 0052 BB1D     		adds	r3, r7, #6
 9948 0054 1B88     		ldrh	r3, [r3]
 9949 0056 012B     		cmp	r3, #1
 9950 0058 07D1     		bne	.L605
 9951 005a 0823     		movs	r3, #8
 9952 005c FB18     		adds	r3, r7, r3
 9953 005e 1B88     		ldrh	r3, [r3]
 9954 0060 DAB2     		uxtb	r2, r3
 9955 0062 FB68     		ldr	r3, [r7, #12]
 9956 0064 1B68     		ldr	r3, [r3]
 9957 0066 9A62     		str	r2, [r3, #40]
 9958 0068 19E0     		b	.L606
 9959              	.L605:
 9960 006a 0823     		movs	r3, #8
 9961 006c FB18     		adds	r3, r7, r3
 9962 006e 1B88     		ldrh	r3, [r3]
 9963 0070 1B0A     		lsrs	r3, r3, #8
 9964 0072 9BB2     		uxth	r3, r3
 9965 0074 DAB2     		uxtb	r2, r3
 9966 0076 FB68     		ldr	r3, [r7, #12]
 9967 0078 1B68     		ldr	r3, [r3]
 9968 007a 9A62     		str	r2, [r3, #40]
 9969 007c 7A6A     		ldr	r2, [r7, #36]
 9970 007e 396A     		ldr	r1, [r7, #32]
 9971 0080 FB68     		ldr	r3, [r7, #12]
 9972 0082 1800     		movs	r0, r3
ARM GAS  /tmp/ccnCrYSN.s 			page 174


 9973 0084 FFF7FEFF 		bl	I2C_WaitOnTXISFlagUntilTimeout
 9974 0088 031E     		subs	r3, r0, #0
 9975 008a 01D0     		beq	.L607
 9976 008c 0123     		movs	r3, #1
 9977 008e 14E0     		b	.L604
 9978              	.L607:
 9979 0090 0823     		movs	r3, #8
 9980 0092 FB18     		adds	r3, r7, r3
 9981 0094 1B88     		ldrh	r3, [r3]
 9982 0096 DAB2     		uxtb	r2, r3
 9983 0098 FB68     		ldr	r3, [r7, #12]
 9984 009a 1B68     		ldr	r3, [r3]
 9985 009c 9A62     		str	r2, [r3, #40]
 9986              	.L606:
 9987 009e 3A6A     		ldr	r2, [r7, #32]
 9988 00a0 F868     		ldr	r0, [r7, #12]
 9989 00a2 7B6A     		ldr	r3, [r7, #36]
 9990 00a4 0093     		str	r3, [sp]
 9991 00a6 1300     		movs	r3, r2
 9992 00a8 0022     		movs	r2, #0
 9993 00aa 8021     		movs	r1, #128
 9994 00ac FFF7FEFF 		bl	I2C_WaitOnFlagUntilTimeout
 9995 00b0 031E     		subs	r3, r0, #0
 9996 00b2 01D0     		beq	.L608
 9997 00b4 0123     		movs	r3, #1
 9998 00b6 00E0     		b	.L604
 9999              	.L608:
 10000 00b8 0023     		movs	r3, #0
 10001              	.L604:
 10002 00ba 1800     		movs	r0, r3
 10003 00bc BD46     		mov	sp, r7
 10004 00be 04B0     		add	sp, sp, #16
 10005              		@ sp needed
 10006 00c0 B0BD     		pop	{r4, r5, r7, pc}
 10007              	.L610:
 10008 00c2 C046     		.align	2
 10009              	.L609:
 10010 00c4 00200080 		.word	-2147475456
 10012              		.section	.text.I2C_RequestMemoryRead,"ax",%progbits
 10013              		.align	1
 10014              		.syntax unified
 10015              		.code	16
 10016              		.thumb_func
 10018              	I2C_RequestMemoryRead:
 10019              		@ args = 8, pretend = 0, frame = 16
 10020              		@ frame_needed = 1, uses_anonymous_args = 0
 10021 0000 B0B5     		push	{r4, r5, r7, lr}
 10022 0002 86B0     		sub	sp, sp, #24
 10023 0004 02AF     		add	r7, sp, #8
 10024 0006 F860     		str	r0, [r7, #12]
 10025 0008 0C00     		movs	r4, r1
 10026 000a 1000     		movs	r0, r2
 10027 000c 1900     		movs	r1, r3
 10028 000e 0A25     		movs	r5, #10
 10029 0010 7B19     		adds	r3, r7, r5
 10030 0012 221C     		adds	r2, r4, #0
 10031 0014 1A80     		strh	r2, [r3]
ARM GAS  /tmp/ccnCrYSN.s 			page 175


 10032 0016 0823     		movs	r3, #8
 10033 0018 FB18     		adds	r3, r7, r3
 10034 001a 021C     		adds	r2, r0, #0
 10035 001c 1A80     		strh	r2, [r3]
 10036 001e BB1D     		adds	r3, r7, #6
 10037 0020 0A1C     		adds	r2, r1, #0
 10038 0022 1A80     		strh	r2, [r3]
 10039 0024 BB1D     		adds	r3, r7, #6
 10040 0026 1B88     		ldrh	r3, [r3]
 10041 0028 DAB2     		uxtb	r2, r3
 10042 002a 7B19     		adds	r3, r7, r5
 10043 002c 1988     		ldrh	r1, [r3]
 10044 002e F868     		ldr	r0, [r7, #12]
 10045 0030 234B     		ldr	r3, .L618
 10046 0032 0093     		str	r3, [sp]
 10047 0034 0023     		movs	r3, #0
 10048 0036 FFF7FEFF 		bl	I2C_TransferConfig
 10049 003a 7A6A     		ldr	r2, [r7, #36]
 10050 003c 396A     		ldr	r1, [r7, #32]
 10051 003e FB68     		ldr	r3, [r7, #12]
 10052 0040 1800     		movs	r0, r3
 10053 0042 FFF7FEFF 		bl	I2C_WaitOnTXISFlagUntilTimeout
 10054 0046 031E     		subs	r3, r0, #0
 10055 0048 01D0     		beq	.L612
 10056 004a 0123     		movs	r3, #1
 10057 004c 33E0     		b	.L613
 10058              	.L612:
 10059 004e BB1D     		adds	r3, r7, #6
 10060 0050 1B88     		ldrh	r3, [r3]
 10061 0052 012B     		cmp	r3, #1
 10062 0054 07D1     		bne	.L614
 10063 0056 0823     		movs	r3, #8
 10064 0058 FB18     		adds	r3, r7, r3
 10065 005a 1B88     		ldrh	r3, [r3]
 10066 005c DAB2     		uxtb	r2, r3
 10067 005e FB68     		ldr	r3, [r7, #12]
 10068 0060 1B68     		ldr	r3, [r3]
 10069 0062 9A62     		str	r2, [r3, #40]
 10070 0064 19E0     		b	.L615
 10071              	.L614:
 10072 0066 0823     		movs	r3, #8
 10073 0068 FB18     		adds	r3, r7, r3
 10074 006a 1B88     		ldrh	r3, [r3]
 10075 006c 1B0A     		lsrs	r3, r3, #8
 10076 006e 9BB2     		uxth	r3, r3
 10077 0070 DAB2     		uxtb	r2, r3
 10078 0072 FB68     		ldr	r3, [r7, #12]
 10079 0074 1B68     		ldr	r3, [r3]
 10080 0076 9A62     		str	r2, [r3, #40]
 10081 0078 7A6A     		ldr	r2, [r7, #36]
 10082 007a 396A     		ldr	r1, [r7, #32]
 10083 007c FB68     		ldr	r3, [r7, #12]
 10084 007e 1800     		movs	r0, r3
 10085 0080 FFF7FEFF 		bl	I2C_WaitOnTXISFlagUntilTimeout
 10086 0084 031E     		subs	r3, r0, #0
 10087 0086 01D0     		beq	.L616
 10088 0088 0123     		movs	r3, #1
ARM GAS  /tmp/ccnCrYSN.s 			page 176


 10089 008a 14E0     		b	.L613
 10090              	.L616:
 10091 008c 0823     		movs	r3, #8
 10092 008e FB18     		adds	r3, r7, r3
 10093 0090 1B88     		ldrh	r3, [r3]
 10094 0092 DAB2     		uxtb	r2, r3
 10095 0094 FB68     		ldr	r3, [r7, #12]
 10096 0096 1B68     		ldr	r3, [r3]
 10097 0098 9A62     		str	r2, [r3, #40]
 10098              	.L615:
 10099 009a 3A6A     		ldr	r2, [r7, #32]
 10100 009c F868     		ldr	r0, [r7, #12]
 10101 009e 7B6A     		ldr	r3, [r7, #36]
 10102 00a0 0093     		str	r3, [sp]
 10103 00a2 1300     		movs	r3, r2
 10104 00a4 0022     		movs	r2, #0
 10105 00a6 4021     		movs	r1, #64
 10106 00a8 FFF7FEFF 		bl	I2C_WaitOnFlagUntilTimeout
 10107 00ac 031E     		subs	r3, r0, #0
 10108 00ae 01D0     		beq	.L617
 10109 00b0 0123     		movs	r3, #1
 10110 00b2 00E0     		b	.L613
 10111              	.L617:
 10112 00b4 0023     		movs	r3, #0
 10113              	.L613:
 10114 00b6 1800     		movs	r0, r3
 10115 00b8 BD46     		mov	sp, r7
 10116 00ba 04B0     		add	sp, sp, #16
 10117              		@ sp needed
 10118 00bc B0BD     		pop	{r4, r5, r7, pc}
 10119              	.L619:
 10120 00be C046     		.align	2
 10121              	.L618:
 10122 00c0 00200080 		.word	-2147475456
 10124              		.section	.text.I2C_ITAddrCplt,"ax",%progbits
 10125              		.align	1
 10126              		.syntax unified
 10127              		.code	16
 10128              		.thumb_func
 10130              	I2C_ITAddrCplt:
 10131              		@ args = 0, pretend = 0, frame = 16
 10132              		@ frame_needed = 1, uses_anonymous_args = 0
 10133 0000 B0B5     		push	{r4, r5, r7, lr}
 10134 0002 84B0     		sub	sp, sp, #16
 10135 0004 00AF     		add	r7, sp, #0
 10136 0006 7860     		str	r0, [r7, #4]
 10137 0008 3960     		str	r1, [r7]
 10138 000a 7B68     		ldr	r3, [r7, #4]
 10139 000c 4122     		movs	r2, #65
 10140 000e 9B5C     		ldrb	r3, [r3, r2]
 10141 0010 DBB2     		uxtb	r3, r3
 10142 0012 1A00     		movs	r2, r3
 10143 0014 2823     		movs	r3, #40
 10144 0016 1340     		ands	r3, r2
 10145 0018 282B     		cmp	r3, #40
 10146 001a 00D0     		beq	.LCB10942
 10147 001c 88E0     		b	.L621	@long jump
ARM GAS  /tmp/ccnCrYSN.s 			page 177


 10148              	.LCB10942:
 10149 001e 7B68     		ldr	r3, [r7, #4]
 10150 0020 1B68     		ldr	r3, [r3]
 10151 0022 9B69     		ldr	r3, [r3, #24]
 10152 0024 1B0C     		lsrs	r3, r3, #16
 10153 0026 DAB2     		uxtb	r2, r3
 10154 0028 0F25     		movs	r5, #15
 10155 002a 7B19     		adds	r3, r7, r5
 10156 002c 0121     		movs	r1, #1
 10157 002e 0A40     		ands	r2, r1
 10158 0030 1A70     		strb	r2, [r3]
 10159 0032 7B68     		ldr	r3, [r7, #4]
 10160 0034 1B68     		ldr	r3, [r3]
 10161 0036 9B69     		ldr	r3, [r3, #24]
 10162 0038 1B0C     		lsrs	r3, r3, #16
 10163 003a 9AB2     		uxth	r2, r3
 10164 003c 0C20     		movs	r0, #12
 10165 003e 3B18     		adds	r3, r7, r0
 10166 0040 FE21     		movs	r1, #254
 10167 0042 0A40     		ands	r2, r1
 10168 0044 1A80     		strh	r2, [r3]
 10169 0046 7B68     		ldr	r3, [r7, #4]
 10170 0048 1B68     		ldr	r3, [r3]
 10171 004a 9B68     		ldr	r3, [r3, #8]
 10172 004c 9AB2     		uxth	r2, r3
 10173 004e 0A24     		movs	r4, #10
 10174 0050 3B19     		adds	r3, r7, r4
 10175 0052 9205     		lsls	r2, r2, #22
 10176 0054 920D     		lsrs	r2, r2, #22
 10177 0056 1A80     		strh	r2, [r3]
 10178 0058 7B68     		ldr	r3, [r7, #4]
 10179 005a 1B68     		ldr	r3, [r3]
 10180 005c DB68     		ldr	r3, [r3, #12]
 10181 005e 9AB2     		uxth	r2, r3
 10182 0060 0823     		movs	r3, #8
 10183 0062 FB18     		adds	r3, r7, r3
 10184 0064 FE21     		movs	r1, #254
 10185 0066 0A40     		ands	r2, r1
 10186 0068 1A80     		strh	r2, [r3]
 10187 006a 7B68     		ldr	r3, [r7, #4]
 10188 006c DB68     		ldr	r3, [r3, #12]
 10189 006e 022B     		cmp	r3, #2
 10190 0070 48D1     		bne	.L622
 10191 0072 2100     		movs	r1, r4
 10192 0074 7B18     		adds	r3, r7, r1
 10193 0076 1B88     		ldrh	r3, [r3]
 10194 0078 DB09     		lsrs	r3, r3, #7
 10195 007a 9AB2     		uxth	r2, r3
 10196 007c 3B18     		adds	r3, r7, r0
 10197 007e 1B88     		ldrh	r3, [r3]
 10198 0080 5340     		eors	r3, r2
 10199 0082 9BB2     		uxth	r3, r3
 10200 0084 1A00     		movs	r2, r3
 10201 0086 0623     		movs	r3, #6
 10202 0088 1340     		ands	r3, r2
 10203 008a 20D1     		bne	.L623
 10204 008c 3B18     		adds	r3, r7, r0
ARM GAS  /tmp/ccnCrYSN.s 			page 178


 10205 008e 7A18     		adds	r2, r7, r1
 10206 0090 1288     		ldrh	r2, [r2]
 10207 0092 1A80     		strh	r2, [r3]
 10208 0094 7B68     		ldr	r3, [r7, #4]
 10209 0096 9B6C     		ldr	r3, [r3, #72]
 10210 0098 5A1C     		adds	r2, r3, #1
 10211 009a 7B68     		ldr	r3, [r7, #4]
 10212 009c 9A64     		str	r2, [r3, #72]
 10213 009e 7B68     		ldr	r3, [r7, #4]
 10214 00a0 9B6C     		ldr	r3, [r3, #72]
 10215 00a2 022B     		cmp	r3, #2
 10216 00a4 4CD1     		bne	.L625
 10217 00a6 7B68     		ldr	r3, [r7, #4]
 10218 00a8 0022     		movs	r2, #0
 10219 00aa 9A64     		str	r2, [r3, #72]
 10220 00ac 7B68     		ldr	r3, [r7, #4]
 10221 00ae 1B68     		ldr	r3, [r3]
 10222 00b0 0822     		movs	r2, #8
 10223 00b2 DA61     		str	r2, [r3, #28]
 10224 00b4 7B68     		ldr	r3, [r7, #4]
 10225 00b6 4022     		movs	r2, #64
 10226 00b8 0021     		movs	r1, #0
 10227 00ba 9954     		strb	r1, [r3, r2]
 10228 00bc 3B18     		adds	r3, r7, r0
 10229 00be 1A88     		ldrh	r2, [r3]
 10230 00c0 7B19     		adds	r3, r7, r5
 10231 00c2 1978     		ldrb	r1, [r3]
 10232 00c4 7B68     		ldr	r3, [r7, #4]
 10233 00c6 1800     		movs	r0, r3
 10234 00c8 FFF7FEFF 		bl	HAL_I2C_AddrCallback
 10235 00cc 38E0     		b	.L625
 10236              	.L623:
 10237 00ce 0C24     		movs	r4, #12
 10238 00d0 3B19     		adds	r3, r7, r4
 10239 00d2 0822     		movs	r2, #8
 10240 00d4 BA18     		adds	r2, r7, r2
 10241 00d6 1288     		ldrh	r2, [r2]
 10242 00d8 1A80     		strh	r2, [r3]
 10243 00da 8023     		movs	r3, #128
 10244 00dc 1A02     		lsls	r2, r3, #8
 10245 00de 7B68     		ldr	r3, [r7, #4]
 10246 00e0 1100     		movs	r1, r2
 10247 00e2 1800     		movs	r0, r3
 10248 00e4 FFF7FEFF 		bl	I2C_Disable_IRQ
 10249 00e8 7B68     		ldr	r3, [r7, #4]
 10250 00ea 4022     		movs	r2, #64
 10251 00ec 0021     		movs	r1, #0
 10252 00ee 9954     		strb	r1, [r3, r2]
 10253 00f0 3B19     		adds	r3, r7, r4
 10254 00f2 1A88     		ldrh	r2, [r3]
 10255 00f4 0F23     		movs	r3, #15
 10256 00f6 FB18     		adds	r3, r7, r3
 10257 00f8 1978     		ldrb	r1, [r3]
 10258 00fa 7B68     		ldr	r3, [r7, #4]
 10259 00fc 1800     		movs	r0, r3
 10260 00fe FFF7FEFF 		bl	HAL_I2C_AddrCallback
 10261 0102 1DE0     		b	.L625
ARM GAS  /tmp/ccnCrYSN.s 			page 179


 10262              	.L622:
 10263 0104 8023     		movs	r3, #128
 10264 0106 1A02     		lsls	r2, r3, #8
 10265 0108 7B68     		ldr	r3, [r7, #4]
 10266 010a 1100     		movs	r1, r2
 10267 010c 1800     		movs	r0, r3
 10268 010e FFF7FEFF 		bl	I2C_Disable_IRQ
 10269 0112 7B68     		ldr	r3, [r7, #4]
 10270 0114 4022     		movs	r2, #64
 10271 0116 0021     		movs	r1, #0
 10272 0118 9954     		strb	r1, [r3, r2]
 10273 011a 0C23     		movs	r3, #12
 10274 011c FB18     		adds	r3, r7, r3
 10275 011e 1A88     		ldrh	r2, [r3]
 10276 0120 0F23     		movs	r3, #15
 10277 0122 FB18     		adds	r3, r7, r3
 10278 0124 1978     		ldrb	r1, [r3]
 10279 0126 7B68     		ldr	r3, [r7, #4]
 10280 0128 1800     		movs	r0, r3
 10281 012a FFF7FEFF 		bl	HAL_I2C_AddrCallback
 10282 012e 07E0     		b	.L625
 10283              	.L621:
 10284 0130 7B68     		ldr	r3, [r7, #4]
 10285 0132 1B68     		ldr	r3, [r3]
 10286 0134 0822     		movs	r2, #8
 10287 0136 DA61     		str	r2, [r3, #28]
 10288 0138 7B68     		ldr	r3, [r7, #4]
 10289 013a 4022     		movs	r2, #64
 10290 013c 0021     		movs	r1, #0
 10291 013e 9954     		strb	r1, [r3, r2]
 10292              	.L625:
 10293 0140 C046     		nop
 10294 0142 BD46     		mov	sp, r7
 10295 0144 04B0     		add	sp, sp, #16
 10296              		@ sp needed
 10297 0146 B0BD     		pop	{r4, r5, r7, pc}
 10299              		.section	.text.I2C_ITMasterSeqCplt,"ax",%progbits
 10300              		.align	1
 10301              		.syntax unified
 10302              		.code	16
 10303              		.thumb_func
 10305              	I2C_ITMasterSeqCplt:
 10306              		@ args = 0, pretend = 0, frame = 8
 10307              		@ frame_needed = 1, uses_anonymous_args = 0
 10308 0000 80B5     		push	{r7, lr}
 10309 0002 82B0     		sub	sp, sp, #8
 10310 0004 00AF     		add	r7, sp, #0
 10311 0006 7860     		str	r0, [r7, #4]
 10312 0008 7B68     		ldr	r3, [r7, #4]
 10313 000a 4222     		movs	r2, #66
 10314 000c 0021     		movs	r1, #0
 10315 000e 9954     		strb	r1, [r3, r2]
 10316 0010 7B68     		ldr	r3, [r7, #4]
 10317 0012 4122     		movs	r2, #65
 10318 0014 9B5C     		ldrb	r3, [r3, r2]
 10319 0016 DBB2     		uxtb	r3, r3
 10320 0018 212B     		cmp	r3, #33
ARM GAS  /tmp/ccnCrYSN.s 			page 180


 10321 001a 17D1     		bne	.L627
 10322 001c 7B68     		ldr	r3, [r7, #4]
 10323 001e 4122     		movs	r2, #65
 10324 0020 2021     		movs	r1, #32
 10325 0022 9954     		strb	r1, [r3, r2]
 10326 0024 7B68     		ldr	r3, [r7, #4]
 10327 0026 1122     		movs	r2, #17
 10328 0028 1A63     		str	r2, [r3, #48]
 10329 002a 7B68     		ldr	r3, [r7, #4]
 10330 002c 0022     		movs	r2, #0
 10331 002e 5A63     		str	r2, [r3, #52]
 10332 0030 7B68     		ldr	r3, [r7, #4]
 10333 0032 0121     		movs	r1, #1
 10334 0034 1800     		movs	r0, r3
 10335 0036 FFF7FEFF 		bl	I2C_Disable_IRQ
 10336 003a 7B68     		ldr	r3, [r7, #4]
 10337 003c 4022     		movs	r2, #64
 10338 003e 0021     		movs	r1, #0
 10339 0040 9954     		strb	r1, [r3, r2]
 10340 0042 7B68     		ldr	r3, [r7, #4]
 10341 0044 1800     		movs	r0, r3
 10342 0046 FFF7FEFF 		bl	HAL_I2C_MasterTxCpltCallback
 10343 004a 16E0     		b	.L629
 10344              	.L627:
 10345 004c 7B68     		ldr	r3, [r7, #4]
 10346 004e 4122     		movs	r2, #65
 10347 0050 2021     		movs	r1, #32
 10348 0052 9954     		strb	r1, [r3, r2]
 10349 0054 7B68     		ldr	r3, [r7, #4]
 10350 0056 1222     		movs	r2, #18
 10351 0058 1A63     		str	r2, [r3, #48]
 10352 005a 7B68     		ldr	r3, [r7, #4]
 10353 005c 0022     		movs	r2, #0
 10354 005e 5A63     		str	r2, [r3, #52]
 10355 0060 7B68     		ldr	r3, [r7, #4]
 10356 0062 0221     		movs	r1, #2
 10357 0064 1800     		movs	r0, r3
 10358 0066 FFF7FEFF 		bl	I2C_Disable_IRQ
 10359 006a 7B68     		ldr	r3, [r7, #4]
 10360 006c 4022     		movs	r2, #64
 10361 006e 0021     		movs	r1, #0
 10362 0070 9954     		strb	r1, [r3, r2]
 10363 0072 7B68     		ldr	r3, [r7, #4]
 10364 0074 1800     		movs	r0, r3
 10365 0076 FFF7FEFF 		bl	HAL_I2C_MasterRxCpltCallback
 10366              	.L629:
 10367 007a C046     		nop
 10368 007c BD46     		mov	sp, r7
 10369 007e 02B0     		add	sp, sp, #8
 10370              		@ sp needed
 10371 0080 80BD     		pop	{r7, pc}
 10373              		.section	.text.I2C_ITSlaveSeqCplt,"ax",%progbits
 10374              		.align	1
 10375              		.syntax unified
 10376              		.code	16
 10377              		.thumb_func
 10379              	I2C_ITSlaveSeqCplt:
ARM GAS  /tmp/ccnCrYSN.s 			page 181


 10380              		@ args = 0, pretend = 0, frame = 16
 10381              		@ frame_needed = 1, uses_anonymous_args = 0
 10382 0000 80B5     		push	{r7, lr}
 10383 0002 84B0     		sub	sp, sp, #16
 10384 0004 00AF     		add	r7, sp, #0
 10385 0006 7860     		str	r0, [r7, #4]
 10386 0008 7B68     		ldr	r3, [r7, #4]
 10387 000a 1B68     		ldr	r3, [r3]
 10388 000c 1B68     		ldr	r3, [r3]
 10389 000e FB60     		str	r3, [r7, #12]
 10390 0010 7B68     		ldr	r3, [r7, #4]
 10391 0012 4222     		movs	r2, #66
 10392 0014 0021     		movs	r1, #0
 10393 0016 9954     		strb	r1, [r3, r2]
 10394 0018 FB68     		ldr	r3, [r7, #12]
 10395 001a 9B0B     		lsrs	r3, r3, #14
 10396 001c 1A00     		movs	r2, r3
 10397 001e 0123     		movs	r3, #1
 10398 0020 1340     		ands	r3, r2
 10399 0022 08D0     		beq	.L631
 10400 0024 7B68     		ldr	r3, [r7, #4]
 10401 0026 1B68     		ldr	r3, [r3]
 10402 0028 1A68     		ldr	r2, [r3]
 10403 002a 7B68     		ldr	r3, [r7, #4]
 10404 002c 1B68     		ldr	r3, [r3]
 10405 002e 2549     		ldr	r1, .L636
 10406 0030 0A40     		ands	r2, r1
 10407 0032 1A60     		str	r2, [r3]
 10408 0034 0DE0     		b	.L632
 10409              	.L631:
 10410 0036 FB68     		ldr	r3, [r7, #12]
 10411 0038 DB0B     		lsrs	r3, r3, #15
 10412 003a 1A00     		movs	r2, r3
 10413 003c 0123     		movs	r3, #1
 10414 003e 1340     		ands	r3, r2
 10415 0040 07D0     		beq	.L632
 10416 0042 7B68     		ldr	r3, [r7, #4]
 10417 0044 1B68     		ldr	r3, [r3]
 10418 0046 1A68     		ldr	r2, [r3]
 10419 0048 7B68     		ldr	r3, [r7, #4]
 10420 004a 1B68     		ldr	r3, [r3]
 10421 004c 1E49     		ldr	r1, .L636+4
 10422 004e 0A40     		ands	r2, r1
 10423 0050 1A60     		str	r2, [r3]
 10424              	.L632:
 10425 0052 7B68     		ldr	r3, [r7, #4]
 10426 0054 4122     		movs	r2, #65
 10427 0056 9B5C     		ldrb	r3, [r3, r2]
 10428 0058 DBB2     		uxtb	r3, r3
 10429 005a 292B     		cmp	r3, #41
 10430 005c 14D1     		bne	.L633
 10431 005e 7B68     		ldr	r3, [r7, #4]
 10432 0060 4122     		movs	r2, #65
 10433 0062 2821     		movs	r1, #40
 10434 0064 9954     		strb	r1, [r3, r2]
 10435 0066 7B68     		ldr	r3, [r7, #4]
 10436 0068 2122     		movs	r2, #33
ARM GAS  /tmp/ccnCrYSN.s 			page 182


 10437 006a 1A63     		str	r2, [r3, #48]
 10438 006c 7B68     		ldr	r3, [r7, #4]
 10439 006e 0121     		movs	r1, #1
 10440 0070 1800     		movs	r0, r3
 10441 0072 FFF7FEFF 		bl	I2C_Disable_IRQ
 10442 0076 7B68     		ldr	r3, [r7, #4]
 10443 0078 4022     		movs	r2, #64
 10444 007a 0021     		movs	r1, #0
 10445 007c 9954     		strb	r1, [r3, r2]
 10446 007e 7B68     		ldr	r3, [r7, #4]
 10447 0080 1800     		movs	r0, r3
 10448 0082 FFF7FEFF 		bl	HAL_I2C_SlaveTxCpltCallback
 10449 0086 19E0     		b	.L635
 10450              	.L633:
 10451 0088 7B68     		ldr	r3, [r7, #4]
 10452 008a 4122     		movs	r2, #65
 10453 008c 9B5C     		ldrb	r3, [r3, r2]
 10454 008e DBB2     		uxtb	r3, r3
 10455 0090 2A2B     		cmp	r3, #42
 10456 0092 13D1     		bne	.L635
 10457 0094 7B68     		ldr	r3, [r7, #4]
 10458 0096 4122     		movs	r2, #65
 10459 0098 2821     		movs	r1, #40
 10460 009a 9954     		strb	r1, [r3, r2]
 10461 009c 7B68     		ldr	r3, [r7, #4]
 10462 009e 2222     		movs	r2, #34
 10463 00a0 1A63     		str	r2, [r3, #48]
 10464 00a2 7B68     		ldr	r3, [r7, #4]
 10465 00a4 0221     		movs	r1, #2
 10466 00a6 1800     		movs	r0, r3
 10467 00a8 FFF7FEFF 		bl	I2C_Disable_IRQ
 10468 00ac 7B68     		ldr	r3, [r7, #4]
 10469 00ae 4022     		movs	r2, #64
 10470 00b0 0021     		movs	r1, #0
 10471 00b2 9954     		strb	r1, [r3, r2]
 10472 00b4 7B68     		ldr	r3, [r7, #4]
 10473 00b6 1800     		movs	r0, r3
 10474 00b8 FFF7FEFF 		bl	HAL_I2C_SlaveRxCpltCallback
 10475              	.L635:
 10476 00bc C046     		nop
 10477 00be BD46     		mov	sp, r7
 10478 00c0 04B0     		add	sp, sp, #16
 10479              		@ sp needed
 10480 00c2 80BD     		pop	{r7, pc}
 10481              	.L637:
 10482              		.align	2
 10483              	.L636:
 10484 00c4 FFBFFFFF 		.word	-16385
 10485 00c8 FF7FFFFF 		.word	-32769
 10487              		.section	.text.I2C_ITMasterCplt,"ax",%progbits
 10488              		.align	1
 10489              		.syntax unified
 10490              		.code	16
 10491              		.thumb_func
 10493              	I2C_ITMasterCplt:
 10494              		@ args = 0, pretend = 0, frame = 24
 10495              		@ frame_needed = 1, uses_anonymous_args = 0
ARM GAS  /tmp/ccnCrYSN.s 			page 183


 10496 0000 80B5     		push	{r7, lr}
 10497 0002 86B0     		sub	sp, sp, #24
 10498 0004 00AF     		add	r7, sp, #0
 10499 0006 7860     		str	r0, [r7, #4]
 10500 0008 3960     		str	r1, [r7]
 10501 000a 3B68     		ldr	r3, [r7]
 10502 000c 7B61     		str	r3, [r7, #20]
 10503 000e 7B68     		ldr	r3, [r7, #4]
 10504 0010 1B68     		ldr	r3, [r3]
 10505 0012 2022     		movs	r2, #32
 10506 0014 DA61     		str	r2, [r3, #28]
 10507 0016 7B68     		ldr	r3, [r7, #4]
 10508 0018 4122     		movs	r2, #65
 10509 001a 9B5C     		ldrb	r3, [r3, r2]
 10510 001c DBB2     		uxtb	r3, r3
 10511 001e 212B     		cmp	r3, #33
 10512 0020 08D1     		bne	.L639
 10513 0022 7B68     		ldr	r3, [r7, #4]
 10514 0024 0121     		movs	r1, #1
 10515 0026 1800     		movs	r0, r3
 10516 0028 FFF7FEFF 		bl	I2C_Disable_IRQ
 10517 002c 7B68     		ldr	r3, [r7, #4]
 10518 002e 1122     		movs	r2, #17
 10519 0030 1A63     		str	r2, [r3, #48]
 10520 0032 0DE0     		b	.L640
 10521              	.L639:
 10522 0034 7B68     		ldr	r3, [r7, #4]
 10523 0036 4122     		movs	r2, #65
 10524 0038 9B5C     		ldrb	r3, [r3, r2]
 10525 003a DBB2     		uxtb	r3, r3
 10526 003c 222B     		cmp	r3, #34
 10527 003e 07D1     		bne	.L640
 10528 0040 7B68     		ldr	r3, [r7, #4]
 10529 0042 0221     		movs	r1, #2
 10530 0044 1800     		movs	r0, r3
 10531 0046 FFF7FEFF 		bl	I2C_Disable_IRQ
 10532 004a 7B68     		ldr	r3, [r7, #4]
 10533 004c 1222     		movs	r2, #18
 10534 004e 1A63     		str	r2, [r3, #48]
 10535              	.L640:
 10536 0050 7B68     		ldr	r3, [r7, #4]
 10537 0052 1B68     		ldr	r3, [r3]
 10538 0054 5A68     		ldr	r2, [r3, #4]
 10539 0056 7B68     		ldr	r3, [r7, #4]
 10540 0058 1B68     		ldr	r3, [r3]
 10541 005a 5049     		ldr	r1, .L650
 10542 005c 0A40     		ands	r2, r1
 10543 005e 5A60     		str	r2, [r3, #4]
 10544 0060 7B68     		ldr	r3, [r7, #4]
 10545 0062 0022     		movs	r2, #0
 10546 0064 5A63     		str	r2, [r3, #52]
 10547 0066 7B68     		ldr	r3, [r7, #4]
 10548 0068 4D4A     		ldr	r2, .L650+4
 10549 006a DA62     		str	r2, [r3, #44]
 10550 006c 7B69     		ldr	r3, [r7, #20]
 10551 006e 1B09     		lsrs	r3, r3, #4
 10552 0070 1A00     		movs	r2, r3
ARM GAS  /tmp/ccnCrYSN.s 			page 184


 10553 0072 0123     		movs	r3, #1
 10554 0074 1340     		ands	r3, r2
 10555 0076 09D0     		beq	.L641
 10556 0078 7B68     		ldr	r3, [r7, #4]
 10557 007a 1B68     		ldr	r3, [r3]
 10558 007c 1022     		movs	r2, #16
 10559 007e DA61     		str	r2, [r3, #28]
 10560 0080 7B68     		ldr	r3, [r7, #4]
 10561 0082 5B6C     		ldr	r3, [r3, #68]
 10562 0084 0422     		movs	r2, #4
 10563 0086 1A43     		orrs	r2, r3
 10564 0088 7B68     		ldr	r3, [r7, #4]
 10565 008a 5A64     		str	r2, [r3, #68]
 10566              	.L641:
 10567 008c 7B68     		ldr	r3, [r7, #4]
 10568 008e 4122     		movs	r2, #65
 10569 0090 9B5C     		ldrb	r3, [r3, r2]
 10570 0092 DBB2     		uxtb	r3, r3
 10571 0094 602B     		cmp	r3, #96
 10572 0096 0BD1     		bne	.L642
 10573 0098 7B69     		ldr	r3, [r7, #20]
 10574 009a 9B08     		lsrs	r3, r3, #2
 10575 009c 1A00     		movs	r2, r3
 10576 009e 0123     		movs	r3, #1
 10577 00a0 1340     		ands	r3, r2
 10578 00a2 05D0     		beq	.L642
 10579 00a4 7B68     		ldr	r3, [r7, #4]
 10580 00a6 1B68     		ldr	r3, [r3]
 10581 00a8 5B6A     		ldr	r3, [r3, #36]
 10582 00aa DBB2     		uxtb	r3, r3
 10583 00ac FB60     		str	r3, [r7, #12]
 10584 00ae FB68     		ldr	r3, [r7, #12]
 10585              	.L642:
 10586 00b0 7B68     		ldr	r3, [r7, #4]
 10587 00b2 1800     		movs	r0, r3
 10588 00b4 FFF7FEFF 		bl	I2C_Flush_TXDR
 10589 00b8 7B68     		ldr	r3, [r7, #4]
 10590 00ba 5B6C     		ldr	r3, [r3, #68]
 10591 00bc 3B61     		str	r3, [r7, #16]
 10592 00be 7B68     		ldr	r3, [r7, #4]
 10593 00c0 4122     		movs	r2, #65
 10594 00c2 9B5C     		ldrb	r3, [r3, r2]
 10595 00c4 DBB2     		uxtb	r3, r3
 10596 00c6 602B     		cmp	r3, #96
 10597 00c8 02D0     		beq	.L643
 10598 00ca 3B69     		ldr	r3, [r7, #16]
 10599 00cc 002B     		cmp	r3, #0
 10600 00ce 07D0     		beq	.L644
 10601              	.L643:
 10602 00d0 7B68     		ldr	r3, [r7, #4]
 10603 00d2 5A6C     		ldr	r2, [r3, #68]
 10604 00d4 7B68     		ldr	r3, [r7, #4]
 10605 00d6 1100     		movs	r1, r2
 10606 00d8 1800     		movs	r0, r3
 10607 00da FFF7FEFF 		bl	I2C_ITError
 10608 00de 58E0     		b	.L649
 10609              	.L644:
ARM GAS  /tmp/ccnCrYSN.s 			page 185


 10610 00e0 7B68     		ldr	r3, [r7, #4]
 10611 00e2 4122     		movs	r2, #65
 10612 00e4 9B5C     		ldrb	r3, [r3, r2]
 10613 00e6 DBB2     		uxtb	r3, r3
 10614 00e8 212B     		cmp	r3, #33
 10615 00ea 26D1     		bne	.L646
 10616 00ec 7B68     		ldr	r3, [r7, #4]
 10617 00ee 4122     		movs	r2, #65
 10618 00f0 2021     		movs	r1, #32
 10619 00f2 9954     		strb	r1, [r3, r2]
 10620 00f4 7B68     		ldr	r3, [r7, #4]
 10621 00f6 0022     		movs	r2, #0
 10622 00f8 1A63     		str	r2, [r3, #48]
 10623 00fa 7B68     		ldr	r3, [r7, #4]
 10624 00fc 4222     		movs	r2, #66
 10625 00fe 9B5C     		ldrb	r3, [r3, r2]
 10626 0100 DBB2     		uxtb	r3, r3
 10627 0102 402B     		cmp	r3, #64
 10628 0104 0CD1     		bne	.L647
 10629 0106 7B68     		ldr	r3, [r7, #4]
 10630 0108 4222     		movs	r2, #66
 10631 010a 0021     		movs	r1, #0
 10632 010c 9954     		strb	r1, [r3, r2]
 10633 010e 7B68     		ldr	r3, [r7, #4]
 10634 0110 4022     		movs	r2, #64
 10635 0112 0021     		movs	r1, #0
 10636 0114 9954     		strb	r1, [r3, r2]
 10637 0116 7B68     		ldr	r3, [r7, #4]
 10638 0118 1800     		movs	r0, r3
 10639 011a FFF7FEFF 		bl	HAL_I2C_MemTxCpltCallback
 10640 011e 38E0     		b	.L649
 10641              	.L647:
 10642 0120 7B68     		ldr	r3, [r7, #4]
 10643 0122 4222     		movs	r2, #66
 10644 0124 0021     		movs	r1, #0
 10645 0126 9954     		strb	r1, [r3, r2]
 10646 0128 7B68     		ldr	r3, [r7, #4]
 10647 012a 4022     		movs	r2, #64
 10648 012c 0021     		movs	r1, #0
 10649 012e 9954     		strb	r1, [r3, r2]
 10650 0130 7B68     		ldr	r3, [r7, #4]
 10651 0132 1800     		movs	r0, r3
 10652 0134 FFF7FEFF 		bl	HAL_I2C_MasterTxCpltCallback
 10653 0138 2BE0     		b	.L649
 10654              	.L646:
 10655 013a 7B68     		ldr	r3, [r7, #4]
 10656 013c 4122     		movs	r2, #65
 10657 013e 9B5C     		ldrb	r3, [r3, r2]
 10658 0140 DBB2     		uxtb	r3, r3
 10659 0142 222B     		cmp	r3, #34
 10660 0144 25D1     		bne	.L649
 10661 0146 7B68     		ldr	r3, [r7, #4]
 10662 0148 4122     		movs	r2, #65
 10663 014a 2021     		movs	r1, #32
 10664 014c 9954     		strb	r1, [r3, r2]
 10665 014e 7B68     		ldr	r3, [r7, #4]
 10666 0150 0022     		movs	r2, #0
ARM GAS  /tmp/ccnCrYSN.s 			page 186


 10667 0152 1A63     		str	r2, [r3, #48]
 10668 0154 7B68     		ldr	r3, [r7, #4]
 10669 0156 4222     		movs	r2, #66
 10670 0158 9B5C     		ldrb	r3, [r3, r2]
 10671 015a DBB2     		uxtb	r3, r3
 10672 015c 402B     		cmp	r3, #64
 10673 015e 0CD1     		bne	.L648
 10674 0160 7B68     		ldr	r3, [r7, #4]
 10675 0162 4222     		movs	r2, #66
 10676 0164 0021     		movs	r1, #0
 10677 0166 9954     		strb	r1, [r3, r2]
 10678 0168 7B68     		ldr	r3, [r7, #4]
 10679 016a 4022     		movs	r2, #64
 10680 016c 0021     		movs	r1, #0
 10681 016e 9954     		strb	r1, [r3, r2]
 10682 0170 7B68     		ldr	r3, [r7, #4]
 10683 0172 1800     		movs	r0, r3
 10684 0174 FFF7FEFF 		bl	HAL_I2C_MemRxCpltCallback
 10685 0178 0BE0     		b	.L649
 10686              	.L648:
 10687 017a 7B68     		ldr	r3, [r7, #4]
 10688 017c 4222     		movs	r2, #66
 10689 017e 0021     		movs	r1, #0
 10690 0180 9954     		strb	r1, [r3, r2]
 10691 0182 7B68     		ldr	r3, [r7, #4]
 10692 0184 4022     		movs	r2, #64
 10693 0186 0021     		movs	r1, #0
 10694 0188 9954     		strb	r1, [r3, r2]
 10695 018a 7B68     		ldr	r3, [r7, #4]
 10696 018c 1800     		movs	r0, r3
 10697 018e FFF7FEFF 		bl	HAL_I2C_MasterRxCpltCallback
 10698              	.L649:
 10699 0192 C046     		nop
 10700 0194 BD46     		mov	sp, r7
 10701 0196 06B0     		add	sp, sp, #24
 10702              		@ sp needed
 10703 0198 80BD     		pop	{r7, pc}
 10704              	.L651:
 10705 019a C046     		.align	2
 10706              	.L650:
 10707 019c 00E800FE 		.word	-33495040
 10708 01a0 0000FFFF 		.word	-65536
 10710              		.section	.text.I2C_ITSlaveCplt,"ax",%progbits
 10711              		.align	1
 10712              		.syntax unified
 10713              		.code	16
 10714              		.thumb_func
 10716              	I2C_ITSlaveCplt:
 10717              		@ args = 0, pretend = 0, frame = 24
 10718              		@ frame_needed = 1, uses_anonymous_args = 0
 10719 0000 80B5     		push	{r7, lr}
 10720 0002 86B0     		sub	sp, sp, #24
 10721 0004 00AF     		add	r7, sp, #0
 10722 0006 7860     		str	r0, [r7, #4]
 10723 0008 3960     		str	r1, [r7]
 10724 000a 7B68     		ldr	r3, [r7, #4]
 10725 000c 1B68     		ldr	r3, [r3]
ARM GAS  /tmp/ccnCrYSN.s 			page 187


 10726 000e 1B68     		ldr	r3, [r3]
 10727 0010 3B61     		str	r3, [r7, #16]
 10728 0012 3B68     		ldr	r3, [r7]
 10729 0014 7B61     		str	r3, [r7, #20]
 10730 0016 7B68     		ldr	r3, [r7, #4]
 10731 0018 DB6A     		ldr	r3, [r3, #44]
 10732 001a FB60     		str	r3, [r7, #12]
 10733 001c 0B20     		movs	r0, #11
 10734 001e 3B18     		adds	r3, r7, r0
 10735 0020 7A68     		ldr	r2, [r7, #4]
 10736 0022 4121     		movs	r1, #65
 10737 0024 525C     		ldrb	r2, [r2, r1]
 10738 0026 1A70     		strb	r2, [r3]
 10739 0028 7B68     		ldr	r3, [r7, #4]
 10740 002a 1B68     		ldr	r3, [r3]
 10741 002c 2022     		movs	r2, #32
 10742 002e DA61     		str	r2, [r3, #28]
 10743 0030 3B18     		adds	r3, r7, r0
 10744 0032 1B78     		ldrb	r3, [r3]
 10745 0034 212B     		cmp	r3, #33
 10746 0036 03D0     		beq	.L653
 10747 0038 3B18     		adds	r3, r7, r0
 10748 003a 1B78     		ldrb	r3, [r3]
 10749 003c 292B     		cmp	r3, #41
 10750 003e 09D1     		bne	.L654
 10751              	.L653:
 10752 0040 B04A     		ldr	r2, .L673
 10753 0042 7B68     		ldr	r3, [r7, #4]
 10754 0044 1100     		movs	r1, r2
 10755 0046 1800     		movs	r0, r3
 10756 0048 FFF7FEFF 		bl	I2C_Disable_IRQ
 10757 004c 7B68     		ldr	r3, [r7, #4]
 10758 004e 2122     		movs	r2, #33
 10759 0050 1A63     		str	r2, [r3, #48]
 10760 0052 20E0     		b	.L655
 10761              	.L654:
 10762 0054 0B22     		movs	r2, #11
 10763 0056 BB18     		adds	r3, r7, r2
 10764 0058 1B78     		ldrb	r3, [r3]
 10765 005a 222B     		cmp	r3, #34
 10766 005c 03D0     		beq	.L656
 10767 005e BB18     		adds	r3, r7, r2
 10768 0060 1B78     		ldrb	r3, [r3]
 10769 0062 2A2B     		cmp	r3, #42
 10770 0064 09D1     		bne	.L657
 10771              	.L656:
 10772 0066 A84A     		ldr	r2, .L673+4
 10773 0068 7B68     		ldr	r3, [r7, #4]
 10774 006a 1100     		movs	r1, r2
 10775 006c 1800     		movs	r0, r3
 10776 006e FFF7FEFF 		bl	I2C_Disable_IRQ
 10777 0072 7B68     		ldr	r3, [r7, #4]
 10778 0074 2222     		movs	r2, #34
 10779 0076 1A63     		str	r2, [r3, #48]
 10780 0078 0DE0     		b	.L655
 10781              	.L657:
 10782 007a 0B23     		movs	r3, #11
ARM GAS  /tmp/ccnCrYSN.s 			page 188


 10783 007c FB18     		adds	r3, r7, r3
 10784 007e 1B78     		ldrb	r3, [r3]
 10785 0080 282B     		cmp	r3, #40
 10786 0082 08D1     		bne	.L655
 10787 0084 A14A     		ldr	r2, .L673+8
 10788 0086 7B68     		ldr	r3, [r7, #4]
 10789 0088 1100     		movs	r1, r2
 10790 008a 1800     		movs	r0, r3
 10791 008c FFF7FEFF 		bl	I2C_Disable_IRQ
 10792 0090 7B68     		ldr	r3, [r7, #4]
 10793 0092 0022     		movs	r2, #0
 10794 0094 1A63     		str	r2, [r3, #48]
 10795              	.L655:
 10796 0096 7B68     		ldr	r3, [r7, #4]
 10797 0098 1B68     		ldr	r3, [r3]
 10798 009a 5A68     		ldr	r2, [r3, #4]
 10799 009c 7B68     		ldr	r3, [r7, #4]
 10800 009e 1B68     		ldr	r3, [r3]
 10801 00a0 8021     		movs	r1, #128
 10802 00a2 0902     		lsls	r1, r1, #8
 10803 00a4 0A43     		orrs	r2, r1
 10804 00a6 5A60     		str	r2, [r3, #4]
 10805 00a8 7B68     		ldr	r3, [r7, #4]
 10806 00aa 1B68     		ldr	r3, [r3]
 10807 00ac 5A68     		ldr	r2, [r3, #4]
 10808 00ae 7B68     		ldr	r3, [r7, #4]
 10809 00b0 1B68     		ldr	r3, [r3]
 10810 00b2 9749     		ldr	r1, .L673+12
 10811 00b4 0A40     		ands	r2, r1
 10812 00b6 5A60     		str	r2, [r3, #4]
 10813 00b8 7B68     		ldr	r3, [r7, #4]
 10814 00ba 1800     		movs	r0, r3
 10815 00bc FFF7FEFF 		bl	I2C_Flush_TXDR
 10816 00c0 3B69     		ldr	r3, [r7, #16]
 10817 00c2 9B0B     		lsrs	r3, r3, #14
 10818 00c4 1A00     		movs	r2, r3
 10819 00c6 0123     		movs	r3, #1
 10820 00c8 1340     		ands	r3, r2
 10821 00ca 13D0     		beq	.L658
 10822 00cc 7B68     		ldr	r3, [r7, #4]
 10823 00ce 1B68     		ldr	r3, [r3]
 10824 00d0 1A68     		ldr	r2, [r3]
 10825 00d2 7B68     		ldr	r3, [r7, #4]
 10826 00d4 1B68     		ldr	r3, [r3]
 10827 00d6 8F49     		ldr	r1, .L673+16
 10828 00d8 0A40     		ands	r2, r1
 10829 00da 1A60     		str	r2, [r3]
 10830 00dc 7B68     		ldr	r3, [r7, #4]
 10831 00de 9B6B     		ldr	r3, [r3, #56]
 10832 00e0 002B     		cmp	r3, #0
 10833 00e2 20D0     		beq	.L659
 10834 00e4 7B68     		ldr	r3, [r7, #4]
 10835 00e6 9B6B     		ldr	r3, [r3, #56]
 10836 00e8 1B68     		ldr	r3, [r3]
 10837 00ea 5B68     		ldr	r3, [r3, #4]
 10838 00ec 9AB2     		uxth	r2, r3
 10839 00ee 7B68     		ldr	r3, [r7, #4]
ARM GAS  /tmp/ccnCrYSN.s 			page 189


 10840 00f0 5A85     		strh	r2, [r3, #42]
 10841 00f2 18E0     		b	.L659
 10842              	.L658:
 10843 00f4 3B69     		ldr	r3, [r7, #16]
 10844 00f6 DB0B     		lsrs	r3, r3, #15
 10845 00f8 1A00     		movs	r2, r3
 10846 00fa 0123     		movs	r3, #1
 10847 00fc 1340     		ands	r3, r2
 10848 00fe 12D0     		beq	.L659
 10849 0100 7B68     		ldr	r3, [r7, #4]
 10850 0102 1B68     		ldr	r3, [r3]
 10851 0104 1A68     		ldr	r2, [r3]
 10852 0106 7B68     		ldr	r3, [r7, #4]
 10853 0108 1B68     		ldr	r3, [r3]
 10854 010a 8349     		ldr	r1, .L673+20
 10855 010c 0A40     		ands	r2, r1
 10856 010e 1A60     		str	r2, [r3]
 10857 0110 7B68     		ldr	r3, [r7, #4]
 10858 0112 DB6B     		ldr	r3, [r3, #60]
 10859 0114 002B     		cmp	r3, #0
 10860 0116 06D0     		beq	.L659
 10861 0118 7B68     		ldr	r3, [r7, #4]
 10862 011a DB6B     		ldr	r3, [r3, #60]
 10863 011c 1B68     		ldr	r3, [r3]
 10864 011e 5B68     		ldr	r3, [r3, #4]
 10865 0120 9AB2     		uxth	r2, r3
 10866 0122 7B68     		ldr	r3, [r7, #4]
 10867 0124 5A85     		strh	r2, [r3, #42]
 10868              	.L659:
 10869 0126 7B69     		ldr	r3, [r7, #20]
 10870 0128 9B08     		lsrs	r3, r3, #2
 10871 012a 1A00     		movs	r2, r3
 10872 012c 0123     		movs	r3, #1
 10873 012e 1340     		ands	r3, r2
 10874 0130 20D0     		beq	.L660
 10875 0132 7B69     		ldr	r3, [r7, #20]
 10876 0134 0422     		movs	r2, #4
 10877 0136 9343     		bics	r3, r2
 10878 0138 7B61     		str	r3, [r7, #20]
 10879 013a 7B68     		ldr	r3, [r7, #4]
 10880 013c 1B68     		ldr	r3, [r3]
 10881 013e 5A6A     		ldr	r2, [r3, #36]
 10882 0140 7B68     		ldr	r3, [r7, #4]
 10883 0142 5B6A     		ldr	r3, [r3, #36]
 10884 0144 D2B2     		uxtb	r2, r2
 10885 0146 1A70     		strb	r2, [r3]
 10886 0148 7B68     		ldr	r3, [r7, #4]
 10887 014a 5B6A     		ldr	r3, [r3, #36]
 10888 014c 5A1C     		adds	r2, r3, #1
 10889 014e 7B68     		ldr	r3, [r7, #4]
 10890 0150 5A62     		str	r2, [r3, #36]
 10891 0152 7B68     		ldr	r3, [r7, #4]
 10892 0154 1B8D     		ldrh	r3, [r3, #40]
 10893 0156 002B     		cmp	r3, #0
 10894 0158 0CD0     		beq	.L660
 10895 015a 7B68     		ldr	r3, [r7, #4]
 10896 015c 1B8D     		ldrh	r3, [r3, #40]
ARM GAS  /tmp/ccnCrYSN.s 			page 190


 10897 015e 013B     		subs	r3, r3, #1
 10898 0160 9AB2     		uxth	r2, r3
 10899 0162 7B68     		ldr	r3, [r7, #4]
 10900 0164 1A85     		strh	r2, [r3, #40]
 10901 0166 7B68     		ldr	r3, [r7, #4]
 10902 0168 5B8D     		ldrh	r3, [r3, #42]
 10903 016a 9BB2     		uxth	r3, r3
 10904 016c 013B     		subs	r3, r3, #1
 10905 016e 9AB2     		uxth	r2, r3
 10906 0170 7B68     		ldr	r3, [r7, #4]
 10907 0172 5A85     		strh	r2, [r3, #42]
 10908              	.L660:
 10909 0174 7B68     		ldr	r3, [r7, #4]
 10910 0176 5B8D     		ldrh	r3, [r3, #42]
 10911 0178 9BB2     		uxth	r3, r3
 10912 017a 002B     		cmp	r3, #0
 10913 017c 05D0     		beq	.L661
 10914 017e 7B68     		ldr	r3, [r7, #4]
 10915 0180 5B6C     		ldr	r3, [r3, #68]
 10916 0182 0422     		movs	r2, #4
 10917 0184 1A43     		orrs	r2, r3
 10918 0186 7B68     		ldr	r3, [r7, #4]
 10919 0188 5A64     		str	r2, [r3, #68]
 10920              	.L661:
 10921 018a 7B69     		ldr	r3, [r7, #20]
 10922 018c 1B09     		lsrs	r3, r3, #4
 10923 018e 1A00     		movs	r2, r3
 10924 0190 0123     		movs	r3, #1
 10925 0192 1340     		ands	r3, r2
 10926 0194 51D0     		beq	.L662
 10927 0196 3B69     		ldr	r3, [r7, #16]
 10928 0198 1B09     		lsrs	r3, r3, #4
 10929 019a 1A00     		movs	r2, r3
 10930 019c 0123     		movs	r3, #1
 10931 019e 1340     		ands	r3, r2
 10932 01a0 4BD0     		beq	.L662
 10933 01a2 7B68     		ldr	r3, [r7, #4]
 10934 01a4 5B8D     		ldrh	r3, [r3, #42]
 10935 01a6 9BB2     		uxth	r3, r3
 10936 01a8 002B     		cmp	r3, #0
 10937 01aa 2DD1     		bne	.L663
 10938 01ac 7B68     		ldr	r3, [r7, #4]
 10939 01ae 4122     		movs	r2, #65
 10940 01b0 9B5C     		ldrb	r3, [r3, r2]
 10941 01b2 DBB2     		uxtb	r3, r3
 10942 01b4 282B     		cmp	r3, #40
 10943 01b6 0BD1     		bne	.L664
 10944 01b8 FA68     		ldr	r2, [r7, #12]
 10945 01ba 8023     		movs	r3, #128
 10946 01bc 9B04     		lsls	r3, r3, #18
 10947 01be 9A42     		cmp	r2, r3
 10948 01c0 06D1     		bne	.L664
 10949 01c2 7A69     		ldr	r2, [r7, #20]
 10950 01c4 7B68     		ldr	r3, [r7, #4]
 10951 01c6 1100     		movs	r1, r2
 10952 01c8 1800     		movs	r0, r3
 10953 01ca FFF7FEFF 		bl	I2C_ITListenCplt
ARM GAS  /tmp/ccnCrYSN.s 			page 191


 10954 01ce 34E0     		b	.L662
 10955              	.L664:
 10956 01d0 7B68     		ldr	r3, [r7, #4]
 10957 01d2 4122     		movs	r2, #65
 10958 01d4 9B5C     		ldrb	r3, [r3, r2]
 10959 01d6 DBB2     		uxtb	r3, r3
 10960 01d8 292B     		cmp	r3, #41
 10961 01da 10D1     		bne	.L666
 10962 01dc FB68     		ldr	r3, [r7, #12]
 10963 01de 4F4A     		ldr	r2, .L673+24
 10964 01e0 9342     		cmp	r3, r2
 10965 01e2 0CD0     		beq	.L666
 10966 01e4 7B68     		ldr	r3, [r7, #4]
 10967 01e6 1B68     		ldr	r3, [r3]
 10968 01e8 1022     		movs	r2, #16
 10969 01ea DA61     		str	r2, [r3, #28]
 10970 01ec 7B68     		ldr	r3, [r7, #4]
 10971 01ee 1800     		movs	r0, r3
 10972 01f0 FFF7FEFF 		bl	I2C_Flush_TXDR
 10973 01f4 7B68     		ldr	r3, [r7, #4]
 10974 01f6 1800     		movs	r0, r3
 10975 01f8 FFF7FEFF 		bl	I2C_ITSlaveSeqCplt
 10976 01fc 1DE0     		b	.L662
 10977              	.L666:
 10978 01fe 7B68     		ldr	r3, [r7, #4]
 10979 0200 1B68     		ldr	r3, [r3]
 10980 0202 1022     		movs	r2, #16
 10981 0204 DA61     		str	r2, [r3, #28]
 10982 0206 18E0     		b	.L662
 10983              	.L663:
 10984 0208 7B68     		ldr	r3, [r7, #4]
 10985 020a 1B68     		ldr	r3, [r3]
 10986 020c 1022     		movs	r2, #16
 10987 020e DA61     		str	r2, [r3, #28]
 10988 0210 7B68     		ldr	r3, [r7, #4]
 10989 0212 5B6C     		ldr	r3, [r3, #68]
 10990 0214 0422     		movs	r2, #4
 10991 0216 1A43     		orrs	r2, r3
 10992 0218 7B68     		ldr	r3, [r7, #4]
 10993 021a 5A64     		str	r2, [r3, #68]
 10994 021c FB68     		ldr	r3, [r7, #12]
 10995 021e 002B     		cmp	r3, #0
 10996 0220 04D0     		beq	.L667
 10997 0222 FA68     		ldr	r2, [r7, #12]
 10998 0224 8023     		movs	r3, #128
 10999 0226 5B04     		lsls	r3, r3, #17
 11000 0228 9A42     		cmp	r2, r3
 11001 022a 06D1     		bne	.L662
 11002              	.L667:
 11003 022c 7B68     		ldr	r3, [r7, #4]
 11004 022e 5A6C     		ldr	r2, [r3, #68]
 11005 0230 7B68     		ldr	r3, [r7, #4]
 11006 0232 1100     		movs	r1, r2
 11007 0234 1800     		movs	r0, r3
 11008 0236 FFF7FEFF 		bl	I2C_ITError
 11009              	.L662:
 11010 023a 7B68     		ldr	r3, [r7, #4]
ARM GAS  /tmp/ccnCrYSN.s 			page 192


 11011 023c 4222     		movs	r2, #66
 11012 023e 0021     		movs	r1, #0
 11013 0240 9954     		strb	r1, [r3, r2]
 11014 0242 7B68     		ldr	r3, [r7, #4]
 11015 0244 0022     		movs	r2, #0
 11016 0246 5A63     		str	r2, [r3, #52]
 11017 0248 7B68     		ldr	r3, [r7, #4]
 11018 024a 5B6C     		ldr	r3, [r3, #68]
 11019 024c 002B     		cmp	r3, #0
 11020 024e 13D0     		beq	.L668
 11021 0250 7B68     		ldr	r3, [r7, #4]
 11022 0252 5A6C     		ldr	r2, [r3, #68]
 11023 0254 7B68     		ldr	r3, [r7, #4]
 11024 0256 1100     		movs	r1, r2
 11025 0258 1800     		movs	r0, r3
 11026 025a FFF7FEFF 		bl	I2C_ITError
 11027 025e 7B68     		ldr	r3, [r7, #4]
 11028 0260 4122     		movs	r2, #65
 11029 0262 9B5C     		ldrb	r3, [r3, r2]
 11030 0264 DBB2     		uxtb	r3, r3
 11031 0266 282B     		cmp	r3, #40
 11032 0268 47D1     		bne	.L672
 11033 026a 7A69     		ldr	r2, [r7, #20]
 11034 026c 7B68     		ldr	r3, [r7, #4]
 11035 026e 1100     		movs	r1, r2
 11036 0270 1800     		movs	r0, r3
 11037 0272 FFF7FEFF 		bl	I2C_ITListenCplt
 11038 0276 40E0     		b	.L672
 11039              	.L668:
 11040 0278 7B68     		ldr	r3, [r7, #4]
 11041 027a DB6A     		ldr	r3, [r3, #44]
 11042 027c 274A     		ldr	r2, .L673+24
 11043 027e 9342     		cmp	r3, r2
 11044 0280 16D0     		beq	.L670
 11045 0282 7B68     		ldr	r3, [r7, #4]
 11046 0284 1800     		movs	r0, r3
 11047 0286 FFF7FEFF 		bl	I2C_ITSlaveSeqCplt
 11048 028a 7B68     		ldr	r3, [r7, #4]
 11049 028c 234A     		ldr	r2, .L673+24
 11050 028e DA62     		str	r2, [r3, #44]
 11051 0290 7B68     		ldr	r3, [r7, #4]
 11052 0292 4122     		movs	r2, #65
 11053 0294 2021     		movs	r1, #32
 11054 0296 9954     		strb	r1, [r3, r2]
 11055 0298 7B68     		ldr	r3, [r7, #4]
 11056 029a 0022     		movs	r2, #0
 11057 029c 1A63     		str	r2, [r3, #48]
 11058 029e 7B68     		ldr	r3, [r7, #4]
 11059 02a0 4022     		movs	r2, #64
 11060 02a2 0021     		movs	r1, #0
 11061 02a4 9954     		strb	r1, [r3, r2]
 11062 02a6 7B68     		ldr	r3, [r7, #4]
 11063 02a8 1800     		movs	r0, r3
 11064 02aa FFF7FEFF 		bl	HAL_I2C_ListenCpltCallback
 11065 02ae 24E0     		b	.L672
 11066              	.L670:
 11067 02b0 7B68     		ldr	r3, [r7, #4]
ARM GAS  /tmp/ccnCrYSN.s 			page 193


 11068 02b2 4122     		movs	r2, #65
 11069 02b4 9B5C     		ldrb	r3, [r3, r2]
 11070 02b6 DBB2     		uxtb	r3, r3
 11071 02b8 222B     		cmp	r3, #34
 11072 02ba 0FD1     		bne	.L671
 11073 02bc 7B68     		ldr	r3, [r7, #4]
 11074 02be 4122     		movs	r2, #65
 11075 02c0 2021     		movs	r1, #32
 11076 02c2 9954     		strb	r1, [r3, r2]
 11077 02c4 7B68     		ldr	r3, [r7, #4]
 11078 02c6 0022     		movs	r2, #0
 11079 02c8 1A63     		str	r2, [r3, #48]
 11080 02ca 7B68     		ldr	r3, [r7, #4]
 11081 02cc 4022     		movs	r2, #64
 11082 02ce 0021     		movs	r1, #0
 11083 02d0 9954     		strb	r1, [r3, r2]
 11084 02d2 7B68     		ldr	r3, [r7, #4]
 11085 02d4 1800     		movs	r0, r3
 11086 02d6 FFF7FEFF 		bl	HAL_I2C_SlaveRxCpltCallback
 11087 02da 0EE0     		b	.L672
 11088              	.L671:
 11089 02dc 7B68     		ldr	r3, [r7, #4]
 11090 02de 4122     		movs	r2, #65
 11091 02e0 2021     		movs	r1, #32
 11092 02e2 9954     		strb	r1, [r3, r2]
 11093 02e4 7B68     		ldr	r3, [r7, #4]
 11094 02e6 0022     		movs	r2, #0
 11095 02e8 1A63     		str	r2, [r3, #48]
 11096 02ea 7B68     		ldr	r3, [r7, #4]
 11097 02ec 4022     		movs	r2, #64
 11098 02ee 0021     		movs	r1, #0
 11099 02f0 9954     		strb	r1, [r3, r2]
 11100 02f2 7B68     		ldr	r3, [r7, #4]
 11101 02f4 1800     		movs	r0, r3
 11102 02f6 FFF7FEFF 		bl	HAL_I2C_SlaveTxCpltCallback
 11103              	.L672:
 11104 02fa C046     		nop
 11105 02fc BD46     		mov	sp, r7
 11106 02fe 06B0     		add	sp, sp, #24
 11107              		@ sp needed
 11108 0300 80BD     		pop	{r7, pc}
 11109              	.L674:
 11110 0302 C046     		.align	2
 11111              	.L673:
 11112 0304 01800000 		.word	32769
 11113 0308 02800000 		.word	32770
 11114 030c 03800000 		.word	32771
 11115 0310 00E800FE 		.word	-33495040
 11116 0314 FFBFFFFF 		.word	-16385
 11117 0318 FF7FFFFF 		.word	-32769
 11118 031c 0000FFFF 		.word	-65536
 11120              		.section	.text.I2C_ITListenCplt,"ax",%progbits
 11121              		.align	1
 11122              		.syntax unified
 11123              		.code	16
 11124              		.thumb_func
 11126              	I2C_ITListenCplt:
ARM GAS  /tmp/ccnCrYSN.s 			page 194


 11127              		@ args = 0, pretend = 0, frame = 8
 11128              		@ frame_needed = 1, uses_anonymous_args = 0
 11129 0000 80B5     		push	{r7, lr}
 11130 0002 82B0     		sub	sp, sp, #8
 11131 0004 00AF     		add	r7, sp, #0
 11132 0006 7860     		str	r0, [r7, #4]
 11133 0008 3960     		str	r1, [r7]
 11134 000a 7B68     		ldr	r3, [r7, #4]
 11135 000c 274A     		ldr	r2, .L677
 11136 000e DA62     		str	r2, [r3, #44]
 11137 0010 7B68     		ldr	r3, [r7, #4]
 11138 0012 0022     		movs	r2, #0
 11139 0014 1A63     		str	r2, [r3, #48]
 11140 0016 7B68     		ldr	r3, [r7, #4]
 11141 0018 4122     		movs	r2, #65
 11142 001a 2021     		movs	r1, #32
 11143 001c 9954     		strb	r1, [r3, r2]
 11144 001e 7B68     		ldr	r3, [r7, #4]
 11145 0020 4222     		movs	r2, #66
 11146 0022 0021     		movs	r1, #0
 11147 0024 9954     		strb	r1, [r3, r2]
 11148 0026 7B68     		ldr	r3, [r7, #4]
 11149 0028 0022     		movs	r2, #0
 11150 002a 5A63     		str	r2, [r3, #52]
 11151 002c 3B68     		ldr	r3, [r7]
 11152 002e 9B08     		lsrs	r3, r3, #2
 11153 0030 1A00     		movs	r2, r3
 11154 0032 0123     		movs	r3, #1
 11155 0034 1340     		ands	r3, r2
 11156 0036 22D0     		beq	.L676
 11157 0038 7B68     		ldr	r3, [r7, #4]
 11158 003a 1B68     		ldr	r3, [r3]
 11159 003c 5A6A     		ldr	r2, [r3, #36]
 11160 003e 7B68     		ldr	r3, [r7, #4]
 11161 0040 5B6A     		ldr	r3, [r3, #36]
 11162 0042 D2B2     		uxtb	r2, r2
 11163 0044 1A70     		strb	r2, [r3]
 11164 0046 7B68     		ldr	r3, [r7, #4]
 11165 0048 5B6A     		ldr	r3, [r3, #36]
 11166 004a 5A1C     		adds	r2, r3, #1
 11167 004c 7B68     		ldr	r3, [r7, #4]
 11168 004e 5A62     		str	r2, [r3, #36]
 11169 0050 7B68     		ldr	r3, [r7, #4]
 11170 0052 1B8D     		ldrh	r3, [r3, #40]
 11171 0054 002B     		cmp	r3, #0
 11172 0056 12D0     		beq	.L676
 11173 0058 7B68     		ldr	r3, [r7, #4]
 11174 005a 1B8D     		ldrh	r3, [r3, #40]
 11175 005c 013B     		subs	r3, r3, #1
 11176 005e 9AB2     		uxth	r2, r3
 11177 0060 7B68     		ldr	r3, [r7, #4]
 11178 0062 1A85     		strh	r2, [r3, #40]
 11179 0064 7B68     		ldr	r3, [r7, #4]
 11180 0066 5B8D     		ldrh	r3, [r3, #42]
 11181 0068 9BB2     		uxth	r3, r3
 11182 006a 013B     		subs	r3, r3, #1
 11183 006c 9AB2     		uxth	r2, r3
ARM GAS  /tmp/ccnCrYSN.s 			page 195


 11184 006e 7B68     		ldr	r3, [r7, #4]
 11185 0070 5A85     		strh	r2, [r3, #42]
 11186 0072 7B68     		ldr	r3, [r7, #4]
 11187 0074 5B6C     		ldr	r3, [r3, #68]
 11188 0076 0422     		movs	r2, #4
 11189 0078 1A43     		orrs	r2, r3
 11190 007a 7B68     		ldr	r3, [r7, #4]
 11191 007c 5A64     		str	r2, [r3, #68]
 11192              	.L676:
 11193 007e 0C4A     		ldr	r2, .L677+4
 11194 0080 7B68     		ldr	r3, [r7, #4]
 11195 0082 1100     		movs	r1, r2
 11196 0084 1800     		movs	r0, r3
 11197 0086 FFF7FEFF 		bl	I2C_Disable_IRQ
 11198 008a 7B68     		ldr	r3, [r7, #4]
 11199 008c 1B68     		ldr	r3, [r3]
 11200 008e 1022     		movs	r2, #16
 11201 0090 DA61     		str	r2, [r3, #28]
 11202 0092 7B68     		ldr	r3, [r7, #4]
 11203 0094 4022     		movs	r2, #64
 11204 0096 0021     		movs	r1, #0
 11205 0098 9954     		strb	r1, [r3, r2]
 11206 009a 7B68     		ldr	r3, [r7, #4]
 11207 009c 1800     		movs	r0, r3
 11208 009e FFF7FEFF 		bl	HAL_I2C_ListenCpltCallback
 11209 00a2 C046     		nop
 11210 00a4 BD46     		mov	sp, r7
 11211 00a6 02B0     		add	sp, sp, #8
 11212              		@ sp needed
 11213 00a8 80BD     		pop	{r7, pc}
 11214              	.L678:
 11215 00aa C046     		.align	2
 11216              	.L677:
 11217 00ac 0000FFFF 		.word	-65536
 11218 00b0 03800000 		.word	32771
 11220              		.section	.text.I2C_ITError,"ax",%progbits
 11221              		.align	1
 11222              		.syntax unified
 11223              		.code	16
 11224              		.thumb_func
 11226              	I2C_ITError:
 11227              		@ args = 0, pretend = 0, frame = 16
 11228              		@ frame_needed = 1, uses_anonymous_args = 0
 11229 0000 80B5     		push	{r7, lr}
 11230 0002 84B0     		sub	sp, sp, #16
 11231 0004 00AF     		add	r7, sp, #0
 11232 0006 7860     		str	r0, [r7, #4]
 11233 0008 3960     		str	r1, [r7]
 11234 000a 0F20     		movs	r0, #15
 11235 000c 3B18     		adds	r3, r7, r0
 11236 000e 7A68     		ldr	r2, [r7, #4]
 11237 0010 4121     		movs	r1, #65
 11238 0012 525C     		ldrb	r2, [r2, r1]
 11239 0014 1A70     		strb	r2, [r3]
 11240 0016 7B68     		ldr	r3, [r7, #4]
 11241 0018 4222     		movs	r2, #66
 11242 001a 0021     		movs	r1, #0
ARM GAS  /tmp/ccnCrYSN.s 			page 196


 11243 001c 9954     		strb	r1, [r3, r2]
 11244 001e 7B68     		ldr	r3, [r7, #4]
 11245 0020 724A     		ldr	r2, .L699
 11246 0022 DA62     		str	r2, [r3, #44]
 11247 0024 7B68     		ldr	r3, [r7, #4]
 11248 0026 0022     		movs	r2, #0
 11249 0028 5A85     		strh	r2, [r3, #42]
 11250 002a 7B68     		ldr	r3, [r7, #4]
 11251 002c 5A6C     		ldr	r2, [r3, #68]
 11252 002e 3B68     		ldr	r3, [r7]
 11253 0030 1A43     		orrs	r2, r3
 11254 0032 7B68     		ldr	r3, [r7, #4]
 11255 0034 5A64     		str	r2, [r3, #68]
 11256 0036 3B18     		adds	r3, r7, r0
 11257 0038 1B78     		ldrb	r3, [r3]
 11258 003a 282B     		cmp	r3, #40
 11259 003c 07D0     		beq	.L680
 11260 003e 3B18     		adds	r3, r7, r0
 11261 0040 1B78     		ldrb	r3, [r3]
 11262 0042 292B     		cmp	r3, #41
 11263 0044 03D0     		beq	.L680
 11264 0046 3B18     		adds	r3, r7, r0
 11265 0048 1B78     		ldrb	r3, [r3]
 11266 004a 2A2B     		cmp	r3, #42
 11267 004c 0CD1     		bne	.L681
 11268              	.L680:
 11269 004e 7B68     		ldr	r3, [r7, #4]
 11270 0050 0321     		movs	r1, #3
 11271 0052 1800     		movs	r0, r3
 11272 0054 FFF7FEFF 		bl	I2C_Disable_IRQ
 11273 0058 7B68     		ldr	r3, [r7, #4]
 11274 005a 4122     		movs	r2, #65
 11275 005c 2821     		movs	r1, #40
 11276 005e 9954     		strb	r1, [r3, r2]
 11277 0060 7B68     		ldr	r3, [r7, #4]
 11278 0062 634A     		ldr	r2, .L699+4
 11279 0064 5A63     		str	r2, [r3, #52]
 11280 0066 32E0     		b	.L682
 11281              	.L681:
 11282 0068 624A     		ldr	r2, .L699+8
 11283 006a 7B68     		ldr	r3, [r7, #4]
 11284 006c 1100     		movs	r1, r2
 11285 006e 1800     		movs	r0, r3
 11286 0070 FFF7FEFF 		bl	I2C_Disable_IRQ
 11287 0074 7B68     		ldr	r3, [r7, #4]
 11288 0076 1800     		movs	r0, r3
 11289 0078 FFF7FEFF 		bl	I2C_Flush_TXDR
 11290 007c 7B68     		ldr	r3, [r7, #4]
 11291 007e 4122     		movs	r2, #65
 11292 0080 9B5C     		ldrb	r3, [r3, r2]
 11293 0082 DBB2     		uxtb	r3, r3
 11294 0084 602B     		cmp	r3, #96
 11295 0086 1FD0     		beq	.L683
 11296 0088 7B68     		ldr	r3, [r7, #4]
 11297 008a 4122     		movs	r2, #65
 11298 008c 2021     		movs	r1, #32
 11299 008e 9954     		strb	r1, [r3, r2]
ARM GAS  /tmp/ccnCrYSN.s 			page 197


 11300 0090 7B68     		ldr	r3, [r7, #4]
 11301 0092 1B68     		ldr	r3, [r3]
 11302 0094 9B69     		ldr	r3, [r3, #24]
 11303 0096 2022     		movs	r2, #32
 11304 0098 1340     		ands	r3, r2
 11305 009a 202B     		cmp	r3, #32
 11306 009c 14D1     		bne	.L683
 11307 009e 7B68     		ldr	r3, [r7, #4]
 11308 00a0 1B68     		ldr	r3, [r3]
 11309 00a2 9B69     		ldr	r3, [r3, #24]
 11310 00a4 1022     		movs	r2, #16
 11311 00a6 1340     		ands	r3, r2
 11312 00a8 102B     		cmp	r3, #16
 11313 00aa 09D1     		bne	.L684
 11314 00ac 7B68     		ldr	r3, [r7, #4]
 11315 00ae 1B68     		ldr	r3, [r3]
 11316 00b0 1022     		movs	r2, #16
 11317 00b2 DA61     		str	r2, [r3, #28]
 11318 00b4 7B68     		ldr	r3, [r7, #4]
 11319 00b6 5B6C     		ldr	r3, [r3, #68]
 11320 00b8 0422     		movs	r2, #4
 11321 00ba 1A43     		orrs	r2, r3
 11322 00bc 7B68     		ldr	r3, [r7, #4]
 11323 00be 5A64     		str	r2, [r3, #68]
 11324              	.L684:
 11325 00c0 7B68     		ldr	r3, [r7, #4]
 11326 00c2 1B68     		ldr	r3, [r3]
 11327 00c4 2022     		movs	r2, #32
 11328 00c6 DA61     		str	r2, [r3, #28]
 11329              	.L683:
 11330 00c8 7B68     		ldr	r3, [r7, #4]
 11331 00ca 0022     		movs	r2, #0
 11332 00cc 5A63     		str	r2, [r3, #52]
 11333              	.L682:
 11334 00ce 7B68     		ldr	r3, [r7, #4]
 11335 00d0 1B6B     		ldr	r3, [r3, #48]
 11336 00d2 BB60     		str	r3, [r7, #8]
 11337 00d4 7B68     		ldr	r3, [r7, #4]
 11338 00d6 9B6B     		ldr	r3, [r3, #56]
 11339 00d8 002B     		cmp	r3, #0
 11340 00da 3BD0     		beq	.L685
 11341 00dc BB68     		ldr	r3, [r7, #8]
 11342 00de 112B     		cmp	r3, #17
 11343 00e0 02D0     		beq	.L686
 11344 00e2 BB68     		ldr	r3, [r7, #8]
 11345 00e4 212B     		cmp	r3, #33
 11346 00e6 35D1     		bne	.L685
 11347              	.L686:
 11348 00e8 7B68     		ldr	r3, [r7, #4]
 11349 00ea 1B68     		ldr	r3, [r3]
 11350 00ec 1A68     		ldr	r2, [r3]
 11351 00ee 8023     		movs	r3, #128
 11352 00f0 DB01     		lsls	r3, r3, #7
 11353 00f2 1A40     		ands	r2, r3
 11354 00f4 8023     		movs	r3, #128
 11355 00f6 DB01     		lsls	r3, r3, #7
 11356 00f8 9A42     		cmp	r2, r3
ARM GAS  /tmp/ccnCrYSN.s 			page 198


 11357 00fa 07D1     		bne	.L687
 11358 00fc 7B68     		ldr	r3, [r7, #4]
 11359 00fe 1B68     		ldr	r3, [r3]
 11360 0100 1A68     		ldr	r2, [r3]
 11361 0102 7B68     		ldr	r3, [r7, #4]
 11362 0104 1B68     		ldr	r3, [r3]
 11363 0106 3C49     		ldr	r1, .L699+12
 11364 0108 0A40     		ands	r2, r1
 11365 010a 1A60     		str	r2, [r3]
 11366              	.L687:
 11367 010c 7B68     		ldr	r3, [r7, #4]
 11368 010e 9B6B     		ldr	r3, [r3, #56]
 11369 0110 1800     		movs	r0, r3
 11370 0112 FFF7FEFF 		bl	HAL_DMA_GetState
 11371 0116 0300     		movs	r3, r0
 11372 0118 012B     		cmp	r3, #1
 11373 011a 16D0     		beq	.L688
 11374 011c 7B68     		ldr	r3, [r7, #4]
 11375 011e 9B6B     		ldr	r3, [r3, #56]
 11376 0120 364A     		ldr	r2, .L699+16
 11377 0122 5A63     		str	r2, [r3, #52]
 11378 0124 7B68     		ldr	r3, [r7, #4]
 11379 0126 4022     		movs	r2, #64
 11380 0128 0021     		movs	r1, #0
 11381 012a 9954     		strb	r1, [r3, r2]
 11382 012c 7B68     		ldr	r3, [r7, #4]
 11383 012e 9B6B     		ldr	r3, [r3, #56]
 11384 0130 1800     		movs	r0, r3
 11385 0132 FFF7FEFF 		bl	HAL_DMA_Abort_IT
 11386 0136 031E     		subs	r3, r0, #0
 11387 0138 51D0     		beq	.L696
 11388 013a 7B68     		ldr	r3, [r7, #4]
 11389 013c 9B6B     		ldr	r3, [r3, #56]
 11390 013e 5A6B     		ldr	r2, [r3, #52]
 11391 0140 7B68     		ldr	r3, [r7, #4]
 11392 0142 9B6B     		ldr	r3, [r3, #56]
 11393 0144 1800     		movs	r0, r3
 11394 0146 9047     		blx	r2
 11395 0148 49E0     		b	.L696
 11396              	.L688:
 11397 014a 7B68     		ldr	r3, [r7, #4]
 11398 014c 1800     		movs	r0, r3
 11399 014e FFF7FEFF 		bl	I2C_TreatErrorCallback
 11400 0152 44E0     		b	.L696
 11401              	.L685:
 11402 0154 7B68     		ldr	r3, [r7, #4]
 11403 0156 DB6B     		ldr	r3, [r3, #60]
 11404 0158 002B     		cmp	r3, #0
 11405 015a 3BD0     		beq	.L691
 11406 015c BB68     		ldr	r3, [r7, #8]
 11407 015e 122B     		cmp	r3, #18
 11408 0160 02D0     		beq	.L692
 11409 0162 BB68     		ldr	r3, [r7, #8]
 11410 0164 222B     		cmp	r3, #34
 11411 0166 35D1     		bne	.L691
 11412              	.L692:
 11413 0168 7B68     		ldr	r3, [r7, #4]
ARM GAS  /tmp/ccnCrYSN.s 			page 199


 11414 016a 1B68     		ldr	r3, [r3]
 11415 016c 1A68     		ldr	r2, [r3]
 11416 016e 8023     		movs	r3, #128
 11417 0170 1B02     		lsls	r3, r3, #8
 11418 0172 1A40     		ands	r2, r3
 11419 0174 8023     		movs	r3, #128
 11420 0176 1B02     		lsls	r3, r3, #8
 11421 0178 9A42     		cmp	r2, r3
 11422 017a 07D1     		bne	.L693
 11423 017c 7B68     		ldr	r3, [r7, #4]
 11424 017e 1B68     		ldr	r3, [r3]
 11425 0180 1A68     		ldr	r2, [r3]
 11426 0182 7B68     		ldr	r3, [r7, #4]
 11427 0184 1B68     		ldr	r3, [r3]
 11428 0186 1E49     		ldr	r1, .L699+20
 11429 0188 0A40     		ands	r2, r1
 11430 018a 1A60     		str	r2, [r3]
 11431              	.L693:
 11432 018c 7B68     		ldr	r3, [r7, #4]
 11433 018e DB6B     		ldr	r3, [r3, #60]
 11434 0190 1800     		movs	r0, r3
 11435 0192 FFF7FEFF 		bl	HAL_DMA_GetState
 11436 0196 0300     		movs	r3, r0
 11437 0198 012B     		cmp	r3, #1
 11438 019a 16D0     		beq	.L694
 11439 019c 7B68     		ldr	r3, [r7, #4]
 11440 019e DB6B     		ldr	r3, [r3, #60]
 11441 01a0 164A     		ldr	r2, .L699+16
 11442 01a2 5A63     		str	r2, [r3, #52]
 11443 01a4 7B68     		ldr	r3, [r7, #4]
 11444 01a6 4022     		movs	r2, #64
 11445 01a8 0021     		movs	r1, #0
 11446 01aa 9954     		strb	r1, [r3, r2]
 11447 01ac 7B68     		ldr	r3, [r7, #4]
 11448 01ae DB6B     		ldr	r3, [r3, #60]
 11449 01b0 1800     		movs	r0, r3
 11450 01b2 FFF7FEFF 		bl	HAL_DMA_Abort_IT
 11451 01b6 031E     		subs	r3, r0, #0
 11452 01b8 13D0     		beq	.L697
 11453 01ba 7B68     		ldr	r3, [r7, #4]
 11454 01bc DB6B     		ldr	r3, [r3, #60]
 11455 01be 5A6B     		ldr	r2, [r3, #52]
 11456 01c0 7B68     		ldr	r3, [r7, #4]
 11457 01c2 DB6B     		ldr	r3, [r3, #60]
 11458 01c4 1800     		movs	r0, r3
 11459 01c6 9047     		blx	r2
 11460 01c8 0BE0     		b	.L697
 11461              	.L694:
 11462 01ca 7B68     		ldr	r3, [r7, #4]
 11463 01cc 1800     		movs	r0, r3
 11464 01ce FFF7FEFF 		bl	I2C_TreatErrorCallback
 11465 01d2 06E0     		b	.L697
 11466              	.L691:
 11467 01d4 7B68     		ldr	r3, [r7, #4]
 11468 01d6 1800     		movs	r0, r3
 11469 01d8 FFF7FEFF 		bl	I2C_TreatErrorCallback
 11470 01dc 02E0     		b	.L698
ARM GAS  /tmp/ccnCrYSN.s 			page 200


 11471              	.L696:
 11472 01de C046     		nop
 11473 01e0 00E0     		b	.L698
 11474              	.L697:
 11475 01e2 C046     		nop
 11476              	.L698:
 11477 01e4 C046     		nop
 11478 01e6 BD46     		mov	sp, r7
 11479 01e8 04B0     		add	sp, sp, #16
 11480              		@ sp needed
 11481 01ea 80BD     		pop	{r7, pc}
 11482              	.L700:
 11483              		.align	2
 11484              	.L699:
 11485 01ec 0000FFFF 		.word	-65536
 11486 01f0 00000000 		.word	I2C_Slave_ISR_IT
 11487 01f4 03800000 		.word	32771
 11488 01f8 FFBFFFFF 		.word	-16385
 11489 01fc 00000000 		.word	I2C_DMAAbort
 11490 0200 FF7FFFFF 		.word	-32769
 11492              		.section	.text.I2C_TreatErrorCallback,"ax",%progbits
 11493              		.align	1
 11494              		.syntax unified
 11495              		.code	16
 11496              		.thumb_func
 11498              	I2C_TreatErrorCallback:
 11499              		@ args = 0, pretend = 0, frame = 8
 11500              		@ frame_needed = 1, uses_anonymous_args = 0
 11501 0000 80B5     		push	{r7, lr}
 11502 0002 82B0     		sub	sp, sp, #8
 11503 0004 00AF     		add	r7, sp, #0
 11504 0006 7860     		str	r0, [r7, #4]
 11505 0008 7B68     		ldr	r3, [r7, #4]
 11506 000a 4122     		movs	r2, #65
 11507 000c 9B5C     		ldrb	r3, [r3, r2]
 11508 000e DBB2     		uxtb	r3, r3
 11509 0010 602B     		cmp	r3, #96
 11510 0012 0FD1     		bne	.L702
 11511 0014 7B68     		ldr	r3, [r7, #4]
 11512 0016 4122     		movs	r2, #65
 11513 0018 2021     		movs	r1, #32
 11514 001a 9954     		strb	r1, [r3, r2]
 11515 001c 7B68     		ldr	r3, [r7, #4]
 11516 001e 0022     		movs	r2, #0
 11517 0020 1A63     		str	r2, [r3, #48]
 11518 0022 7B68     		ldr	r3, [r7, #4]
 11519 0024 4022     		movs	r2, #64
 11520 0026 0021     		movs	r1, #0
 11521 0028 9954     		strb	r1, [r3, r2]
 11522 002a 7B68     		ldr	r3, [r7, #4]
 11523 002c 1800     		movs	r0, r3
 11524 002e FFF7FEFF 		bl	HAL_I2C_AbortCpltCallback
 11525 0032 0AE0     		b	.L704
 11526              	.L702:
 11527 0034 7B68     		ldr	r3, [r7, #4]
 11528 0036 0022     		movs	r2, #0
 11529 0038 1A63     		str	r2, [r3, #48]
ARM GAS  /tmp/ccnCrYSN.s 			page 201


 11530 003a 7B68     		ldr	r3, [r7, #4]
 11531 003c 4022     		movs	r2, #64
 11532 003e 0021     		movs	r1, #0
 11533 0040 9954     		strb	r1, [r3, r2]
 11534 0042 7B68     		ldr	r3, [r7, #4]
 11535 0044 1800     		movs	r0, r3
 11536 0046 FFF7FEFF 		bl	HAL_I2C_ErrorCallback
 11537              	.L704:
 11538 004a C046     		nop
 11539 004c BD46     		mov	sp, r7
 11540 004e 02B0     		add	sp, sp, #8
 11541              		@ sp needed
 11542 0050 80BD     		pop	{r7, pc}
 11544              		.section	.text.I2C_Flush_TXDR,"ax",%progbits
 11545              		.align	1
 11546              		.syntax unified
 11547              		.code	16
 11548              		.thumb_func
 11550              	I2C_Flush_TXDR:
 11551              		@ args = 0, pretend = 0, frame = 8
 11552              		@ frame_needed = 1, uses_anonymous_args = 0
 11553 0000 80B5     		push	{r7, lr}
 11554 0002 82B0     		sub	sp, sp, #8
 11555 0004 00AF     		add	r7, sp, #0
 11556 0006 7860     		str	r0, [r7, #4]
 11557 0008 7B68     		ldr	r3, [r7, #4]
 11558 000a 1B68     		ldr	r3, [r3]
 11559 000c 9B69     		ldr	r3, [r3, #24]
 11560 000e 0222     		movs	r2, #2
 11561 0010 1340     		ands	r3, r2
 11562 0012 022B     		cmp	r3, #2
 11563 0014 03D1     		bne	.L706
 11564 0016 7B68     		ldr	r3, [r7, #4]
 11565 0018 1B68     		ldr	r3, [r3]
 11566 001a 0022     		movs	r2, #0
 11567 001c 9A62     		str	r2, [r3, #40]
 11568              	.L706:
 11569 001e 7B68     		ldr	r3, [r7, #4]
 11570 0020 1B68     		ldr	r3, [r3]
 11571 0022 9B69     		ldr	r3, [r3, #24]
 11572 0024 0122     		movs	r2, #1
 11573 0026 1340     		ands	r3, r2
 11574 0028 012B     		cmp	r3, #1
 11575 002a 07D0     		beq	.L708
 11576 002c 7B68     		ldr	r3, [r7, #4]
 11577 002e 1B68     		ldr	r3, [r3]
 11578 0030 9A69     		ldr	r2, [r3, #24]
 11579 0032 7B68     		ldr	r3, [r7, #4]
 11580 0034 1B68     		ldr	r3, [r3]
 11581 0036 0121     		movs	r1, #1
 11582 0038 0A43     		orrs	r2, r1
 11583 003a 9A61     		str	r2, [r3, #24]
 11584              	.L708:
 11585 003c C046     		nop
 11586 003e BD46     		mov	sp, r7
 11587 0040 02B0     		add	sp, sp, #8
 11588              		@ sp needed
ARM GAS  /tmp/ccnCrYSN.s 			page 202


 11589 0042 80BD     		pop	{r7, pc}
 11591              		.section	.text.I2C_DMAMasterTransmitCplt,"ax",%progbits
 11592              		.align	1
 11593              		.syntax unified
 11594              		.code	16
 11595              		.thumb_func
 11597              	I2C_DMAMasterTransmitCplt:
 11598              		@ args = 0, pretend = 0, frame = 16
 11599              		@ frame_needed = 1, uses_anonymous_args = 0
 11600 0000 80B5     		push	{r7, lr}
 11601 0002 84B0     		sub	sp, sp, #16
 11602 0004 00AF     		add	r7, sp, #0
 11603 0006 7860     		str	r0, [r7, #4]
 11604 0008 7B68     		ldr	r3, [r7, #4]
 11605 000a 5B6A     		ldr	r3, [r3, #36]
 11606 000c FB60     		str	r3, [r7, #12]
 11607 000e FB68     		ldr	r3, [r7, #12]
 11608 0010 1B68     		ldr	r3, [r3]
 11609 0012 1A68     		ldr	r2, [r3]
 11610 0014 FB68     		ldr	r3, [r7, #12]
 11611 0016 1B68     		ldr	r3, [r3]
 11612 0018 2049     		ldr	r1, .L716
 11613 001a 0A40     		ands	r2, r1
 11614 001c 1A60     		str	r2, [r3]
 11615 001e FB68     		ldr	r3, [r7, #12]
 11616 0020 5B8D     		ldrh	r3, [r3, #42]
 11617 0022 9BB2     		uxth	r3, r3
 11618 0024 002B     		cmp	r3, #0
 11619 0026 05D1     		bne	.L710
 11620 0028 FB68     		ldr	r3, [r7, #12]
 11621 002a 2021     		movs	r1, #32
 11622 002c 1800     		movs	r0, r3
 11623 002e FFF7FEFF 		bl	I2C_Enable_IRQ
 11624 0032 2EE0     		b	.L715
 11625              	.L710:
 11626 0034 FB68     		ldr	r3, [r7, #12]
 11627 0036 5B6A     		ldr	r3, [r3, #36]
 11628 0038 FA68     		ldr	r2, [r7, #12]
 11629 003a 128D     		ldrh	r2, [r2, #40]
 11630 003c 9A18     		adds	r2, r3, r2
 11631 003e FB68     		ldr	r3, [r7, #12]
 11632 0040 5A62     		str	r2, [r3, #36]
 11633 0042 FB68     		ldr	r3, [r7, #12]
 11634 0044 5B8D     		ldrh	r3, [r3, #42]
 11635 0046 9BB2     		uxth	r3, r3
 11636 0048 FF2B     		cmp	r3, #255
 11637 004a 03D9     		bls	.L712
 11638 004c FB68     		ldr	r3, [r7, #12]
 11639 004e FF22     		movs	r2, #255
 11640 0050 1A85     		strh	r2, [r3, #40]
 11641 0052 04E0     		b	.L713
 11642              	.L712:
 11643 0054 FB68     		ldr	r3, [r7, #12]
 11644 0056 5B8D     		ldrh	r3, [r3, #42]
 11645 0058 9AB2     		uxth	r2, r3
 11646 005a FB68     		ldr	r3, [r7, #12]
 11647 005c 1A85     		strh	r2, [r3, #40]
ARM GAS  /tmp/ccnCrYSN.s 			page 203


 11648              	.L713:
 11649 005e FB68     		ldr	r3, [r7, #12]
 11650 0060 986B     		ldr	r0, [r3, #56]
 11651 0062 FB68     		ldr	r3, [r7, #12]
 11652 0064 5B6A     		ldr	r3, [r3, #36]
 11653 0066 1900     		movs	r1, r3
 11654 0068 FB68     		ldr	r3, [r7, #12]
 11655 006a 1B68     		ldr	r3, [r3]
 11656 006c 2833     		adds	r3, r3, #40
 11657 006e 1A00     		movs	r2, r3
 11658 0070 FB68     		ldr	r3, [r7, #12]
 11659 0072 1B8D     		ldrh	r3, [r3, #40]
 11660 0074 FFF7FEFF 		bl	HAL_DMA_Start_IT
 11661 0078 031E     		subs	r3, r0, #0
 11662 007a 05D0     		beq	.L714
 11663 007c FB68     		ldr	r3, [r7, #12]
 11664 007e 1021     		movs	r1, #16
 11665 0080 1800     		movs	r0, r3
 11666 0082 FFF7FEFF 		bl	I2C_ITError
 11667 0086 04E0     		b	.L715
 11668              	.L714:
 11669 0088 FB68     		ldr	r3, [r7, #12]
 11670 008a 4021     		movs	r1, #64
 11671 008c 1800     		movs	r0, r3
 11672 008e FFF7FEFF 		bl	I2C_Enable_IRQ
 11673              	.L715:
 11674 0092 C046     		nop
 11675 0094 BD46     		mov	sp, r7
 11676 0096 04B0     		add	sp, sp, #16
 11677              		@ sp needed
 11678 0098 80BD     		pop	{r7, pc}
 11679              	.L717:
 11680 009a C046     		.align	2
 11681              	.L716:
 11682 009c FFBFFFFF 		.word	-16385
 11684              		.section	.text.I2C_DMASlaveTransmitCplt,"ax",%progbits
 11685              		.align	1
 11686              		.syntax unified
 11687              		.code	16
 11688              		.thumb_func
 11690              	I2C_DMASlaveTransmitCplt:
 11691              		@ args = 0, pretend = 0, frame = 16
 11692              		@ frame_needed = 1, uses_anonymous_args = 0
 11693 0000 80B5     		push	{r7, lr}
 11694 0002 84B0     		sub	sp, sp, #16
 11695 0004 00AF     		add	r7, sp, #0
 11696 0006 7860     		str	r0, [r7, #4]
 11697 0008 7B68     		ldr	r3, [r7, #4]
 11698 000a 5B6A     		ldr	r3, [r3, #36]
 11699 000c FB60     		str	r3, [r7, #12]
 11700 000e FB68     		ldr	r3, [r7, #12]
 11701 0010 DB6A     		ldr	r3, [r3, #44]
 11702 0012 BB60     		str	r3, [r7, #8]
 11703 0014 BA68     		ldr	r2, [r7, #8]
 11704 0016 8023     		movs	r3, #128
 11705 0018 5B04     		lsls	r3, r3, #17
 11706 001a 9A42     		cmp	r2, r3
ARM GAS  /tmp/ccnCrYSN.s 			page 204


 11707 001c 02D0     		beq	.L719
 11708 001e BB68     		ldr	r3, [r7, #8]
 11709 0020 002B     		cmp	r3, #0
 11710 0022 0BD1     		bne	.L721
 11711              	.L719:
 11712 0024 FB68     		ldr	r3, [r7, #12]
 11713 0026 1B68     		ldr	r3, [r3]
 11714 0028 1A68     		ldr	r2, [r3]
 11715 002a FB68     		ldr	r3, [r7, #12]
 11716 002c 1B68     		ldr	r3, [r3]
 11717 002e 0549     		ldr	r1, .L722
 11718 0030 0A40     		ands	r2, r1
 11719 0032 1A60     		str	r2, [r3]
 11720 0034 FB68     		ldr	r3, [r7, #12]
 11721 0036 1800     		movs	r0, r3
 11722 0038 FFF7FEFF 		bl	I2C_ITSlaveSeqCplt
 11723              	.L721:
 11724 003c C046     		nop
 11725 003e BD46     		mov	sp, r7
 11726 0040 04B0     		add	sp, sp, #16
 11727              		@ sp needed
 11728 0042 80BD     		pop	{r7, pc}
 11729              	.L723:
 11730              		.align	2
 11731              	.L722:
 11732 0044 FFBFFFFF 		.word	-16385
 11734              		.section	.text.I2C_DMAMasterReceiveCplt,"ax",%progbits
 11735              		.align	1
 11736              		.syntax unified
 11737              		.code	16
 11738              		.thumb_func
 11740              	I2C_DMAMasterReceiveCplt:
 11741              		@ args = 0, pretend = 0, frame = 16
 11742              		@ frame_needed = 1, uses_anonymous_args = 0
 11743 0000 80B5     		push	{r7, lr}
 11744 0002 84B0     		sub	sp, sp, #16
 11745 0004 00AF     		add	r7, sp, #0
 11746 0006 7860     		str	r0, [r7, #4]
 11747 0008 7B68     		ldr	r3, [r7, #4]
 11748 000a 5B6A     		ldr	r3, [r3, #36]
 11749 000c FB60     		str	r3, [r7, #12]
 11750 000e FB68     		ldr	r3, [r7, #12]
 11751 0010 1B68     		ldr	r3, [r3]
 11752 0012 1A68     		ldr	r2, [r3]
 11753 0014 FB68     		ldr	r3, [r7, #12]
 11754 0016 1B68     		ldr	r3, [r3]
 11755 0018 2749     		ldr	r1, .L732
 11756 001a 0A40     		ands	r2, r1
 11757 001c 1A60     		str	r2, [r3]
 11758 001e FB68     		ldr	r3, [r7, #12]
 11759 0020 5B8D     		ldrh	r3, [r3, #42]
 11760 0022 9BB2     		uxth	r3, r3
 11761 0024 002B     		cmp	r3, #0
 11762 0026 05D1     		bne	.L725
 11763 0028 FB68     		ldr	r3, [r7, #12]
 11764 002a 2021     		movs	r1, #32
 11765 002c 1800     		movs	r0, r3
ARM GAS  /tmp/ccnCrYSN.s 			page 205


 11766 002e FFF7FEFF 		bl	I2C_Enable_IRQ
 11767 0032 3CE0     		b	.L731
 11768              	.L725:
 11769 0034 FB68     		ldr	r3, [r7, #12]
 11770 0036 5B6A     		ldr	r3, [r3, #36]
 11771 0038 FA68     		ldr	r2, [r7, #12]
 11772 003a 128D     		ldrh	r2, [r2, #40]
 11773 003c 9A18     		adds	r2, r3, r2
 11774 003e FB68     		ldr	r3, [r7, #12]
 11775 0040 5A62     		str	r2, [r3, #36]
 11776 0042 FB68     		ldr	r3, [r7, #12]
 11777 0044 5B8D     		ldrh	r3, [r3, #42]
 11778 0046 9BB2     		uxth	r3, r3
 11779 0048 FF2B     		cmp	r3, #255
 11780 004a 11D9     		bls	.L727
 11781 004c FB68     		ldr	r3, [r7, #12]
 11782 004e 1B68     		ldr	r3, [r3]
 11783 0050 9B69     		ldr	r3, [r3, #24]
 11784 0052 1B0C     		lsrs	r3, r3, #16
 11785 0054 DBB2     		uxtb	r3, r3
 11786 0056 0122     		movs	r2, #1
 11787 0058 1340     		ands	r3, r2
 11788 005a DBB2     		uxtb	r3, r3
 11789 005c 012B     		cmp	r3, #1
 11790 005e 03D1     		bne	.L728
 11791 0060 FB68     		ldr	r3, [r7, #12]
 11792 0062 0122     		movs	r2, #1
 11793 0064 1A85     		strh	r2, [r3, #40]
 11794 0066 08E0     		b	.L729
 11795              	.L728:
 11796 0068 FB68     		ldr	r3, [r7, #12]
 11797 006a FF22     		movs	r2, #255
 11798 006c 1A85     		strh	r2, [r3, #40]
 11799 006e 04E0     		b	.L729
 11800              	.L727:
 11801 0070 FB68     		ldr	r3, [r7, #12]
 11802 0072 5B8D     		ldrh	r3, [r3, #42]
 11803 0074 9AB2     		uxth	r2, r3
 11804 0076 FB68     		ldr	r3, [r7, #12]
 11805 0078 1A85     		strh	r2, [r3, #40]
 11806              	.L729:
 11807 007a FB68     		ldr	r3, [r7, #12]
 11808 007c D86B     		ldr	r0, [r3, #60]
 11809 007e FB68     		ldr	r3, [r7, #12]
 11810 0080 1B68     		ldr	r3, [r3]
 11811 0082 2433     		adds	r3, r3, #36
 11812 0084 1900     		movs	r1, r3
 11813 0086 FB68     		ldr	r3, [r7, #12]
 11814 0088 5B6A     		ldr	r3, [r3, #36]
 11815 008a 1A00     		movs	r2, r3
 11816 008c FB68     		ldr	r3, [r7, #12]
 11817 008e 1B8D     		ldrh	r3, [r3, #40]
 11818 0090 FFF7FEFF 		bl	HAL_DMA_Start_IT
 11819 0094 031E     		subs	r3, r0, #0
 11820 0096 05D0     		beq	.L730
 11821 0098 FB68     		ldr	r3, [r7, #12]
 11822 009a 1021     		movs	r1, #16
ARM GAS  /tmp/ccnCrYSN.s 			page 206


 11823 009c 1800     		movs	r0, r3
 11824 009e FFF7FEFF 		bl	I2C_ITError
 11825 00a2 04E0     		b	.L731
 11826              	.L730:
 11827 00a4 FB68     		ldr	r3, [r7, #12]
 11828 00a6 4021     		movs	r1, #64
 11829 00a8 1800     		movs	r0, r3
 11830 00aa FFF7FEFF 		bl	I2C_Enable_IRQ
 11831              	.L731:
 11832 00ae C046     		nop
 11833 00b0 BD46     		mov	sp, r7
 11834 00b2 04B0     		add	sp, sp, #16
 11835              		@ sp needed
 11836 00b4 80BD     		pop	{r7, pc}
 11837              	.L733:
 11838 00b6 C046     		.align	2
 11839              	.L732:
 11840 00b8 FF7FFFFF 		.word	-32769
 11842              		.section	.text.I2C_DMASlaveReceiveCplt,"ax",%progbits
 11843              		.align	1
 11844              		.syntax unified
 11845              		.code	16
 11846              		.thumb_func
 11848              	I2C_DMASlaveReceiveCplt:
 11849              		@ args = 0, pretend = 0, frame = 16
 11850              		@ frame_needed = 1, uses_anonymous_args = 0
 11851 0000 80B5     		push	{r7, lr}
 11852 0002 84B0     		sub	sp, sp, #16
 11853 0004 00AF     		add	r7, sp, #0
 11854 0006 7860     		str	r0, [r7, #4]
 11855 0008 7B68     		ldr	r3, [r7, #4]
 11856 000a 5B6A     		ldr	r3, [r3, #36]
 11857 000c FB60     		str	r3, [r7, #12]
 11858 000e FB68     		ldr	r3, [r7, #12]
 11859 0010 DB6A     		ldr	r3, [r3, #44]
 11860 0012 BB60     		str	r3, [r7, #8]
 11861 0014 FB68     		ldr	r3, [r7, #12]
 11862 0016 DB6B     		ldr	r3, [r3, #60]
 11863 0018 1B68     		ldr	r3, [r3]
 11864 001a 5B68     		ldr	r3, [r3, #4]
 11865 001c 002B     		cmp	r3, #0
 11866 001e 0FD1     		bne	.L736
 11867 0020 BB68     		ldr	r3, [r7, #8]
 11868 0022 094A     		ldr	r2, .L737
 11869 0024 9342     		cmp	r3, r2
 11870 0026 0BD0     		beq	.L736
 11871 0028 FB68     		ldr	r3, [r7, #12]
 11872 002a 1B68     		ldr	r3, [r3]
 11873 002c 1A68     		ldr	r2, [r3]
 11874 002e FB68     		ldr	r3, [r7, #12]
 11875 0030 1B68     		ldr	r3, [r3]
 11876 0032 0649     		ldr	r1, .L737+4
 11877 0034 0A40     		ands	r2, r1
 11878 0036 1A60     		str	r2, [r3]
 11879 0038 FB68     		ldr	r3, [r7, #12]
 11880 003a 1800     		movs	r0, r3
 11881 003c FFF7FEFF 		bl	I2C_ITSlaveSeqCplt
ARM GAS  /tmp/ccnCrYSN.s 			page 207


 11882              	.L736:
 11883 0040 C046     		nop
 11884 0042 BD46     		mov	sp, r7
 11885 0044 04B0     		add	sp, sp, #16
 11886              		@ sp needed
 11887 0046 80BD     		pop	{r7, pc}
 11888              	.L738:
 11889              		.align	2
 11890              	.L737:
 11891 0048 0000FFFF 		.word	-65536
 11892 004c FF7FFFFF 		.word	-32769
 11894              		.section	.text.I2C_DMAError,"ax",%progbits
 11895              		.align	1
 11896              		.syntax unified
 11897              		.code	16
 11898              		.thumb_func
 11900              	I2C_DMAError:
 11901              		@ args = 0, pretend = 0, frame = 16
 11902              		@ frame_needed = 1, uses_anonymous_args = 0
 11903 0000 80B5     		push	{r7, lr}
 11904 0002 84B0     		sub	sp, sp, #16
 11905 0004 00AF     		add	r7, sp, #0
 11906 0006 7860     		str	r0, [r7, #4]
 11907 0008 7B68     		ldr	r3, [r7, #4]
 11908 000a 5B6A     		ldr	r3, [r3, #36]
 11909 000c FB60     		str	r3, [r7, #12]
 11910 000e FB68     		ldr	r3, [r7, #12]
 11911 0010 1B68     		ldr	r3, [r3]
 11912 0012 5A68     		ldr	r2, [r3, #4]
 11913 0014 FB68     		ldr	r3, [r7, #12]
 11914 0016 1B68     		ldr	r3, [r3]
 11915 0018 8021     		movs	r1, #128
 11916 001a 0902     		lsls	r1, r1, #8
 11917 001c 0A43     		orrs	r2, r1
 11918 001e 5A60     		str	r2, [r3, #4]
 11919 0020 FB68     		ldr	r3, [r7, #12]
 11920 0022 1021     		movs	r1, #16
 11921 0024 1800     		movs	r0, r3
 11922 0026 FFF7FEFF 		bl	I2C_ITError
 11923 002a C046     		nop
 11924 002c BD46     		mov	sp, r7
 11925 002e 04B0     		add	sp, sp, #16
 11926              		@ sp needed
 11927 0030 80BD     		pop	{r7, pc}
 11929              		.section	.text.I2C_DMAAbort,"ax",%progbits
 11930              		.align	1
 11931              		.syntax unified
 11932              		.code	16
 11933              		.thumb_func
 11935              	I2C_DMAAbort:
 11936              		@ args = 0, pretend = 0, frame = 16
 11937              		@ frame_needed = 1, uses_anonymous_args = 0
 11938 0000 80B5     		push	{r7, lr}
 11939 0002 84B0     		sub	sp, sp, #16
 11940 0004 00AF     		add	r7, sp, #0
 11941 0006 7860     		str	r0, [r7, #4]
 11942 0008 7B68     		ldr	r3, [r7, #4]
ARM GAS  /tmp/ccnCrYSN.s 			page 208


 11943 000a 5B6A     		ldr	r3, [r3, #36]
 11944 000c FB60     		str	r3, [r7, #12]
 11945 000e FB68     		ldr	r3, [r7, #12]
 11946 0010 9B6B     		ldr	r3, [r3, #56]
 11947 0012 002B     		cmp	r3, #0
 11948 0014 03D0     		beq	.L741
 11949 0016 FB68     		ldr	r3, [r7, #12]
 11950 0018 9B6B     		ldr	r3, [r3, #56]
 11951 001a 0022     		movs	r2, #0
 11952 001c 5A63     		str	r2, [r3, #52]
 11953              	.L741:
 11954 001e FB68     		ldr	r3, [r7, #12]
 11955 0020 DB6B     		ldr	r3, [r3, #60]
 11956 0022 002B     		cmp	r3, #0
 11957 0024 03D0     		beq	.L742
 11958 0026 FB68     		ldr	r3, [r7, #12]
 11959 0028 DB6B     		ldr	r3, [r3, #60]
 11960 002a 0022     		movs	r2, #0
 11961 002c 5A63     		str	r2, [r3, #52]
 11962              	.L742:
 11963 002e FB68     		ldr	r3, [r7, #12]
 11964 0030 1800     		movs	r0, r3
 11965 0032 FFF7FEFF 		bl	I2C_TreatErrorCallback
 11966 0036 C046     		nop
 11967 0038 BD46     		mov	sp, r7
 11968 003a 04B0     		add	sp, sp, #16
 11969              		@ sp needed
 11970 003c 80BD     		pop	{r7, pc}
 11972              		.section	.text.I2C_WaitOnFlagUntilTimeout,"ax",%progbits
 11973              		.align	1
 11974              		.syntax unified
 11975              		.code	16
 11976              		.thumb_func
 11978              	I2C_WaitOnFlagUntilTimeout:
 11979              		@ args = 4, pretend = 0, frame = 16
 11980              		@ frame_needed = 1, uses_anonymous_args = 0
 11981 0000 80B5     		push	{r7, lr}
 11982 0002 84B0     		sub	sp, sp, #16
 11983 0004 00AF     		add	r7, sp, #0
 11984 0006 F860     		str	r0, [r7, #12]
 11985 0008 B960     		str	r1, [r7, #8]
 11986 000a 3B60     		str	r3, [r7]
 11987 000c FB1D     		adds	r3, r7, #7
 11988 000e 1A70     		strb	r2, [r3]
 11989 0010 3AE0     		b	.L747
 11990              	.L750:
 11991 0012 BA69     		ldr	r2, [r7, #24]
 11992 0014 3968     		ldr	r1, [r7]
 11993 0016 FB68     		ldr	r3, [r7, #12]
 11994 0018 1800     		movs	r0, r3
 11995 001a FFF7FEFF 		bl	I2C_IsErrorOccurred
 11996 001e 031E     		subs	r3, r0, #0
 11997 0020 01D0     		beq	.L745
 11998 0022 0123     		movs	r3, #1
 11999 0024 40E0     		b	.L746
 12000              	.L745:
 12001 0026 3B68     		ldr	r3, [r7]
ARM GAS  /tmp/ccnCrYSN.s 			page 209


 12002 0028 0133     		adds	r3, r3, #1
 12003 002a 2DD0     		beq	.L747
 12004 002c FFF7FEFF 		bl	HAL_GetTick
 12005 0030 0200     		movs	r2, r0
 12006 0032 BB69     		ldr	r3, [r7, #24]
 12007 0034 D31A     		subs	r3, r2, r3
 12008 0036 3A68     		ldr	r2, [r7]
 12009 0038 9A42     		cmp	r2, r3
 12010 003a 02D3     		bcc	.L748
 12011 003c 3B68     		ldr	r3, [r7]
 12012 003e 002B     		cmp	r3, #0
 12013 0040 22D1     		bne	.L747
 12014              	.L748:
 12015 0042 FB68     		ldr	r3, [r7, #12]
 12016 0044 1B68     		ldr	r3, [r3]
 12017 0046 9B69     		ldr	r3, [r3, #24]
 12018 0048 BA68     		ldr	r2, [r7, #8]
 12019 004a 1340     		ands	r3, r2
 12020 004c BA68     		ldr	r2, [r7, #8]
 12021 004e D31A     		subs	r3, r2, r3
 12022 0050 5A42     		rsbs	r2, r3, #0
 12023 0052 5341     		adcs	r3, r3, r2
 12024 0054 DBB2     		uxtb	r3, r3
 12025 0056 1A00     		movs	r2, r3
 12026 0058 FB1D     		adds	r3, r7, #7
 12027 005a 1B78     		ldrb	r3, [r3]
 12028 005c 9A42     		cmp	r2, r3
 12029 005e 13D1     		bne	.L747
 12030 0060 FB68     		ldr	r3, [r7, #12]
 12031 0062 5B6C     		ldr	r3, [r3, #68]
 12032 0064 2022     		movs	r2, #32
 12033 0066 1A43     		orrs	r2, r3
 12034 0068 FB68     		ldr	r3, [r7, #12]
 12035 006a 5A64     		str	r2, [r3, #68]
 12036 006c FB68     		ldr	r3, [r7, #12]
 12037 006e 4122     		movs	r2, #65
 12038 0070 2021     		movs	r1, #32
 12039 0072 9954     		strb	r1, [r3, r2]
 12040 0074 FB68     		ldr	r3, [r7, #12]
 12041 0076 4222     		movs	r2, #66
 12042 0078 0021     		movs	r1, #0
 12043 007a 9954     		strb	r1, [r3, r2]
 12044 007c FB68     		ldr	r3, [r7, #12]
 12045 007e 4022     		movs	r2, #64
 12046 0080 0021     		movs	r1, #0
 12047 0082 9954     		strb	r1, [r3, r2]
 12048 0084 0123     		movs	r3, #1
 12049 0086 0FE0     		b	.L746
 12050              	.L747:
 12051 0088 FB68     		ldr	r3, [r7, #12]
 12052 008a 1B68     		ldr	r3, [r3]
 12053 008c 9B69     		ldr	r3, [r3, #24]
 12054 008e BA68     		ldr	r2, [r7, #8]
 12055 0090 1340     		ands	r3, r2
 12056 0092 BA68     		ldr	r2, [r7, #8]
 12057 0094 D31A     		subs	r3, r2, r3
 12058 0096 5A42     		rsbs	r2, r3, #0
ARM GAS  /tmp/ccnCrYSN.s 			page 210


 12059 0098 5341     		adcs	r3, r3, r2
 12060 009a DBB2     		uxtb	r3, r3
 12061 009c 1A00     		movs	r2, r3
 12062 009e FB1D     		adds	r3, r7, #7
 12063 00a0 1B78     		ldrb	r3, [r3]
 12064 00a2 9A42     		cmp	r2, r3
 12065 00a4 B5D0     		beq	.L750
 12066 00a6 0023     		movs	r3, #0
 12067              	.L746:
 12068 00a8 1800     		movs	r0, r3
 12069 00aa BD46     		mov	sp, r7
 12070 00ac 04B0     		add	sp, sp, #16
 12071              		@ sp needed
 12072 00ae 80BD     		pop	{r7, pc}
 12074              		.section	.text.I2C_WaitOnTXISFlagUntilTimeout,"ax",%progbits
 12075              		.align	1
 12076              		.syntax unified
 12077              		.code	16
 12078              		.thumb_func
 12080              	I2C_WaitOnTXISFlagUntilTimeout:
 12081              		@ args = 0, pretend = 0, frame = 16
 12082              		@ frame_needed = 1, uses_anonymous_args = 0
 12083 0000 80B5     		push	{r7, lr}
 12084 0002 84B0     		sub	sp, sp, #16
 12085 0004 00AF     		add	r7, sp, #0
 12086 0006 F860     		str	r0, [r7, #12]
 12087 0008 B960     		str	r1, [r7, #8]
 12088 000a 7A60     		str	r2, [r7, #4]
 12089 000c 32E0     		b	.L756
 12090              	.L759:
 12091 000e 7A68     		ldr	r2, [r7, #4]
 12092 0010 B968     		ldr	r1, [r7, #8]
 12093 0012 FB68     		ldr	r3, [r7, #12]
 12094 0014 1800     		movs	r0, r3
 12095 0016 FFF7FEFF 		bl	I2C_IsErrorOccurred
 12096 001a 031E     		subs	r3, r0, #0
 12097 001c 01D0     		beq	.L754
 12098 001e 0123     		movs	r3, #1
 12099 0020 30E0     		b	.L755
 12100              	.L754:
 12101 0022 BB68     		ldr	r3, [r7, #8]
 12102 0024 0133     		adds	r3, r3, #1
 12103 0026 25D0     		beq	.L756
 12104 0028 FFF7FEFF 		bl	HAL_GetTick
 12105 002c 0200     		movs	r2, r0
 12106 002e 7B68     		ldr	r3, [r7, #4]
 12107 0030 D31A     		subs	r3, r2, r3
 12108 0032 BA68     		ldr	r2, [r7, #8]
 12109 0034 9A42     		cmp	r2, r3
 12110 0036 02D3     		bcc	.L757
 12111 0038 BB68     		ldr	r3, [r7, #8]
 12112 003a 002B     		cmp	r3, #0
 12113 003c 1AD1     		bne	.L756
 12114              	.L757:
 12115 003e FB68     		ldr	r3, [r7, #12]
 12116 0040 1B68     		ldr	r3, [r3]
 12117 0042 9B69     		ldr	r3, [r3, #24]
ARM GAS  /tmp/ccnCrYSN.s 			page 211


 12118 0044 0222     		movs	r2, #2
 12119 0046 1340     		ands	r3, r2
 12120 0048 022B     		cmp	r3, #2
 12121 004a 13D0     		beq	.L756
 12122 004c FB68     		ldr	r3, [r7, #12]
 12123 004e 5B6C     		ldr	r3, [r3, #68]
 12124 0050 2022     		movs	r2, #32
 12125 0052 1A43     		orrs	r2, r3
 12126 0054 FB68     		ldr	r3, [r7, #12]
 12127 0056 5A64     		str	r2, [r3, #68]
 12128 0058 FB68     		ldr	r3, [r7, #12]
 12129 005a 4122     		movs	r2, #65
 12130 005c 2021     		movs	r1, #32
 12131 005e 9954     		strb	r1, [r3, r2]
 12132 0060 FB68     		ldr	r3, [r7, #12]
 12133 0062 4222     		movs	r2, #66
 12134 0064 0021     		movs	r1, #0
 12135 0066 9954     		strb	r1, [r3, r2]
 12136 0068 FB68     		ldr	r3, [r7, #12]
 12137 006a 4022     		movs	r2, #64
 12138 006c 0021     		movs	r1, #0
 12139 006e 9954     		strb	r1, [r3, r2]
 12140 0070 0123     		movs	r3, #1
 12141 0072 07E0     		b	.L755
 12142              	.L756:
 12143 0074 FB68     		ldr	r3, [r7, #12]
 12144 0076 1B68     		ldr	r3, [r3]
 12145 0078 9B69     		ldr	r3, [r3, #24]
 12146 007a 0222     		movs	r2, #2
 12147 007c 1340     		ands	r3, r2
 12148 007e 022B     		cmp	r3, #2
 12149 0080 C5D1     		bne	.L759
 12150 0082 0023     		movs	r3, #0
 12151              	.L755:
 12152 0084 1800     		movs	r0, r3
 12153 0086 BD46     		mov	sp, r7
 12154 0088 04B0     		add	sp, sp, #16
 12155              		@ sp needed
 12156 008a 80BD     		pop	{r7, pc}
 12158              		.section	.text.I2C_WaitOnSTOPFlagUntilTimeout,"ax",%progbits
 12159              		.align	1
 12160              		.syntax unified
 12161              		.code	16
 12162              		.thumb_func
 12164              	I2C_WaitOnSTOPFlagUntilTimeout:
 12165              		@ args = 0, pretend = 0, frame = 16
 12166              		@ frame_needed = 1, uses_anonymous_args = 0
 12167 0000 80B5     		push	{r7, lr}
 12168 0002 84B0     		sub	sp, sp, #16
 12169 0004 00AF     		add	r7, sp, #0
 12170 0006 F860     		str	r0, [r7, #12]
 12171 0008 B960     		str	r1, [r7, #8]
 12172 000a 7A60     		str	r2, [r7, #4]
 12173 000c 2FE0     		b	.L762
 12174              	.L767:
 12175 000e 7A68     		ldr	r2, [r7, #4]
 12176 0010 B968     		ldr	r1, [r7, #8]
ARM GAS  /tmp/ccnCrYSN.s 			page 212


 12177 0012 FB68     		ldr	r3, [r7, #12]
 12178 0014 1800     		movs	r0, r3
 12179 0016 FFF7FEFF 		bl	I2C_IsErrorOccurred
 12180 001a 031E     		subs	r3, r0, #0
 12181 001c 01D0     		beq	.L763
 12182 001e 0123     		movs	r3, #1
 12183 0020 2DE0     		b	.L764
 12184              	.L763:
 12185 0022 FFF7FEFF 		bl	HAL_GetTick
 12186 0026 0200     		movs	r2, r0
 12187 0028 7B68     		ldr	r3, [r7, #4]
 12188 002a D31A     		subs	r3, r2, r3
 12189 002c BA68     		ldr	r2, [r7, #8]
 12190 002e 9A42     		cmp	r2, r3
 12191 0030 02D3     		bcc	.L765
 12192 0032 BB68     		ldr	r3, [r7, #8]
 12193 0034 002B     		cmp	r3, #0
 12194 0036 1AD1     		bne	.L762
 12195              	.L765:
 12196 0038 FB68     		ldr	r3, [r7, #12]
 12197 003a 1B68     		ldr	r3, [r3]
 12198 003c 9B69     		ldr	r3, [r3, #24]
 12199 003e 2022     		movs	r2, #32
 12200 0040 1340     		ands	r3, r2
 12201 0042 202B     		cmp	r3, #32
 12202 0044 13D0     		beq	.L762
 12203 0046 FB68     		ldr	r3, [r7, #12]
 12204 0048 5B6C     		ldr	r3, [r3, #68]
 12205 004a 2022     		movs	r2, #32
 12206 004c 1A43     		orrs	r2, r3
 12207 004e FB68     		ldr	r3, [r7, #12]
 12208 0050 5A64     		str	r2, [r3, #68]
 12209 0052 FB68     		ldr	r3, [r7, #12]
 12210 0054 4122     		movs	r2, #65
 12211 0056 2021     		movs	r1, #32
 12212 0058 9954     		strb	r1, [r3, r2]
 12213 005a FB68     		ldr	r3, [r7, #12]
 12214 005c 4222     		movs	r2, #66
 12215 005e 0021     		movs	r1, #0
 12216 0060 9954     		strb	r1, [r3, r2]
 12217 0062 FB68     		ldr	r3, [r7, #12]
 12218 0064 4022     		movs	r2, #64
 12219 0066 0021     		movs	r1, #0
 12220 0068 9954     		strb	r1, [r3, r2]
 12221 006a 0123     		movs	r3, #1
 12222 006c 07E0     		b	.L764
 12223              	.L762:
 12224 006e FB68     		ldr	r3, [r7, #12]
 12225 0070 1B68     		ldr	r3, [r3]
 12226 0072 9B69     		ldr	r3, [r3, #24]
 12227 0074 2022     		movs	r2, #32
 12228 0076 1340     		ands	r3, r2
 12229 0078 202B     		cmp	r3, #32
 12230 007a C8D1     		bne	.L767
 12231 007c 0023     		movs	r3, #0
 12232              	.L764:
 12233 007e 1800     		movs	r0, r3
ARM GAS  /tmp/ccnCrYSN.s 			page 213


 12234 0080 BD46     		mov	sp, r7
 12235 0082 04B0     		add	sp, sp, #16
 12236              		@ sp needed
 12237 0084 80BD     		pop	{r7, pc}
 12239              		.section	.text.I2C_WaitOnRXNEFlagUntilTimeout,"ax",%progbits
 12240              		.align	1
 12241              		.syntax unified
 12242              		.code	16
 12243              		.thumb_func
 12245              	I2C_WaitOnRXNEFlagUntilTimeout:
 12246              		@ args = 0, pretend = 0, frame = 24
 12247              		@ frame_needed = 1, uses_anonymous_args = 0
 12248 0000 80B5     		push	{r7, lr}
 12249 0002 86B0     		sub	sp, sp, #24
 12250 0004 00AF     		add	r7, sp, #0
 12251 0006 F860     		str	r0, [r7, #12]
 12252 0008 B960     		str	r1, [r7, #8]
 12253 000a 7A60     		str	r2, [r7, #4]
 12254 000c 1723     		movs	r3, #23
 12255 000e FB18     		adds	r3, r7, r3
 12256 0010 0022     		movs	r2, #0
 12257 0012 1A70     		strb	r2, [r3]
 12258 0014 7BE0     		b	.L769
 12259              	.L777:
 12260 0016 7A68     		ldr	r2, [r7, #4]
 12261 0018 B968     		ldr	r1, [r7, #8]
 12262 001a FB68     		ldr	r3, [r7, #12]
 12263 001c 1800     		movs	r0, r3
 12264 001e FFF7FEFF 		bl	I2C_IsErrorOccurred
 12265 0022 031E     		subs	r3, r0, #0
 12266 0024 03D0     		beq	.L770
 12267 0026 1723     		movs	r3, #23
 12268 0028 FB18     		adds	r3, r7, r3
 12269 002a 0122     		movs	r2, #1
 12270 002c 1A70     		strb	r2, [r3]
 12271              	.L770:
 12272 002e FB68     		ldr	r3, [r7, #12]
 12273 0030 1B68     		ldr	r3, [r3]
 12274 0032 9B69     		ldr	r3, [r3, #24]
 12275 0034 2022     		movs	r2, #32
 12276 0036 1340     		ands	r3, r2
 12277 0038 202B     		cmp	r3, #32
 12278 003a 40D1     		bne	.L771
 12279 003c 1721     		movs	r1, #23
 12280 003e 7B18     		adds	r3, r7, r1
 12281 0040 1B78     		ldrb	r3, [r3]
 12282 0042 002B     		cmp	r3, #0
 12283 0044 3BD1     		bne	.L771
 12284 0046 FB68     		ldr	r3, [r7, #12]
 12285 0048 1B68     		ldr	r3, [r3]
 12286 004a 9B69     		ldr	r3, [r3, #24]
 12287 004c 0422     		movs	r2, #4
 12288 004e 1340     		ands	r3, r2
 12289 0050 042B     		cmp	r3, #4
 12290 0052 06D1     		bne	.L772
 12291 0054 FB68     		ldr	r3, [r7, #12]
 12292 0056 1B8D     		ldrh	r3, [r3, #40]
ARM GAS  /tmp/ccnCrYSN.s 			page 214


 12293 0058 002B     		cmp	r3, #0
 12294 005a 02D0     		beq	.L772
 12295 005c 7B18     		adds	r3, r7, r1
 12296 005e 0022     		movs	r2, #0
 12297 0060 1A70     		strb	r2, [r3]
 12298              	.L772:
 12299 0062 FB68     		ldr	r3, [r7, #12]
 12300 0064 1B68     		ldr	r3, [r3]
 12301 0066 9B69     		ldr	r3, [r3, #24]
 12302 0068 1022     		movs	r2, #16
 12303 006a 1340     		ands	r3, r2
 12304 006c 102B     		cmp	r3, #16
 12305 006e 23D1     		bne	.L773
 12306 0070 FB68     		ldr	r3, [r7, #12]
 12307 0072 1B68     		ldr	r3, [r3]
 12308 0074 1022     		movs	r2, #16
 12309 0076 DA61     		str	r2, [r3, #28]
 12310 0078 FB68     		ldr	r3, [r7, #12]
 12311 007a 0422     		movs	r2, #4
 12312 007c 5A64     		str	r2, [r3, #68]
 12313 007e FB68     		ldr	r3, [r7, #12]
 12314 0080 1B68     		ldr	r3, [r3]
 12315 0082 2022     		movs	r2, #32
 12316 0084 DA61     		str	r2, [r3, #28]
 12317 0086 FB68     		ldr	r3, [r7, #12]
 12318 0088 1B68     		ldr	r3, [r3]
 12319 008a 5A68     		ldr	r2, [r3, #4]
 12320 008c FB68     		ldr	r3, [r7, #12]
 12321 008e 1B68     		ldr	r3, [r3]
 12322 0090 2949     		ldr	r1, .L779
 12323 0092 0A40     		ands	r2, r1
 12324 0094 5A60     		str	r2, [r3, #4]
 12325 0096 FB68     		ldr	r3, [r7, #12]
 12326 0098 4122     		movs	r2, #65
 12327 009a 2021     		movs	r1, #32
 12328 009c 9954     		strb	r1, [r3, r2]
 12329 009e FB68     		ldr	r3, [r7, #12]
 12330 00a0 4222     		movs	r2, #66
 12331 00a2 0021     		movs	r1, #0
 12332 00a4 9954     		strb	r1, [r3, r2]
 12333 00a6 FB68     		ldr	r3, [r7, #12]
 12334 00a8 4022     		movs	r2, #64
 12335 00aa 0021     		movs	r1, #0
 12336 00ac 9954     		strb	r1, [r3, r2]
 12337 00ae 1723     		movs	r3, #23
 12338 00b0 FB18     		adds	r3, r7, r3
 12339 00b2 0122     		movs	r2, #1
 12340 00b4 1A70     		strb	r2, [r3]
 12341 00b6 02E0     		b	.L771
 12342              	.L773:
 12343 00b8 FB68     		ldr	r3, [r7, #12]
 12344 00ba 0022     		movs	r2, #0
 12345 00bc 5A64     		str	r2, [r3, #68]
 12346              	.L771:
 12347 00be FFF7FEFF 		bl	HAL_GetTick
 12348 00c2 0200     		movs	r2, r0
 12349 00c4 7B68     		ldr	r3, [r7, #4]
ARM GAS  /tmp/ccnCrYSN.s 			page 215


 12350 00c6 D31A     		subs	r3, r2, r3
 12351 00c8 BA68     		ldr	r2, [r7, #8]
 12352 00ca 9A42     		cmp	r2, r3
 12353 00cc 02D3     		bcc	.L774
 12354 00ce BB68     		ldr	r3, [r7, #8]
 12355 00d0 002B     		cmp	r3, #0
 12356 00d2 1CD1     		bne	.L769
 12357              	.L774:
 12358 00d4 1720     		movs	r0, #23
 12359 00d6 3B18     		adds	r3, r7, r0
 12360 00d8 1B78     		ldrb	r3, [r3]
 12361 00da 002B     		cmp	r3, #0
 12362 00dc 17D1     		bne	.L769
 12363 00de FB68     		ldr	r3, [r7, #12]
 12364 00e0 1B68     		ldr	r3, [r3]
 12365 00e2 9B69     		ldr	r3, [r3, #24]
 12366 00e4 0422     		movs	r2, #4
 12367 00e6 1340     		ands	r3, r2
 12368 00e8 042B     		cmp	r3, #4
 12369 00ea 10D0     		beq	.L769
 12370 00ec FB68     		ldr	r3, [r7, #12]
 12371 00ee 5B6C     		ldr	r3, [r3, #68]
 12372 00f0 2022     		movs	r2, #32
 12373 00f2 1A43     		orrs	r2, r3
 12374 00f4 FB68     		ldr	r3, [r7, #12]
 12375 00f6 5A64     		str	r2, [r3, #68]
 12376 00f8 FB68     		ldr	r3, [r7, #12]
 12377 00fa 4122     		movs	r2, #65
 12378 00fc 2021     		movs	r1, #32
 12379 00fe 9954     		strb	r1, [r3, r2]
 12380 0100 FB68     		ldr	r3, [r7, #12]
 12381 0102 4022     		movs	r2, #64
 12382 0104 0021     		movs	r1, #0
 12383 0106 9954     		strb	r1, [r3, r2]
 12384 0108 3B18     		adds	r3, r7, r0
 12385 010a 0122     		movs	r2, #1
 12386 010c 1A70     		strb	r2, [r3]
 12387              	.L769:
 12388 010e FB68     		ldr	r3, [r7, #12]
 12389 0110 1B68     		ldr	r3, [r3]
 12390 0112 9B69     		ldr	r3, [r3, #24]
 12391 0114 0422     		movs	r2, #4
 12392 0116 1340     		ands	r3, r2
 12393 0118 042B     		cmp	r3, #4
 12394 011a 05D0     		beq	.L776
 12395 011c 1723     		movs	r3, #23
 12396 011e FB18     		adds	r3, r7, r3
 12397 0120 1B78     		ldrb	r3, [r3]
 12398 0122 002B     		cmp	r3, #0
 12399 0124 00D1     		bne	.LCB13362
 12400 0126 76E7     		b	.L777	@long jump
 12401              	.LCB13362:
 12402              	.L776:
 12403 0128 1723     		movs	r3, #23
 12404 012a FB18     		adds	r3, r7, r3
 12405 012c 1B78     		ldrb	r3, [r3]
 12406 012e 1800     		movs	r0, r3
ARM GAS  /tmp/ccnCrYSN.s 			page 216


 12407 0130 BD46     		mov	sp, r7
 12408 0132 06B0     		add	sp, sp, #24
 12409              		@ sp needed
 12410 0134 80BD     		pop	{r7, pc}
 12411              	.L780:
 12412 0136 C046     		.align	2
 12413              	.L779:
 12414 0138 00E800FE 		.word	-33495040
 12416              		.section	.text.I2C_IsErrorOccurred,"ax",%progbits
 12417              		.align	1
 12418              		.syntax unified
 12419              		.code	16
 12420              		.thumb_func
 12422              	I2C_IsErrorOccurred:
 12423              		@ args = 0, pretend = 0, frame = 40
 12424              		@ frame_needed = 1, uses_anonymous_args = 0
 12425 0000 80B5     		push	{r7, lr}
 12426 0002 8AB0     		sub	sp, sp, #40
 12427 0004 00AF     		add	r7, sp, #0
 12428 0006 F860     		str	r0, [r7, #12]
 12429 0008 B960     		str	r1, [r7, #8]
 12430 000a 7A60     		str	r2, [r7, #4]
 12431 000c 2723     		movs	r3, #39
 12432 000e FB18     		adds	r3, r7, r3
 12433 0010 0022     		movs	r2, #0
 12434 0012 1A70     		strb	r2, [r3]
 12435 0014 FB68     		ldr	r3, [r7, #12]
 12436 0016 1B68     		ldr	r3, [r3]
 12437 0018 9B69     		ldr	r3, [r3, #24]
 12438 001a BB61     		str	r3, [r7, #24]
 12439 001c 0023     		movs	r3, #0
 12440 001e 3B62     		str	r3, [r7, #32]
 12441 0020 7B68     		ldr	r3, [r7, #4]
 12442 0022 FB61     		str	r3, [r7, #28]
 12443 0024 BB69     		ldr	r3, [r7, #24]
 12444 0026 1022     		movs	r2, #16
 12445 0028 1340     		ands	r3, r2
 12446 002a 00D1     		bne	.LCB13410
 12447 002c 79E0     		b	.L782	@long jump
 12448              	.LCB13410:
 12449 002e FB68     		ldr	r3, [r7, #12]
 12450 0030 1B68     		ldr	r3, [r3]
 12451 0032 1022     		movs	r2, #16
 12452 0034 DA61     		str	r2, [r3, #28]
 12453 0036 57E0     		b	.L784
 12454              	.L791:
 12455 0038 2722     		movs	r2, #39
 12456 003a BB18     		adds	r3, r7, r2
 12457 003c BA18     		adds	r2, r7, r2
 12458 003e 1278     		ldrb	r2, [r2]
 12459 0040 1A70     		strb	r2, [r3]
 12460 0042 BB68     		ldr	r3, [r7, #8]
 12461 0044 0133     		adds	r3, r3, #1
 12462 0046 4FD0     		beq	.L784
 12463 0048 FFF7FEFF 		bl	HAL_GetTick
 12464 004c 0200     		movs	r2, r0
 12465 004e FB69     		ldr	r3, [r7, #28]
ARM GAS  /tmp/ccnCrYSN.s 			page 217


 12466 0050 D31A     		subs	r3, r2, r3
 12467 0052 BA68     		ldr	r2, [r7, #8]
 12468 0054 9A42     		cmp	r2, r3
 12469 0056 02D3     		bcc	.L785
 12470 0058 BB68     		ldr	r3, [r7, #8]
 12471 005a 002B     		cmp	r3, #0
 12472 005c 44D1     		bne	.L784
 12473              	.L785:
 12474 005e FB68     		ldr	r3, [r7, #12]
 12475 0060 1B68     		ldr	r3, [r3]
 12476 0062 5A68     		ldr	r2, [r3, #4]
 12477 0064 8023     		movs	r3, #128
 12478 0066 DB01     		lsls	r3, r3, #7
 12479 0068 1340     		ands	r3, r2
 12480 006a 7B61     		str	r3, [r7, #20]
 12481 006c 1320     		movs	r0, #19
 12482 006e 3B18     		adds	r3, r7, r0
 12483 0070 FA68     		ldr	r2, [r7, #12]
 12484 0072 4221     		movs	r1, #66
 12485 0074 525C     		ldrb	r2, [r2, r1]
 12486 0076 1A70     		strb	r2, [r3]
 12487 0078 FB68     		ldr	r3, [r7, #12]
 12488 007a 1B68     		ldr	r3, [r3]
 12489 007c 9A69     		ldr	r2, [r3, #24]
 12490 007e 8023     		movs	r3, #128
 12491 0080 1B02     		lsls	r3, r3, #8
 12492 0082 1A40     		ands	r2, r3
 12493 0084 8023     		movs	r3, #128
 12494 0086 1B02     		lsls	r3, r3, #8
 12495 0088 9A42     		cmp	r2, r3
 12496 008a 26D1     		bne	.L788
 12497 008c 7A69     		ldr	r2, [r7, #20]
 12498 008e 8023     		movs	r3, #128
 12499 0090 DB01     		lsls	r3, r3, #7
 12500 0092 9A42     		cmp	r2, r3
 12501 0094 21D0     		beq	.L788
 12502 0096 3B18     		adds	r3, r7, r0
 12503 0098 1B78     		ldrb	r3, [r3]
 12504 009a 202B     		cmp	r3, #32
 12505 009c 1DD0     		beq	.L788
 12506 009e FB68     		ldr	r3, [r7, #12]
 12507 00a0 1B68     		ldr	r3, [r3]
 12508 00a2 5A68     		ldr	r2, [r3, #4]
 12509 00a4 FB68     		ldr	r3, [r7, #12]
 12510 00a6 1B68     		ldr	r3, [r3]
 12511 00a8 8021     		movs	r1, #128
 12512 00aa C901     		lsls	r1, r1, #7
 12513 00ac 0A43     		orrs	r2, r1
 12514 00ae 5A60     		str	r2, [r3, #4]
 12515 00b0 FFF7FEFF 		bl	HAL_GetTick
 12516 00b4 0300     		movs	r3, r0
 12517 00b6 FB61     		str	r3, [r7, #28]
 12518 00b8 0FE0     		b	.L788
 12519              	.L789:
 12520 00ba FFF7FEFF 		bl	HAL_GetTick
 12521 00be 0200     		movs	r2, r0
 12522 00c0 FB69     		ldr	r3, [r7, #28]
ARM GAS  /tmp/ccnCrYSN.s 			page 218


 12523 00c2 D31A     		subs	r3, r2, r3
 12524 00c4 192B     		cmp	r3, #25
 12525 00c6 08D9     		bls	.L788
 12526 00c8 3B6A     		ldr	r3, [r7, #32]
 12527 00ca 2022     		movs	r2, #32
 12528 00cc 1343     		orrs	r3, r2
 12529 00ce 3B62     		str	r3, [r7, #32]
 12530 00d0 2723     		movs	r3, #39
 12531 00d2 FB18     		adds	r3, r7, r3
 12532 00d4 0122     		movs	r2, #1
 12533 00d6 1A70     		strb	r2, [r3]
 12534 00d8 06E0     		b	.L784
 12535              	.L788:
 12536 00da FB68     		ldr	r3, [r7, #12]
 12537 00dc 1B68     		ldr	r3, [r3]
 12538 00de 9B69     		ldr	r3, [r3, #24]
 12539 00e0 2022     		movs	r2, #32
 12540 00e2 1340     		ands	r3, r2
 12541 00e4 202B     		cmp	r3, #32
 12542 00e6 E8D1     		bne	.L789
 12543              	.L784:
 12544 00e8 FB68     		ldr	r3, [r7, #12]
 12545 00ea 1B68     		ldr	r3, [r3]
 12546 00ec 9B69     		ldr	r3, [r3, #24]
 12547 00ee 2022     		movs	r2, #32
 12548 00f0 1340     		ands	r3, r2
 12549 00f2 202B     		cmp	r3, #32
 12550 00f4 04D0     		beq	.L790
 12551 00f6 2723     		movs	r3, #39
 12552 00f8 FB18     		adds	r3, r7, r3
 12553 00fa 1B78     		ldrb	r3, [r3]
 12554 00fc 002B     		cmp	r3, #0
 12555 00fe 9BD0     		beq	.L791
 12556              	.L790:
 12557 0100 2723     		movs	r3, #39
 12558 0102 FB18     		adds	r3, r7, r3
 12559 0104 1B78     		ldrb	r3, [r3]
 12560 0106 002B     		cmp	r3, #0
 12561 0108 03D1     		bne	.L792
 12562 010a FB68     		ldr	r3, [r7, #12]
 12563 010c 1B68     		ldr	r3, [r3]
 12564 010e 2022     		movs	r2, #32
 12565 0110 DA61     		str	r2, [r3, #28]
 12566              	.L792:
 12567 0112 3B6A     		ldr	r3, [r7, #32]
 12568 0114 0422     		movs	r2, #4
 12569 0116 1343     		orrs	r3, r2
 12570 0118 3B62     		str	r3, [r7, #32]
 12571 011a 2723     		movs	r3, #39
 12572 011c FB18     		adds	r3, r7, r3
 12573 011e 0122     		movs	r2, #1
 12574 0120 1A70     		strb	r2, [r3]
 12575              	.L782:
 12576 0122 FB68     		ldr	r3, [r7, #12]
 12577 0124 1B68     		ldr	r3, [r3]
 12578 0126 9B69     		ldr	r3, [r3, #24]
 12579 0128 BB61     		str	r3, [r7, #24]
ARM GAS  /tmp/ccnCrYSN.s 			page 219


 12580 012a BA69     		ldr	r2, [r7, #24]
 12581 012c 8023     		movs	r3, #128
 12582 012e 5B00     		lsls	r3, r3, #1
 12583 0130 1340     		ands	r3, r2
 12584 0132 0CD0     		beq	.L793
 12585 0134 3B6A     		ldr	r3, [r7, #32]
 12586 0136 0122     		movs	r2, #1
 12587 0138 1343     		orrs	r3, r2
 12588 013a 3B62     		str	r3, [r7, #32]
 12589 013c FB68     		ldr	r3, [r7, #12]
 12590 013e 1B68     		ldr	r3, [r3]
 12591 0140 8022     		movs	r2, #128
 12592 0142 5200     		lsls	r2, r2, #1
 12593 0144 DA61     		str	r2, [r3, #28]
 12594 0146 2723     		movs	r3, #39
 12595 0148 FB18     		adds	r3, r7, r3
 12596 014a 0122     		movs	r2, #1
 12597 014c 1A70     		strb	r2, [r3]
 12598              	.L793:
 12599 014e BA69     		ldr	r2, [r7, #24]
 12600 0150 8023     		movs	r3, #128
 12601 0152 DB00     		lsls	r3, r3, #3
 12602 0154 1340     		ands	r3, r2
 12603 0156 0CD0     		beq	.L794
 12604 0158 3B6A     		ldr	r3, [r7, #32]
 12605 015a 0822     		movs	r2, #8
 12606 015c 1343     		orrs	r3, r2
 12607 015e 3B62     		str	r3, [r7, #32]
 12608 0160 FB68     		ldr	r3, [r7, #12]
 12609 0162 1B68     		ldr	r3, [r3]
 12610 0164 8022     		movs	r2, #128
 12611 0166 D200     		lsls	r2, r2, #3
 12612 0168 DA61     		str	r2, [r3, #28]
 12613 016a 2723     		movs	r3, #39
 12614 016c FB18     		adds	r3, r7, r3
 12615 016e 0122     		movs	r2, #1
 12616 0170 1A70     		strb	r2, [r3]
 12617              	.L794:
 12618 0172 BA69     		ldr	r2, [r7, #24]
 12619 0174 8023     		movs	r3, #128
 12620 0176 9B00     		lsls	r3, r3, #2
 12621 0178 1340     		ands	r3, r2
 12622 017a 0CD0     		beq	.L795
 12623 017c 3B6A     		ldr	r3, [r7, #32]
 12624 017e 0222     		movs	r2, #2
 12625 0180 1343     		orrs	r3, r2
 12626 0182 3B62     		str	r3, [r7, #32]
 12627 0184 FB68     		ldr	r3, [r7, #12]
 12628 0186 1B68     		ldr	r3, [r3]
 12629 0188 8022     		movs	r2, #128
 12630 018a 9200     		lsls	r2, r2, #2
 12631 018c DA61     		str	r2, [r3, #28]
 12632 018e 2723     		movs	r3, #39
 12633 0190 FB18     		adds	r3, r7, r3
 12634 0192 0122     		movs	r2, #1
 12635 0194 1A70     		strb	r2, [r3]
 12636              	.L795:
ARM GAS  /tmp/ccnCrYSN.s 			page 220


 12637 0196 2723     		movs	r3, #39
 12638 0198 FB18     		adds	r3, r7, r3
 12639 019a 1B78     		ldrb	r3, [r3]
 12640 019c 002B     		cmp	r3, #0
 12641 019e 1DD0     		beq	.L796
 12642 01a0 FB68     		ldr	r3, [r7, #12]
 12643 01a2 1800     		movs	r0, r3
 12644 01a4 FFF7FEFF 		bl	I2C_Flush_TXDR
 12645 01a8 FB68     		ldr	r3, [r7, #12]
 12646 01aa 1B68     		ldr	r3, [r3]
 12647 01ac 5A68     		ldr	r2, [r3, #4]
 12648 01ae FB68     		ldr	r3, [r7, #12]
 12649 01b0 1B68     		ldr	r3, [r3]
 12650 01b2 0E49     		ldr	r1, .L799
 12651 01b4 0A40     		ands	r2, r1
 12652 01b6 5A60     		str	r2, [r3, #4]
 12653 01b8 FB68     		ldr	r3, [r7, #12]
 12654 01ba 5A6C     		ldr	r2, [r3, #68]
 12655 01bc 3B6A     		ldr	r3, [r7, #32]
 12656 01be 1A43     		orrs	r2, r3
 12657 01c0 FB68     		ldr	r3, [r7, #12]
 12658 01c2 5A64     		str	r2, [r3, #68]
 12659 01c4 FB68     		ldr	r3, [r7, #12]
 12660 01c6 4122     		movs	r2, #65
 12661 01c8 2021     		movs	r1, #32
 12662 01ca 9954     		strb	r1, [r3, r2]
 12663 01cc FB68     		ldr	r3, [r7, #12]
 12664 01ce 4222     		movs	r2, #66
 12665 01d0 0021     		movs	r1, #0
 12666 01d2 9954     		strb	r1, [r3, r2]
 12667 01d4 FB68     		ldr	r3, [r7, #12]
 12668 01d6 4022     		movs	r2, #64
 12669 01d8 0021     		movs	r1, #0
 12670 01da 9954     		strb	r1, [r3, r2]
 12671              	.L796:
 12672 01dc 2723     		movs	r3, #39
 12673 01de FB18     		adds	r3, r7, r3
 12674 01e0 1B78     		ldrb	r3, [r3]
 12675 01e2 1800     		movs	r0, r3
 12676 01e4 BD46     		mov	sp, r7
 12677 01e6 0AB0     		add	sp, sp, #40
 12678              		@ sp needed
 12679 01e8 80BD     		pop	{r7, pc}
 12680              	.L800:
 12681 01ea C046     		.align	2
 12682              	.L799:
 12683 01ec 00E800FE 		.word	-33495040
 12685              		.section	.text.I2C_TransferConfig,"ax",%progbits
 12686              		.align	1
 12687              		.syntax unified
 12688              		.code	16
 12689              		.thumb_func
 12691              	I2C_TransferConfig:
 12692              		@ args = 4, pretend = 0, frame = 24
 12693              		@ frame_needed = 1, uses_anonymous_args = 0
 12694 0000 90B5     		push	{r4, r7, lr}
 12695 0002 87B0     		sub	sp, sp, #28
ARM GAS  /tmp/ccnCrYSN.s 			page 221


 12696 0004 00AF     		add	r7, sp, #0
 12697 0006 F860     		str	r0, [r7, #12]
 12698 0008 0800     		movs	r0, r1
 12699 000a 1100     		movs	r1, r2
 12700 000c 7B60     		str	r3, [r7, #4]
 12701 000e 0A24     		movs	r4, #10
 12702 0010 3B19     		adds	r3, r7, r4
 12703 0012 021C     		adds	r2, r0, #0
 12704 0014 1A80     		strh	r2, [r3]
 12705 0016 0920     		movs	r0, #9
 12706 0018 3B18     		adds	r3, r7, r0
 12707 001a 0A1C     		adds	r2, r1, #0
 12708 001c 1A70     		strb	r2, [r3]
 12709 001e 3B19     		adds	r3, r7, r4
 12710 0020 1B88     		ldrh	r3, [r3]
 12711 0022 9B05     		lsls	r3, r3, #22
 12712 0024 9A0D     		lsrs	r2, r3, #22
 12713 0026 3B18     		adds	r3, r7, r0
 12714 0028 1B78     		ldrb	r3, [r3]
 12715 002a 1904     		lsls	r1, r3, #16
 12716 002c FF23     		movs	r3, #255
 12717 002e 1B04     		lsls	r3, r3, #16
 12718 0030 0B40     		ands	r3, r1
 12719 0032 1A43     		orrs	r2, r3
 12720 0034 7B68     		ldr	r3, [r7, #4]
 12721 0036 1A43     		orrs	r2, r3
 12722 0038 BB6A     		ldr	r3, [r7, #40]
 12723 003a 1343     		orrs	r3, r2
 12724 003c 5B00     		lsls	r3, r3, #1
 12725 003e 5B08     		lsrs	r3, r3, #1
 12726 0040 7B61     		str	r3, [r7, #20]
 12727 0042 FB68     		ldr	r3, [r7, #12]
 12728 0044 1B68     		ldr	r3, [r3]
 12729 0046 5B68     		ldr	r3, [r3, #4]
 12730 0048 BA6A     		ldr	r2, [r7, #40]
 12731 004a 510D     		lsrs	r1, r2, #21
 12732 004c 8022     		movs	r2, #128
 12733 004e D200     		lsls	r2, r2, #3
 12734 0050 0A40     		ands	r2, r1
 12735 0052 0749     		ldr	r1, .L802
 12736 0054 0A43     		orrs	r2, r1
 12737 0056 D243     		mvns	r2, r2
 12738 0058 1A40     		ands	r2, r3
 12739 005a 1100     		movs	r1, r2
 12740 005c FB68     		ldr	r3, [r7, #12]
 12741 005e 1B68     		ldr	r3, [r3]
 12742 0060 7A69     		ldr	r2, [r7, #20]
 12743 0062 0A43     		orrs	r2, r1
 12744 0064 5A60     		str	r2, [r3, #4]
 12745 0066 C046     		nop
 12746 0068 BD46     		mov	sp, r7
 12747 006a 07B0     		add	sp, sp, #28
 12748              		@ sp needed
 12749 006c 90BD     		pop	{r4, r7, pc}
 12750              	.L803:
 12751 006e C046     		.align	2
 12752              	.L802:
ARM GAS  /tmp/ccnCrYSN.s 			page 222


 12753 0070 FF63FF03 		.word	67068927
 12755              		.section	.text.I2C_Enable_IRQ,"ax",%progbits
 12756              		.align	1
 12757              		.syntax unified
 12758              		.code	16
 12759              		.thumb_func
 12761              	I2C_Enable_IRQ:
 12762              		@ args = 0, pretend = 0, frame = 16
 12763              		@ frame_needed = 1, uses_anonymous_args = 0
 12764 0000 80B5     		push	{r7, lr}
 12765 0002 84B0     		sub	sp, sp, #16
 12766 0004 00AF     		add	r7, sp, #0
 12767 0006 7860     		str	r0, [r7, #4]
 12768 0008 0A00     		movs	r2, r1
 12769 000a BB1C     		adds	r3, r7, #2
 12770 000c 1A80     		strh	r2, [r3]
 12771 000e 0023     		movs	r3, #0
 12772 0010 FB60     		str	r3, [r7, #12]
 12773 0012 7B68     		ldr	r3, [r7, #4]
 12774 0014 5A6B     		ldr	r2, [r3, #52]
 12775 0016 3C4B     		ldr	r3, .L817
 12776 0018 9A42     		cmp	r2, r3
 12777 001a 35D0     		beq	.L805
 12778 001c 7B68     		ldr	r3, [r7, #4]
 12779 001e 5A6B     		ldr	r2, [r3, #52]
 12780 0020 3A4B     		ldr	r3, .L817+4
 12781 0022 9A42     		cmp	r2, r3
 12782 0024 30D0     		beq	.L805
 12783 0026 7B68     		ldr	r3, [r7, #4]
 12784 0028 5A6B     		ldr	r2, [r3, #52]
 12785 002a 394B     		ldr	r3, .L817+8
 12786 002c 9A42     		cmp	r2, r3
 12787 002e 2BD0     		beq	.L805
 12788 0030 BB1C     		adds	r3, r7, #2
 12789 0032 0022     		movs	r2, #0
 12790 0034 9B5E     		ldrsh	r3, [r3, r2]
 12791 0036 002B     		cmp	r3, #0
 12792 0038 03DA     		bge	.L806
 12793 003a FB68     		ldr	r3, [r7, #12]
 12794 003c B822     		movs	r2, #184
 12795 003e 1343     		orrs	r3, r2
 12796 0040 FB60     		str	r3, [r7, #12]
 12797              	.L806:
 12798 0042 BB1C     		adds	r3, r7, #2
 12799 0044 1B88     		ldrh	r3, [r3]
 12800 0046 0122     		movs	r2, #1
 12801 0048 1340     		ands	r3, r2
 12802 004a 03D0     		beq	.L807
 12803 004c FB68     		ldr	r3, [r7, #12]
 12804 004e F222     		movs	r2, #242
 12805 0050 1343     		orrs	r3, r2
 12806 0052 FB60     		str	r3, [r7, #12]
 12807              	.L807:
 12808 0054 BB1C     		adds	r3, r7, #2
 12809 0056 1B88     		ldrh	r3, [r3]
 12810 0058 0222     		movs	r2, #2
 12811 005a 1340     		ands	r3, r2
ARM GAS  /tmp/ccnCrYSN.s 			page 223


 12812 005c 03D0     		beq	.L808
 12813 005e FB68     		ldr	r3, [r7, #12]
 12814 0060 F422     		movs	r2, #244
 12815 0062 1343     		orrs	r3, r2
 12816 0064 FB60     		str	r3, [r7, #12]
 12817              	.L808:
 12818 0066 BB1C     		adds	r3, r7, #2
 12819 0068 1B88     		ldrh	r3, [r3]
 12820 006a 102B     		cmp	r3, #16
 12821 006c 03D1     		bne	.L809
 12822 006e FB68     		ldr	r3, [r7, #12]
 12823 0070 9022     		movs	r2, #144
 12824 0072 1343     		orrs	r3, r2
 12825 0074 FB60     		str	r3, [r7, #12]
 12826              	.L809:
 12827 0076 BB1C     		adds	r3, r7, #2
 12828 0078 1B88     		ldrh	r3, [r3]
 12829 007a 202B     		cmp	r3, #32
 12830 007c 37D1     		bne	.L811
 12831 007e FB68     		ldr	r3, [r7, #12]
 12832 0080 2022     		movs	r2, #32
 12833 0082 1343     		orrs	r3, r2
 12834 0084 FB60     		str	r3, [r7, #12]
 12835 0086 32E0     		b	.L811
 12836              	.L805:
 12837 0088 BB1C     		adds	r3, r7, #2
 12838 008a 0022     		movs	r2, #0
 12839 008c 9B5E     		ldrsh	r3, [r3, r2]
 12840 008e 002B     		cmp	r3, #0
 12841 0090 03DA     		bge	.L812
 12842 0092 FB68     		ldr	r3, [r7, #12]
 12843 0094 B822     		movs	r2, #184
 12844 0096 1343     		orrs	r3, r2
 12845 0098 FB60     		str	r3, [r7, #12]
 12846              	.L812:
 12847 009a BB1C     		adds	r3, r7, #2
 12848 009c 1B88     		ldrh	r3, [r3]
 12849 009e 0122     		movs	r2, #1
 12850 00a0 1340     		ands	r3, r2
 12851 00a2 03D0     		beq	.L813
 12852 00a4 FB68     		ldr	r3, [r7, #12]
 12853 00a6 F222     		movs	r2, #242
 12854 00a8 1343     		orrs	r3, r2
 12855 00aa FB60     		str	r3, [r7, #12]
 12856              	.L813:
 12857 00ac BB1C     		adds	r3, r7, #2
 12858 00ae 1B88     		ldrh	r3, [r3]
 12859 00b0 0222     		movs	r2, #2
 12860 00b2 1340     		ands	r3, r2
 12861 00b4 03D0     		beq	.L814
 12862 00b6 FB68     		ldr	r3, [r7, #12]
 12863 00b8 F422     		movs	r2, #244
 12864 00ba 1343     		orrs	r3, r2
 12865 00bc FB60     		str	r3, [r7, #12]
 12866              	.L814:
 12867 00be BB1C     		adds	r3, r7, #2
 12868 00c0 1B88     		ldrh	r3, [r3]
ARM GAS  /tmp/ccnCrYSN.s 			page 224


 12869 00c2 102B     		cmp	r3, #16
 12870 00c4 03D1     		bne	.L815
 12871 00c6 FB68     		ldr	r3, [r7, #12]
 12872 00c8 9022     		movs	r2, #144
 12873 00ca 1343     		orrs	r3, r2
 12874 00cc FB60     		str	r3, [r7, #12]
 12875              	.L815:
 12876 00ce BB1C     		adds	r3, r7, #2
 12877 00d0 1B88     		ldrh	r3, [r3]
 12878 00d2 202B     		cmp	r3, #32
 12879 00d4 03D1     		bne	.L816
 12880 00d6 FB68     		ldr	r3, [r7, #12]
 12881 00d8 6022     		movs	r2, #96
 12882 00da 1343     		orrs	r3, r2
 12883 00dc FB60     		str	r3, [r7, #12]
 12884              	.L816:
 12885 00de BB1C     		adds	r3, r7, #2
 12886 00e0 1B88     		ldrh	r3, [r3]
 12887 00e2 402B     		cmp	r3, #64
 12888 00e4 03D1     		bne	.L811
 12889 00e6 FB68     		ldr	r3, [r7, #12]
 12890 00e8 4022     		movs	r2, #64
 12891 00ea 1343     		orrs	r3, r2
 12892 00ec FB60     		str	r3, [r7, #12]
 12893              	.L811:
 12894 00ee 7B68     		ldr	r3, [r7, #4]
 12895 00f0 1B68     		ldr	r3, [r3]
 12896 00f2 1968     		ldr	r1, [r3]
 12897 00f4 7B68     		ldr	r3, [r7, #4]
 12898 00f6 1B68     		ldr	r3, [r3]
 12899 00f8 FA68     		ldr	r2, [r7, #12]
 12900 00fa 0A43     		orrs	r2, r1
 12901 00fc 1A60     		str	r2, [r3]
 12902 00fe C046     		nop
 12903 0100 BD46     		mov	sp, r7
 12904 0102 04B0     		add	sp, sp, #16
 12905              		@ sp needed
 12906 0104 80BD     		pop	{r7, pc}
 12907              	.L818:
 12908 0106 C046     		.align	2
 12909              	.L817:
 12910 0108 00000000 		.word	I2C_Master_ISR_DMA
 12911 010c 00000000 		.word	I2C_Slave_ISR_DMA
 12912 0110 00000000 		.word	I2C_Mem_ISR_DMA
 12914              		.section	.text.I2C_Disable_IRQ,"ax",%progbits
 12915              		.align	1
 12916              		.syntax unified
 12917              		.code	16
 12918              		.thumb_func
 12920              	I2C_Disable_IRQ:
 12921              		@ args = 0, pretend = 0, frame = 16
 12922              		@ frame_needed = 1, uses_anonymous_args = 0
 12923 0000 80B5     		push	{r7, lr}
 12924 0002 84B0     		sub	sp, sp, #16
 12925 0004 00AF     		add	r7, sp, #0
 12926 0006 7860     		str	r0, [r7, #4]
 12927 0008 0A00     		movs	r2, r1
ARM GAS  /tmp/ccnCrYSN.s 			page 225


 12928 000a BB1C     		adds	r3, r7, #2
 12929 000c 1A80     		strh	r2, [r3]
 12930 000e 0023     		movs	r3, #0
 12931 0010 FB60     		str	r3, [r7, #12]
 12932 0012 BB1C     		adds	r3, r7, #2
 12933 0014 1B88     		ldrh	r3, [r3]
 12934 0016 0122     		movs	r2, #1
 12935 0018 1340     		ands	r3, r2
 12936 001a 10D0     		beq	.L820
 12937 001c FB68     		ldr	r3, [r7, #12]
 12938 001e 4222     		movs	r2, #66
 12939 0020 1343     		orrs	r3, r2
 12940 0022 FB60     		str	r3, [r7, #12]
 12941 0024 7B68     		ldr	r3, [r7, #4]
 12942 0026 4122     		movs	r2, #65
 12943 0028 9B5C     		ldrb	r3, [r3, r2]
 12944 002a DBB2     		uxtb	r3, r3
 12945 002c 1A00     		movs	r2, r3
 12946 002e 2823     		movs	r3, #40
 12947 0030 1340     		ands	r3, r2
 12948 0032 282B     		cmp	r3, #40
 12949 0034 03D0     		beq	.L820
 12950 0036 FB68     		ldr	r3, [r7, #12]
 12951 0038 B022     		movs	r2, #176
 12952 003a 1343     		orrs	r3, r2
 12953 003c FB60     		str	r3, [r7, #12]
 12954              	.L820:
 12955 003e BB1C     		adds	r3, r7, #2
 12956 0040 1B88     		ldrh	r3, [r3]
 12957 0042 0222     		movs	r2, #2
 12958 0044 1340     		ands	r3, r2
 12959 0046 10D0     		beq	.L821
 12960 0048 FB68     		ldr	r3, [r7, #12]
 12961 004a 4422     		movs	r2, #68
 12962 004c 1343     		orrs	r3, r2
 12963 004e FB60     		str	r3, [r7, #12]
 12964 0050 7B68     		ldr	r3, [r7, #4]
 12965 0052 4122     		movs	r2, #65
 12966 0054 9B5C     		ldrb	r3, [r3, r2]
 12967 0056 DBB2     		uxtb	r3, r3
 12968 0058 1A00     		movs	r2, r3
 12969 005a 2823     		movs	r3, #40
 12970 005c 1340     		ands	r3, r2
 12971 005e 282B     		cmp	r3, #40
 12972 0060 03D0     		beq	.L821
 12973 0062 FB68     		ldr	r3, [r7, #12]
 12974 0064 B022     		movs	r2, #176
 12975 0066 1343     		orrs	r3, r2
 12976 0068 FB60     		str	r3, [r7, #12]
 12977              	.L821:
 12978 006a BB1C     		adds	r3, r7, #2
 12979 006c 0022     		movs	r2, #0
 12980 006e 9B5E     		ldrsh	r3, [r3, r2]
 12981 0070 002B     		cmp	r3, #0
 12982 0072 03DA     		bge	.L822
 12983 0074 FB68     		ldr	r3, [r7, #12]
 12984 0076 B822     		movs	r2, #184
ARM GAS  /tmp/ccnCrYSN.s 			page 226


 12985 0078 1343     		orrs	r3, r2
 12986 007a FB60     		str	r3, [r7, #12]
 12987              	.L822:
 12988 007c BB1C     		adds	r3, r7, #2
 12989 007e 1B88     		ldrh	r3, [r3]
 12990 0080 102B     		cmp	r3, #16
 12991 0082 03D1     		bne	.L823
 12992 0084 FB68     		ldr	r3, [r7, #12]
 12993 0086 9022     		movs	r2, #144
 12994 0088 1343     		orrs	r3, r2
 12995 008a FB60     		str	r3, [r7, #12]
 12996              	.L823:
 12997 008c BB1C     		adds	r3, r7, #2
 12998 008e 1B88     		ldrh	r3, [r3]
 12999 0090 202B     		cmp	r3, #32
 13000 0092 03D1     		bne	.L824
 13001 0094 FB68     		ldr	r3, [r7, #12]
 13002 0096 2022     		movs	r2, #32
 13003 0098 1343     		orrs	r3, r2
 13004 009a FB60     		str	r3, [r7, #12]
 13005              	.L824:
 13006 009c BB1C     		adds	r3, r7, #2
 13007 009e 1B88     		ldrh	r3, [r3]
 13008 00a0 402B     		cmp	r3, #64
 13009 00a2 03D1     		bne	.L825
 13010 00a4 FB68     		ldr	r3, [r7, #12]
 13011 00a6 4022     		movs	r2, #64
 13012 00a8 1343     		orrs	r3, r2
 13013 00aa FB60     		str	r3, [r7, #12]
 13014              	.L825:
 13015 00ac 7B68     		ldr	r3, [r7, #4]
 13016 00ae 1B68     		ldr	r3, [r3]
 13017 00b0 1A68     		ldr	r2, [r3]
 13018 00b2 FB68     		ldr	r3, [r7, #12]
 13019 00b4 D943     		mvns	r1, r3
 13020 00b6 7B68     		ldr	r3, [r7, #4]
 13021 00b8 1B68     		ldr	r3, [r3]
 13022 00ba 0A40     		ands	r2, r1
 13023 00bc 1A60     		str	r2, [r3]
 13024 00be C046     		nop
 13025 00c0 BD46     		mov	sp, r7
 13026 00c2 04B0     		add	sp, sp, #16
 13027              		@ sp needed
 13028 00c4 80BD     		pop	{r7, pc}
 13030              		.section	.text.I2C_ConvertOtherXferOptions,"ax",%progbits
 13031              		.align	1
 13032              		.syntax unified
 13033              		.code	16
 13034              		.thumb_func
 13036              	I2C_ConvertOtherXferOptions:
 13037              		@ args = 0, pretend = 0, frame = 8
 13038              		@ frame_needed = 1, uses_anonymous_args = 0
 13039 0000 80B5     		push	{r7, lr}
 13040 0002 82B0     		sub	sp, sp, #8
 13041 0004 00AF     		add	r7, sp, #0
 13042 0006 7860     		str	r0, [r7, #4]
 13043 0008 7B68     		ldr	r3, [r7, #4]
ARM GAS  /tmp/ccnCrYSN.s 			page 227


 13044 000a DB6A     		ldr	r3, [r3, #44]
 13045 000c AA2B     		cmp	r3, #170
 13046 000e 03D1     		bne	.L827
 13047 0010 7B68     		ldr	r3, [r7, #4]
 13048 0012 0022     		movs	r2, #0
 13049 0014 DA62     		str	r2, [r3, #44]
 13050 0016 09E0     		b	.L829
 13051              	.L827:
 13052 0018 7B68     		ldr	r3, [r7, #4]
 13053 001a DA6A     		ldr	r2, [r3, #44]
 13054 001c AA23     		movs	r3, #170
 13055 001e 1B02     		lsls	r3, r3, #8
 13056 0020 9A42     		cmp	r2, r3
 13057 0022 03D1     		bne	.L829
 13058 0024 7B68     		ldr	r3, [r7, #4]
 13059 0026 8022     		movs	r2, #128
 13060 0028 9204     		lsls	r2, r2, #18
 13061 002a DA62     		str	r2, [r3, #44]
 13062              	.L829:
 13063 002c C046     		nop
 13064 002e BD46     		mov	sp, r7
 13065 0030 02B0     		add	sp, sp, #8
 13066              		@ sp needed
 13067 0032 80BD     		pop	{r7, pc}
 13069              		.ident	"GCC: (crosstool-NG 1.28.0 - arm-cortexm0-eabi) 15.2.0"
ARM GAS  /tmp/ccnCrYSN.s 			page 228


DEFINED SYMBOLS
                            *ABS*:00000000 stm32f0xx_hal_i2c.c
     /tmp/ccnCrYSN.s:15     .text.HAL_I2C_Init:00000000 $t
     /tmp/ccnCrYSN.s:21     .text.HAL_I2C_Init:00000000 HAL_I2C_Init
     /tmp/ccnCrYSN.s:264    .text.HAL_I2C_MspInit:00000000 HAL_I2C_MspInit
     /tmp/ccnCrYSN.s:191    .text.HAL_I2C_Init:0000013c $d
     /tmp/ccnCrYSN.s:197    .text.HAL_I2C_DeInit:00000000 $t
     /tmp/ccnCrYSN.s:203    .text.HAL_I2C_DeInit:00000000 HAL_I2C_DeInit
     /tmp/ccnCrYSN.s:284    .text.HAL_I2C_MspDeInit:00000000 HAL_I2C_MspDeInit
     /tmp/ccnCrYSN.s:258    .text.HAL_I2C_MspInit:00000000 $t
     /tmp/ccnCrYSN.s:278    .text.HAL_I2C_MspDeInit:00000000 $t
     /tmp/ccnCrYSN.s:298    .text.HAL_I2C_Master_Transmit:00000000 $t
     /tmp/ccnCrYSN.s:304    .text.HAL_I2C_Master_Transmit:00000000 HAL_I2C_Master_Transmit
     /tmp/ccnCrYSN.s:11978  .text.I2C_WaitOnFlagUntilTimeout:00000000 I2C_WaitOnFlagUntilTimeout
     /tmp/ccnCrYSN.s:12691  .text.I2C_TransferConfig:00000000 I2C_TransferConfig
     /tmp/ccnCrYSN.s:12080  .text.I2C_WaitOnTXISFlagUntilTimeout:00000000 I2C_WaitOnTXISFlagUntilTimeout
     /tmp/ccnCrYSN.s:12164  .text.I2C_WaitOnSTOPFlagUntilTimeout:00000000 I2C_WaitOnSTOPFlagUntilTimeout
     /tmp/ccnCrYSN.s:610    .text.HAL_I2C_Master_Transmit:0000024c $d
     /tmp/ccnCrYSN.s:614    .text.HAL_I2C_Master_Receive:00000000 $t
     /tmp/ccnCrYSN.s:620    .text.HAL_I2C_Master_Receive:00000000 HAL_I2C_Master_Receive
     /tmp/ccnCrYSN.s:12245  .text.I2C_WaitOnRXNEFlagUntilTimeout:00000000 I2C_WaitOnRXNEFlagUntilTimeout
     /tmp/ccnCrYSN.s:890    .text.HAL_I2C_Master_Receive:00000208 $d
     /tmp/ccnCrYSN.s:894    .text.HAL_I2C_Slave_Transmit:00000000 $t
     /tmp/ccnCrYSN.s:900    .text.HAL_I2C_Slave_Transmit:00000000 HAL_I2C_Slave_Transmit
     /tmp/ccnCrYSN.s:11550  .text.I2C_Flush_TXDR:00000000 I2C_Flush_TXDR
     /tmp/ccnCrYSN.s:1269   .text.HAL_I2C_Slave_Transmit:000002c8 $d
     /tmp/ccnCrYSN.s:1272   .text.HAL_I2C_Slave_Receive:00000000 $t
     /tmp/ccnCrYSN.s:1278   .text.HAL_I2C_Slave_Receive:00000000 HAL_I2C_Slave_Receive
     /tmp/ccnCrYSN.s:1573   .text.HAL_I2C_Slave_Receive:00000234 $d
     /tmp/ccnCrYSN.s:1576   .text.HAL_I2C_Master_Transmit_IT:00000000 $t
     /tmp/ccnCrYSN.s:1582   .text.HAL_I2C_Master_Transmit_IT:00000000 HAL_I2C_Master_Transmit_IT
     /tmp/ccnCrYSN.s:12761  .text.I2C_Enable_IRQ:00000000 I2C_Enable_IRQ
     /tmp/ccnCrYSN.s:1758   .text.HAL_I2C_Master_Transmit_IT:00000148 $d
     /tmp/ccnCrYSN.s:7917   .text.I2C_Master_ISR_IT:00000000 I2C_Master_ISR_IT
     /tmp/ccnCrYSN.s:1763   .text.HAL_I2C_Master_Receive_IT:00000000 $t
     /tmp/ccnCrYSN.s:1769   .text.HAL_I2C_Master_Receive_IT:00000000 HAL_I2C_Master_Receive_IT
     /tmp/ccnCrYSN.s:1898   .text.HAL_I2C_Master_Receive_IT:000000ec $d
     /tmp/ccnCrYSN.s:1903   .text.HAL_I2C_Slave_Transmit_IT:00000000 $t
     /tmp/ccnCrYSN.s:1909   .text.HAL_I2C_Slave_Transmit_IT:00000000 HAL_I2C_Slave_Transmit_IT
     /tmp/ccnCrYSN.s:2027   .text.HAL_I2C_Slave_Transmit_IT:000000d8 $d
     /tmp/ccnCrYSN.s:8652   .text.I2C_Slave_ISR_IT:00000000 I2C_Slave_ISR_IT
     /tmp/ccnCrYSN.s:2033   .text.HAL_I2C_Slave_Receive_IT:00000000 $t
     /tmp/ccnCrYSN.s:2039   .text.HAL_I2C_Slave_Receive_IT:00000000 HAL_I2C_Slave_Receive_IT
     /tmp/ccnCrYSN.s:2126   .text.HAL_I2C_Slave_Receive_IT:0000009c $d
     /tmp/ccnCrYSN.s:2132   .text.HAL_I2C_Master_Transmit_DMA:00000000 $t
     /tmp/ccnCrYSN.s:2138   .text.HAL_I2C_Master_Transmit_DMA:00000000 HAL_I2C_Master_Transmit_DMA
     /tmp/ccnCrYSN.s:2439   .text.HAL_I2C_Master_Transmit_DMA:0000023c $d
     /tmp/ccnCrYSN.s:8951   .text.I2C_Master_ISR_DMA:00000000 I2C_Master_ISR_DMA
     /tmp/ccnCrYSN.s:11597  .text.I2C_DMAMasterTransmitCplt:00000000 I2C_DMAMasterTransmitCplt
     /tmp/ccnCrYSN.s:11900  .text.I2C_DMAError:00000000 I2C_DMAError
     /tmp/ccnCrYSN.s:2447   .text.HAL_I2C_Master_Receive_DMA:00000000 $t
     /tmp/ccnCrYSN.s:2453   .text.HAL_I2C_Master_Receive_DMA:00000000 HAL_I2C_Master_Receive_DMA
     /tmp/ccnCrYSN.s:2717   .text.HAL_I2C_Master_Receive_DMA:000001f4 $d
     /tmp/ccnCrYSN.s:11740  .text.I2C_DMAMasterReceiveCplt:00000000 I2C_DMAMasterReceiveCplt
     /tmp/ccnCrYSN.s:2725   .text.HAL_I2C_Slave_Transmit_DMA:00000000 $t
     /tmp/ccnCrYSN.s:2731   .text.HAL_I2C_Slave_Transmit_DMA:00000000 HAL_I2C_Slave_Transmit_DMA
     /tmp/ccnCrYSN.s:2986   .text.HAL_I2C_Slave_Transmit_DMA:000001e0 $d
ARM GAS  /tmp/ccnCrYSN.s 			page 229


     /tmp/ccnCrYSN.s:9628   .text.I2C_Slave_ISR_DMA:00000000 I2C_Slave_ISR_DMA
     /tmp/ccnCrYSN.s:11690  .text.I2C_DMASlaveTransmitCplt:00000000 I2C_DMASlaveTransmitCplt
     /tmp/ccnCrYSN.s:2993   .text.HAL_I2C_Slave_Receive_DMA:00000000 $t
     /tmp/ccnCrYSN.s:2999   .text.HAL_I2C_Slave_Receive_DMA:00000000 HAL_I2C_Slave_Receive_DMA
     /tmp/ccnCrYSN.s:3195   .text.HAL_I2C_Slave_Receive_DMA:0000016c $d
     /tmp/ccnCrYSN.s:11848  .text.I2C_DMASlaveReceiveCplt:00000000 I2C_DMASlaveReceiveCplt
     /tmp/ccnCrYSN.s:3202   .text.HAL_I2C_Mem_Write:00000000 $t
     /tmp/ccnCrYSN.s:3208   .text.HAL_I2C_Mem_Write:00000000 HAL_I2C_Mem_Write
     /tmp/ccnCrYSN.s:9904   .text.I2C_RequestMemoryWrite:00000000 I2C_RequestMemoryWrite
     /tmp/ccnCrYSN.s:3519   .text.HAL_I2C_Mem_Write:00000258 $d
     /tmp/ccnCrYSN.s:3522   .text.HAL_I2C_Mem_Read:00000000 $t
     /tmp/ccnCrYSN.s:3528   .text.HAL_I2C_Mem_Read:00000000 HAL_I2C_Mem_Read
     /tmp/ccnCrYSN.s:10018  .text.I2C_RequestMemoryRead:00000000 I2C_RequestMemoryRead
     /tmp/ccnCrYSN.s:3843   .text.HAL_I2C_Mem_Read:00000260 $d
     /tmp/ccnCrYSN.s:3847   .text.HAL_I2C_Mem_Write_IT:00000000 $t
     /tmp/ccnCrYSN.s:3853   .text.HAL_I2C_Mem_Write_IT:00000000 HAL_I2C_Mem_Write_IT
     /tmp/ccnCrYSN.s:4023   .text.HAL_I2C_Mem_Write_IT:00000138 $d
     /tmp/ccnCrYSN.s:8290   .text.I2C_Mem_ISR_IT:00000000 I2C_Mem_ISR_IT
     /tmp/ccnCrYSN.s:4028   .text.HAL_I2C_Mem_Read_IT:00000000 $t
     /tmp/ccnCrYSN.s:4034   .text.HAL_I2C_Mem_Read_IT:00000000 HAL_I2C_Mem_Read_IT
     /tmp/ccnCrYSN.s:4199   .text.HAL_I2C_Mem_Read_IT:00000130 $d
     /tmp/ccnCrYSN.s:4204   .text.HAL_I2C_Mem_Write_DMA:00000000 $t
     /tmp/ccnCrYSN.s:4210   .text.HAL_I2C_Mem_Write_DMA:00000000 HAL_I2C_Mem_Write_DMA
     /tmp/ccnCrYSN.s:4475   .text.HAL_I2C_Mem_Write_DMA:000001f0 $d
     /tmp/ccnCrYSN.s:9256   .text.I2C_Mem_ISR_DMA:00000000 I2C_Mem_ISR_DMA
     /tmp/ccnCrYSN.s:4482   .text.HAL_I2C_Mem_Read_DMA:00000000 $t
     /tmp/ccnCrYSN.s:4488   .text.HAL_I2C_Mem_Read_DMA:00000000 HAL_I2C_Mem_Read_DMA
     /tmp/ccnCrYSN.s:4751   .text.HAL_I2C_Mem_Read_DMA:000001ec $d
     /tmp/ccnCrYSN.s:4758   .text.HAL_I2C_IsDeviceReady:00000000 $t
     /tmp/ccnCrYSN.s:4764   .text.HAL_I2C_IsDeviceReady:00000000 HAL_I2C_IsDeviceReady
     /tmp/ccnCrYSN.s:5028   .text.HAL_I2C_IsDeviceReady:000001e8 $d
     /tmp/ccnCrYSN.s:5032   .text.HAL_I2C_Master_Seq_Transmit_IT:00000000 $t
     /tmp/ccnCrYSN.s:5038   .text.HAL_I2C_Master_Seq_Transmit_IT:00000000 HAL_I2C_Master_Seq_Transmit_IT
     /tmp/ccnCrYSN.s:13036  .text.I2C_ConvertOtherXferOptions:00000000 I2C_ConvertOtherXferOptions
     /tmp/ccnCrYSN.s:5260   .text.HAL_I2C_Master_Seq_Transmit_IT:00000198 $d
     /tmp/ccnCrYSN.s:5264   .text.HAL_I2C_Master_Seq_Transmit_DMA:00000000 $t
     /tmp/ccnCrYSN.s:5270   .text.HAL_I2C_Master_Seq_Transmit_DMA:00000000 HAL_I2C_Master_Seq_Transmit_DMA
     /tmp/ccnCrYSN.s:5649   .text.HAL_I2C_Master_Seq_Transmit_DMA:000002c8 $d
     /tmp/ccnCrYSN.s:5656   .text.HAL_I2C_Master_Seq_Receive_IT:00000000 $t
     /tmp/ccnCrYSN.s:5662   .text.HAL_I2C_Master_Seq_Receive_IT:00000000 HAL_I2C_Master_Seq_Receive_IT
     /tmp/ccnCrYSN.s:5818   .text.HAL_I2C_Master_Seq_Receive_IT:0000011c $d
     /tmp/ccnCrYSN.s:5822   .text.HAL_I2C_Master_Seq_Receive_DMA:00000000 $t
     /tmp/ccnCrYSN.s:5828   .text.HAL_I2C_Master_Seq_Receive_DMA:00000000 HAL_I2C_Master_Seq_Receive_DMA
     /tmp/ccnCrYSN.s:6117   .text.HAL_I2C_Master_Seq_Receive_DMA:00000220 $d
     /tmp/ccnCrYSN.s:6124   .text.HAL_I2C_Slave_Seq_Transmit_IT:00000000 $t
     /tmp/ccnCrYSN.s:6130   .text.HAL_I2C_Slave_Seq_Transmit_IT:00000000 HAL_I2C_Slave_Seq_Transmit_IT
     /tmp/ccnCrYSN.s:12920  .text.I2C_Disable_IRQ:00000000 I2C_Disable_IRQ
     /tmp/ccnCrYSN.s:6323   .text.HAL_I2C_Slave_Seq_Transmit_IT:0000016c $d
     /tmp/ccnCrYSN.s:11935  .text.I2C_DMAAbort:00000000 I2C_DMAAbort
     /tmp/ccnCrYSN.s:6329   .text.HAL_I2C_Slave_Seq_Transmit_DMA:00000000 $t
     /tmp/ccnCrYSN.s:6335   .text.HAL_I2C_Slave_Seq_Transmit_DMA:00000000 HAL_I2C_Slave_Seq_Transmit_DMA
     /tmp/ccnCrYSN.s:6682   .text.HAL_I2C_Slave_Seq_Transmit_DMA:0000029c $d
     /tmp/ccnCrYSN.s:6691   .text.HAL_I2C_Slave_Seq_Receive_IT:00000000 $t
     /tmp/ccnCrYSN.s:6697   .text.HAL_I2C_Slave_Seq_Receive_IT:00000000 HAL_I2C_Slave_Seq_Receive_IT
     /tmp/ccnCrYSN.s:6890   .text.HAL_I2C_Slave_Seq_Receive_IT:0000016c $d
     /tmp/ccnCrYSN.s:6897   .text.HAL_I2C_Slave_Seq_Receive_DMA:00000000 $t
     /tmp/ccnCrYSN.s:6903   .text.HAL_I2C_Slave_Seq_Receive_DMA:00000000 HAL_I2C_Slave_Seq_Receive_DMA
ARM GAS  /tmp/ccnCrYSN.s 			page 230


     /tmp/ccnCrYSN.s:7249   .text.HAL_I2C_Slave_Seq_Receive_DMA:00000298 $d
     /tmp/ccnCrYSN.s:7258   .text.HAL_I2C_EnableListen_IT:00000000 $t
     /tmp/ccnCrYSN.s:7264   .text.HAL_I2C_EnableListen_IT:00000000 HAL_I2C_EnableListen_IT
     /tmp/ccnCrYSN.s:7303   .text.HAL_I2C_EnableListen_IT:00000040 $d
     /tmp/ccnCrYSN.s:7306   .text.HAL_I2C_DisableListen_IT:00000000 $t
     /tmp/ccnCrYSN.s:7312   .text.HAL_I2C_DisableListen_IT:00000000 HAL_I2C_DisableListen_IT
     /tmp/ccnCrYSN.s:7371   .text.HAL_I2C_Master_Abort_IT:00000000 $t
     /tmp/ccnCrYSN.s:7377   .text.HAL_I2C_Master_Abort_IT:00000000 HAL_I2C_Master_Abort_IT
     /tmp/ccnCrYSN.s:7479   .text.HAL_I2C_Master_Abort_IT:000000bc $d
     /tmp/ccnCrYSN.s:7482   .text.HAL_I2C_EV_IRQHandler:00000000 $t
     /tmp/ccnCrYSN.s:7488   .text.HAL_I2C_EV_IRQHandler:00000000 HAL_I2C_EV_IRQHandler
     /tmp/ccnCrYSN.s:7521   .text.HAL_I2C_ER_IRQHandler:00000000 $t
     /tmp/ccnCrYSN.s:7527   .text.HAL_I2C_ER_IRQHandler:00000000 HAL_I2C_ER_IRQHandler
     /tmp/ccnCrYSN.s:11226  .text.I2C_ITError:00000000 I2C_ITError
     /tmp/ccnCrYSN.s:7634   .text.HAL_I2C_MasterTxCpltCallback:00000000 $t
     /tmp/ccnCrYSN.s:7640   .text.HAL_I2C_MasterTxCpltCallback:00000000 HAL_I2C_MasterTxCpltCallback
     /tmp/ccnCrYSN.s:7654   .text.HAL_I2C_MasterRxCpltCallback:00000000 $t
     /tmp/ccnCrYSN.s:7660   .text.HAL_I2C_MasterRxCpltCallback:00000000 HAL_I2C_MasterRxCpltCallback
     /tmp/ccnCrYSN.s:7674   .text.HAL_I2C_SlaveTxCpltCallback:00000000 $t
     /tmp/ccnCrYSN.s:7680   .text.HAL_I2C_SlaveTxCpltCallback:00000000 HAL_I2C_SlaveTxCpltCallback
     /tmp/ccnCrYSN.s:7694   .text.HAL_I2C_SlaveRxCpltCallback:00000000 $t
     /tmp/ccnCrYSN.s:7700   .text.HAL_I2C_SlaveRxCpltCallback:00000000 HAL_I2C_SlaveRxCpltCallback
     /tmp/ccnCrYSN.s:7714   .text.HAL_I2C_AddrCallback:00000000 $t
     /tmp/ccnCrYSN.s:7720   .text.HAL_I2C_AddrCallback:00000000 HAL_I2C_AddrCallback
     /tmp/ccnCrYSN.s:7742   .text.HAL_I2C_ListenCpltCallback:00000000 $t
     /tmp/ccnCrYSN.s:7748   .text.HAL_I2C_ListenCpltCallback:00000000 HAL_I2C_ListenCpltCallback
     /tmp/ccnCrYSN.s:7762   .text.HAL_I2C_MemTxCpltCallback:00000000 $t
     /tmp/ccnCrYSN.s:7768   .text.HAL_I2C_MemTxCpltCallback:00000000 HAL_I2C_MemTxCpltCallback
     /tmp/ccnCrYSN.s:7782   .text.HAL_I2C_MemRxCpltCallback:00000000 $t
     /tmp/ccnCrYSN.s:7788   .text.HAL_I2C_MemRxCpltCallback:00000000 HAL_I2C_MemRxCpltCallback
     /tmp/ccnCrYSN.s:7802   .text.HAL_I2C_ErrorCallback:00000000 $t
     /tmp/ccnCrYSN.s:7808   .text.HAL_I2C_ErrorCallback:00000000 HAL_I2C_ErrorCallback
     /tmp/ccnCrYSN.s:7822   .text.HAL_I2C_AbortCpltCallback:00000000 $t
     /tmp/ccnCrYSN.s:7828   .text.HAL_I2C_AbortCpltCallback:00000000 HAL_I2C_AbortCpltCallback
     /tmp/ccnCrYSN.s:7842   .text.HAL_I2C_GetState:00000000 $t
     /tmp/ccnCrYSN.s:7848   .text.HAL_I2C_GetState:00000000 HAL_I2C_GetState
     /tmp/ccnCrYSN.s:7866   .text.HAL_I2C_GetMode:00000000 $t
     /tmp/ccnCrYSN.s:7872   .text.HAL_I2C_GetMode:00000000 HAL_I2C_GetMode
     /tmp/ccnCrYSN.s:7890   .text.HAL_I2C_GetError:00000000 $t
     /tmp/ccnCrYSN.s:7896   .text.HAL_I2C_GetError:00000000 HAL_I2C_GetError
     /tmp/ccnCrYSN.s:7912   .text.I2C_Master_ISR_IT:00000000 $t
     /tmp/ccnCrYSN.s:10305  .text.I2C_ITMasterSeqCplt:00000000 I2C_ITMasterSeqCplt
     /tmp/ccnCrYSN.s:10493  .text.I2C_ITMasterCplt:00000000 I2C_ITMasterCplt
     /tmp/ccnCrYSN.s:8282   .text.I2C_Master_ISR_IT:000002b8 $d
     /tmp/ccnCrYSN.s:8285   .text.I2C_Mem_ISR_IT:00000000 $t
     /tmp/ccnCrYSN.s:8643   .text.I2C_Mem_ISR_IT:000002a4 $d
     /tmp/ccnCrYSN.s:8647   .text.I2C_Slave_ISR_IT:00000000 $t
     /tmp/ccnCrYSN.s:10716  .text.I2C_ITSlaveCplt:00000000 I2C_ITSlaveCplt
     /tmp/ccnCrYSN.s:11126  .text.I2C_ITListenCplt:00000000 I2C_ITListenCplt
     /tmp/ccnCrYSN.s:10379  .text.I2C_ITSlaveSeqCplt:00000000 I2C_ITSlaveSeqCplt
     /tmp/ccnCrYSN.s:10130  .text.I2C_ITAddrCplt:00000000 I2C_ITAddrCplt
     /tmp/ccnCrYSN.s:8943   .text.I2C_Slave_ISR_IT:00000224 $d
     /tmp/ccnCrYSN.s:8946   .text.I2C_Master_ISR_DMA:00000000 $t
     /tmp/ccnCrYSN.s:9248   .text.I2C_Master_ISR_DMA:00000230 $d
     /tmp/ccnCrYSN.s:9251   .text.I2C_Mem_ISR_DMA:00000000 $t
     /tmp/ccnCrYSN.s:9619   .text.I2C_Mem_ISR_DMA:000002b4 $d
     /tmp/ccnCrYSN.s:9623   .text.I2C_Slave_ISR_DMA:00000000 $t
ARM GAS  /tmp/ccnCrYSN.s 			page 231


     /tmp/ccnCrYSN.s:9896   .text.I2C_Slave_ISR_DMA:000001ec $d
     /tmp/ccnCrYSN.s:9899   .text.I2C_RequestMemoryWrite:00000000 $t
     /tmp/ccnCrYSN.s:10010  .text.I2C_RequestMemoryWrite:000000c4 $d
     /tmp/ccnCrYSN.s:10013  .text.I2C_RequestMemoryRead:00000000 $t
     /tmp/ccnCrYSN.s:10122  .text.I2C_RequestMemoryRead:000000c0 $d
     /tmp/ccnCrYSN.s:10125  .text.I2C_ITAddrCplt:00000000 $t
     /tmp/ccnCrYSN.s:10300  .text.I2C_ITMasterSeqCplt:00000000 $t
     /tmp/ccnCrYSN.s:10374  .text.I2C_ITSlaveSeqCplt:00000000 $t
     /tmp/ccnCrYSN.s:10484  .text.I2C_ITSlaveSeqCplt:000000c4 $d
     /tmp/ccnCrYSN.s:10488  .text.I2C_ITMasterCplt:00000000 $t
     /tmp/ccnCrYSN.s:10707  .text.I2C_ITMasterCplt:0000019c $d
     /tmp/ccnCrYSN.s:10711  .text.I2C_ITSlaveCplt:00000000 $t
     /tmp/ccnCrYSN.s:11112  .text.I2C_ITSlaveCplt:00000304 $d
     /tmp/ccnCrYSN.s:11121  .text.I2C_ITListenCplt:00000000 $t
     /tmp/ccnCrYSN.s:11217  .text.I2C_ITListenCplt:000000ac $d
     /tmp/ccnCrYSN.s:11221  .text.I2C_ITError:00000000 $t
     /tmp/ccnCrYSN.s:11498  .text.I2C_TreatErrorCallback:00000000 I2C_TreatErrorCallback
     /tmp/ccnCrYSN.s:11485  .text.I2C_ITError:000001ec $d
     /tmp/ccnCrYSN.s:11493  .text.I2C_TreatErrorCallback:00000000 $t
     /tmp/ccnCrYSN.s:11545  .text.I2C_Flush_TXDR:00000000 $t
     /tmp/ccnCrYSN.s:11592  .text.I2C_DMAMasterTransmitCplt:00000000 $t
     /tmp/ccnCrYSN.s:11682  .text.I2C_DMAMasterTransmitCplt:0000009c $d
     /tmp/ccnCrYSN.s:11685  .text.I2C_DMASlaveTransmitCplt:00000000 $t
     /tmp/ccnCrYSN.s:11732  .text.I2C_DMASlaveTransmitCplt:00000044 $d
     /tmp/ccnCrYSN.s:11735  .text.I2C_DMAMasterReceiveCplt:00000000 $t
     /tmp/ccnCrYSN.s:11840  .text.I2C_DMAMasterReceiveCplt:000000b8 $d
     /tmp/ccnCrYSN.s:11843  .text.I2C_DMASlaveReceiveCplt:00000000 $t
     /tmp/ccnCrYSN.s:11891  .text.I2C_DMASlaveReceiveCplt:00000048 $d
     /tmp/ccnCrYSN.s:11895  .text.I2C_DMAError:00000000 $t
     /tmp/ccnCrYSN.s:11930  .text.I2C_DMAAbort:00000000 $t
     /tmp/ccnCrYSN.s:11973  .text.I2C_WaitOnFlagUntilTimeout:00000000 $t
     /tmp/ccnCrYSN.s:12422  .text.I2C_IsErrorOccurred:00000000 I2C_IsErrorOccurred
     /tmp/ccnCrYSN.s:12075  .text.I2C_WaitOnTXISFlagUntilTimeout:00000000 $t
     /tmp/ccnCrYSN.s:12159  .text.I2C_WaitOnSTOPFlagUntilTimeout:00000000 $t
     /tmp/ccnCrYSN.s:12240  .text.I2C_WaitOnRXNEFlagUntilTimeout:00000000 $t
     /tmp/ccnCrYSN.s:12414  .text.I2C_WaitOnRXNEFlagUntilTimeout:00000138 $d
     /tmp/ccnCrYSN.s:12417  .text.I2C_IsErrorOccurred:00000000 $t
     /tmp/ccnCrYSN.s:12683  .text.I2C_IsErrorOccurred:000001ec $d
     /tmp/ccnCrYSN.s:12686  .text.I2C_TransferConfig:00000000 $t
     /tmp/ccnCrYSN.s:12753  .text.I2C_TransferConfig:00000070 $d
     /tmp/ccnCrYSN.s:12756  .text.I2C_Enable_IRQ:00000000 $t
     /tmp/ccnCrYSN.s:12910  .text.I2C_Enable_IRQ:00000108 $d
     /tmp/ccnCrYSN.s:12915  .text.I2C_Disable_IRQ:00000000 $t
     /tmp/ccnCrYSN.s:13031  .text.I2C_ConvertOtherXferOptions:00000000 $t

UNDEFINED SYMBOLS
HAL_GetTick
HAL_DMA_Start_IT
HAL_DMA_Abort_IT
HAL_DMA_GetState
