ARM GAS  /tmp/ccWgPcxs.s 			page 1


   1              		.arch armv6s-m
   2              		.fpu softvfp
   3              		.eabi_attribute 20, 1
   4              		.eabi_attribute 21, 1
   5              		.eabi_attribute 23, 3
   6              		.eabi_attribute 24, 1
   7              		.eabi_attribute 25, 1
   8              		.eabi_attribute 26, 1
   9              		.eabi_attribute 30, 6
  10              		.eabi_attribute 34, 0
  11              		.eabi_attribute 18, 4
  12              		.file	"stm32f0xx_hal_pwr_ex.c"
  13              		.text
  14              		.section	.text.HAL_PWR_ConfigPVD,"ax",%progbits
  15              		.align	1
  16              		.global	HAL_PWR_ConfigPVD
  17              		.syntax unified
  18              		.code	16
  19              		.thumb_func
  21              	HAL_PWR_ConfigPVD:
  22              		@ args = 0, pretend = 0, frame = 8
  23              		@ frame_needed = 1, uses_anonymous_args = 0
  24 0000 80B5     		push	{r7, lr}
  25 0002 82B0     		sub	sp, sp, #8
  26 0004 00AF     		add	r7, sp, #0
  27 0006 7860     		str	r0, [r7, #4]
  28 0008 2B4B     		ldr	r3, .L7
  29 000a 1B68     		ldr	r3, [r3]
  30 000c E022     		movs	r2, #224
  31 000e 9343     		bics	r3, r2
  32 0010 1900     		movs	r1, r3
  33 0012 7B68     		ldr	r3, [r7, #4]
  34 0014 1A68     		ldr	r2, [r3]
  35 0016 284B     		ldr	r3, .L7
  36 0018 0A43     		orrs	r2, r1
  37 001a 1A60     		str	r2, [r3]
  38 001c 274B     		ldr	r3, .L7+4
  39 001e 5A68     		ldr	r2, [r3, #4]
  40 0020 264B     		ldr	r3, .L7+4
  41 0022 2749     		ldr	r1, .L7+8
  42 0024 0A40     		ands	r2, r1
  43 0026 5A60     		str	r2, [r3, #4]
  44 0028 244B     		ldr	r3, .L7+4
  45 002a 1A68     		ldr	r2, [r3]
  46 002c 234B     		ldr	r3, .L7+4
  47 002e 2449     		ldr	r1, .L7+8
  48 0030 0A40     		ands	r2, r1
  49 0032 1A60     		str	r2, [r3]
  50 0034 214B     		ldr	r3, .L7+4
  51 0036 9A68     		ldr	r2, [r3, #8]
  52 0038 204B     		ldr	r3, .L7+4
  53 003a 2149     		ldr	r1, .L7+8
  54 003c 0A40     		ands	r2, r1
  55 003e 9A60     		str	r2, [r3, #8]
  56 0040 1E4B     		ldr	r3, .L7+4
  57 0042 DA68     		ldr	r2, [r3, #12]
  58 0044 1D4B     		ldr	r3, .L7+4
ARM GAS  /tmp/ccWgPcxs.s 			page 2


  59 0046 1E49     		ldr	r1, .L7+8
  60 0048 0A40     		ands	r2, r1
  61 004a DA60     		str	r2, [r3, #12]
  62 004c 7B68     		ldr	r3, [r7, #4]
  63 004e 5A68     		ldr	r2, [r3, #4]
  64 0050 8023     		movs	r3, #128
  65 0052 5B02     		lsls	r3, r3, #9
  66 0054 1340     		ands	r3, r2
  67 0056 06D0     		beq	.L2
  68 0058 184B     		ldr	r3, .L7+4
  69 005a 1A68     		ldr	r2, [r3]
  70 005c 174B     		ldr	r3, .L7+4
  71 005e 8021     		movs	r1, #128
  72 0060 4902     		lsls	r1, r1, #9
  73 0062 0A43     		orrs	r2, r1
  74 0064 1A60     		str	r2, [r3]
  75              	.L2:
  76 0066 7B68     		ldr	r3, [r7, #4]
  77 0068 5A68     		ldr	r2, [r3, #4]
  78 006a 8023     		movs	r3, #128
  79 006c 9B02     		lsls	r3, r3, #10
  80 006e 1340     		ands	r3, r2
  81 0070 06D0     		beq	.L3
  82 0072 124B     		ldr	r3, .L7+4
  83 0074 5A68     		ldr	r2, [r3, #4]
  84 0076 114B     		ldr	r3, .L7+4
  85 0078 8021     		movs	r1, #128
  86 007a 4902     		lsls	r1, r1, #9
  87 007c 0A43     		orrs	r2, r1
  88 007e 5A60     		str	r2, [r3, #4]
  89              	.L3:
  90 0080 7B68     		ldr	r3, [r7, #4]
  91 0082 5B68     		ldr	r3, [r3, #4]
  92 0084 0122     		movs	r2, #1
  93 0086 1340     		ands	r3, r2
  94 0088 06D0     		beq	.L4
  95 008a 0C4B     		ldr	r3, .L7+4
  96 008c 9A68     		ldr	r2, [r3, #8]
  97 008e 0B4B     		ldr	r3, .L7+4
  98 0090 8021     		movs	r1, #128
  99 0092 4902     		lsls	r1, r1, #9
 100 0094 0A43     		orrs	r2, r1
 101 0096 9A60     		str	r2, [r3, #8]
 102              	.L4:
 103 0098 7B68     		ldr	r3, [r7, #4]
 104 009a 5B68     		ldr	r3, [r3, #4]
 105 009c 0222     		movs	r2, #2
 106 009e 1340     		ands	r3, r2
 107 00a0 06D0     		beq	.L6
 108 00a2 064B     		ldr	r3, .L7+4
 109 00a4 DA68     		ldr	r2, [r3, #12]
 110 00a6 054B     		ldr	r3, .L7+4
 111 00a8 8021     		movs	r1, #128
 112 00aa 4902     		lsls	r1, r1, #9
 113 00ac 0A43     		orrs	r2, r1
 114 00ae DA60     		str	r2, [r3, #12]
 115              	.L6:
ARM GAS  /tmp/ccWgPcxs.s 			page 3


 116 00b0 C046     		nop
 117 00b2 BD46     		mov	sp, r7
 118 00b4 02B0     		add	sp, sp, #8
 119              		@ sp needed
 120 00b6 80BD     		pop	{r7, pc}
 121              	.L8:
 122              		.align	2
 123              	.L7:
 124 00b8 00700040 		.word	1073770496
 125 00bc 00040140 		.word	1073808384
 126 00c0 FFFFFEFF 		.word	-65537
 128              		.section	.text.HAL_PWR_EnablePVD,"ax",%progbits
 129              		.align	1
 130              		.global	HAL_PWR_EnablePVD
 131              		.syntax unified
 132              		.code	16
 133              		.thumb_func
 135              	HAL_PWR_EnablePVD:
 136              		@ args = 0, pretend = 0, frame = 0
 137              		@ frame_needed = 1, uses_anonymous_args = 0
 138 0000 80B5     		push	{r7, lr}
 139 0002 00AF     		add	r7, sp, #0
 140 0004 044B     		ldr	r3, .L10
 141 0006 1A68     		ldr	r2, [r3]
 142 0008 034B     		ldr	r3, .L10
 143 000a 1021     		movs	r1, #16
 144 000c 0A43     		orrs	r2, r1
 145 000e 1A60     		str	r2, [r3]
 146 0010 C046     		nop
 147 0012 BD46     		mov	sp, r7
 148              		@ sp needed
 149 0014 80BD     		pop	{r7, pc}
 150              	.L11:
 151 0016 C046     		.align	2
 152              	.L10:
 153 0018 00700040 		.word	1073770496
 155              		.section	.text.HAL_PWR_DisablePVD,"ax",%progbits
 156              		.align	1
 157              		.global	HAL_PWR_DisablePVD
 158              		.syntax unified
 159              		.code	16
 160              		.thumb_func
 162              	HAL_PWR_DisablePVD:
 163              		@ args = 0, pretend = 0, frame = 0
 164              		@ frame_needed = 1, uses_anonymous_args = 0
 165 0000 80B5     		push	{r7, lr}
 166 0002 00AF     		add	r7, sp, #0
 167 0004 044B     		ldr	r3, .L13
 168 0006 1A68     		ldr	r2, [r3]
 169 0008 034B     		ldr	r3, .L13
 170 000a 1021     		movs	r1, #16
 171 000c 8A43     		bics	r2, r1
 172 000e 1A60     		str	r2, [r3]
 173 0010 C046     		nop
 174 0012 BD46     		mov	sp, r7
 175              		@ sp needed
 176 0014 80BD     		pop	{r7, pc}
ARM GAS  /tmp/ccWgPcxs.s 			page 4


 177              	.L14:
 178 0016 C046     		.align	2
 179              	.L13:
 180 0018 00700040 		.word	1073770496
 182              		.section	.text.HAL_PWR_PVD_IRQHandler,"ax",%progbits
 183              		.align	1
 184              		.global	HAL_PWR_PVD_IRQHandler
 185              		.syntax unified
 186              		.code	16
 187              		.thumb_func
 189              	HAL_PWR_PVD_IRQHandler:
 190              		@ args = 0, pretend = 0, frame = 0
 191              		@ frame_needed = 1, uses_anonymous_args = 0
 192 0000 80B5     		push	{r7, lr}
 193 0002 00AF     		add	r7, sp, #0
 194 0004 074B     		ldr	r3, .L18
 195 0006 5A69     		ldr	r2, [r3, #20]
 196 0008 8023     		movs	r3, #128
 197 000a 5B02     		lsls	r3, r3, #9
 198 000c 1340     		ands	r3, r2
 199 000e 05D0     		beq	.L17
 200 0010 FFF7FEFF 		bl	HAL_PWR_PVDCallback
 201 0014 034B     		ldr	r3, .L18
 202 0016 8022     		movs	r2, #128
 203 0018 5202     		lsls	r2, r2, #9
 204 001a 5A61     		str	r2, [r3, #20]
 205              	.L17:
 206 001c C046     		nop
 207 001e BD46     		mov	sp, r7
 208              		@ sp needed
 209 0020 80BD     		pop	{r7, pc}
 210              	.L19:
 211 0022 C046     		.align	2
 212              	.L18:
 213 0024 00040140 		.word	1073808384
 215              		.section	.text.HAL_PWR_PVDCallback,"ax",%progbits
 216              		.align	1
 217              		.weak	HAL_PWR_PVDCallback
 218              		.syntax unified
 219              		.code	16
 220              		.thumb_func
 222              	HAL_PWR_PVDCallback:
 223              		@ args = 0, pretend = 0, frame = 0
 224              		@ frame_needed = 1, uses_anonymous_args = 0
 225 0000 80B5     		push	{r7, lr}
 226 0002 00AF     		add	r7, sp, #0
 227 0004 C046     		nop
 228 0006 BD46     		mov	sp, r7
 229              		@ sp needed
 230 0008 80BD     		pop	{r7, pc}
 232              		.section	.text.HAL_PWREx_EnableVddio2Monitor,"ax",%progbits
 233              		.align	1
 234              		.global	HAL_PWREx_EnableVddio2Monitor
 235              		.syntax unified
 236              		.code	16
 237              		.thumb_func
 239              	HAL_PWREx_EnableVddio2Monitor:
ARM GAS  /tmp/ccWgPcxs.s 			page 5


 240              		@ args = 0, pretend = 0, frame = 0
 241              		@ frame_needed = 1, uses_anonymous_args = 0
 242 0000 80B5     		push	{r7, lr}
 243 0002 00AF     		add	r7, sp, #0
 244 0004 084B     		ldr	r3, .L22
 245 0006 1A68     		ldr	r2, [r3]
 246 0008 074B     		ldr	r3, .L22
 247 000a 8021     		movs	r1, #128
 248 000c 0906     		lsls	r1, r1, #24
 249 000e 0A43     		orrs	r2, r1
 250 0010 1A60     		str	r2, [r3]
 251 0012 054B     		ldr	r3, .L22
 252 0014 DA68     		ldr	r2, [r3, #12]
 253 0016 044B     		ldr	r3, .L22
 254 0018 8021     		movs	r1, #128
 255 001a 0906     		lsls	r1, r1, #24
 256 001c 0A43     		orrs	r2, r1
 257 001e DA60     		str	r2, [r3, #12]
 258 0020 C046     		nop
 259 0022 BD46     		mov	sp, r7
 260              		@ sp needed
 261 0024 80BD     		pop	{r7, pc}
 262              	.L23:
 263 0026 C046     		.align	2
 264              	.L22:
 265 0028 00040140 		.word	1073808384
 267              		.section	.text.HAL_PWREx_DisableVddio2Monitor,"ax",%progbits
 268              		.align	1
 269              		.global	HAL_PWREx_DisableVddio2Monitor
 270              		.syntax unified
 271              		.code	16
 272              		.thumb_func
 274              	HAL_PWREx_DisableVddio2Monitor:
 275              		@ args = 0, pretend = 0, frame = 0
 276              		@ frame_needed = 1, uses_anonymous_args = 0
 277 0000 80B5     		push	{r7, lr}
 278 0002 00AF     		add	r7, sp, #0
 279 0004 0A4B     		ldr	r3, .L25
 280 0006 1A68     		ldr	r2, [r3]
 281 0008 094B     		ldr	r3, .L25
 282 000a 5200     		lsls	r2, r2, #1
 283 000c 5208     		lsrs	r2, r2, #1
 284 000e 1A60     		str	r2, [r3]
 285 0010 074B     		ldr	r3, .L25
 286 0012 DA68     		ldr	r2, [r3, #12]
 287 0014 064B     		ldr	r3, .L25
 288 0016 5200     		lsls	r2, r2, #1
 289 0018 5208     		lsrs	r2, r2, #1
 290 001a DA60     		str	r2, [r3, #12]
 291 001c 044B     		ldr	r3, .L25
 292 001e 9A68     		ldr	r2, [r3, #8]
 293 0020 034B     		ldr	r3, .L25
 294 0022 5200     		lsls	r2, r2, #1
 295 0024 5208     		lsrs	r2, r2, #1
 296 0026 9A60     		str	r2, [r3, #8]
 297 0028 C046     		nop
 298 002a BD46     		mov	sp, r7
ARM GAS  /tmp/ccWgPcxs.s 			page 6


 299              		@ sp needed
 300 002c 80BD     		pop	{r7, pc}
 301              	.L26:
 302 002e C046     		.align	2
 303              	.L25:
 304 0030 00040140 		.word	1073808384
 306              		.section	.text.HAL_PWREx_Vddio2Monitor_IRQHandler,"ax",%progbits
 307              		.align	1
 308              		.global	HAL_PWREx_Vddio2Monitor_IRQHandler
 309              		.syntax unified
 310              		.code	16
 311              		.thumb_func
 313              	HAL_PWREx_Vddio2Monitor_IRQHandler:
 314              		@ args = 0, pretend = 0, frame = 0
 315              		@ frame_needed = 1, uses_anonymous_args = 0
 316 0000 80B5     		push	{r7, lr}
 317 0002 00AF     		add	r7, sp, #0
 318 0004 064B     		ldr	r3, .L30
 319 0006 5B69     		ldr	r3, [r3, #20]
 320 0008 002B     		cmp	r3, #0
 321 000a 05DA     		bge	.L29
 322 000c FFF7FEFF 		bl	HAL_PWREx_Vddio2MonitorCallback
 323 0010 034B     		ldr	r3, .L30
 324 0012 8022     		movs	r2, #128
 325 0014 1206     		lsls	r2, r2, #24
 326 0016 5A61     		str	r2, [r3, #20]
 327              	.L29:
 328 0018 C046     		nop
 329 001a BD46     		mov	sp, r7
 330              		@ sp needed
 331 001c 80BD     		pop	{r7, pc}
 332              	.L31:
 333 001e C046     		.align	2
 334              	.L30:
 335 0020 00040140 		.word	1073808384
 337              		.section	.text.HAL_PWREx_Vddio2MonitorCallback,"ax",%progbits
 338              		.align	1
 339              		.weak	HAL_PWREx_Vddio2MonitorCallback
 340              		.syntax unified
 341              		.code	16
 342              		.thumb_func
 344              	HAL_PWREx_Vddio2MonitorCallback:
 345              		@ args = 0, pretend = 0, frame = 0
 346              		@ frame_needed = 1, uses_anonymous_args = 0
 347 0000 80B5     		push	{r7, lr}
 348 0002 00AF     		add	r7, sp, #0
 349 0004 C046     		nop
 350 0006 BD46     		mov	sp, r7
 351              		@ sp needed
 352 0008 80BD     		pop	{r7, pc}
 354              		.ident	"GCC: (crosstool-NG 1.28.0 - arm-cortexm0-eabi) 15.2.0"
ARM GAS  /tmp/ccWgPcxs.s 			page 7

