ARM GAS  /tmp/cc27IUZK.s 			page 1


   1              		.arch armv6s-m
   2              		.fpu softvfp
   3              		.eabi_attribute 20, 1
   4              		.eabi_attribute 21, 1
   5              		.eabi_attribute 23, 3
   6              		.eabi_attribute 24, 1
   7              		.eabi_attribute 25, 1
   8              		.eabi_attribute 26, 1
   9              		.eabi_attribute 30, 6
  10              		.eabi_attribute 34, 0
  11              		.eabi_attribute 18, 4
  12              		.file	"usbd_cdc_if.c"
  13              		.text
  14              		.section	.rodata.CHANNEL_OFFSET_TAB,"a"
  15              		.align	2
  18              	CHANNEL_OFFSET_TAB:
  19 0000 081C3044 		.ascii	"\010\0340DXl\200"
  19      586C80
  20              		.global	UserRxBufferFS
  21              		.section	.bss.UserRxBufferFS,"aw",%nobits
  22              		.align	2
  25              	UserRxBufferFS:
  26 0000 00000000 		.space	1024
  26      00000000 
  26      00000000 
  26      00000000 
  26      00000000 
  27              		.global	UserTxBufferFS
  28              		.section	.bss.UserTxBufferFS,"aw",%nobits
  29              		.align	2
  32              	UserTxBufferFS:
  33 0000 00000000 		.space	1024
  33      00000000 
  33      00000000 
  33      00000000 
  33      00000000 
  34              		.global	USBD_Interface_fops_FS
  35              		.section	.data.USBD_Interface_fops_FS,"aw"
  36              		.align	2
  39              	USBD_Interface_fops_FS:
  40 0000 00000000 		.word	CDC_Init_FS
  41 0004 00000000 		.word	CDC_DeInit_FS
  42 0008 00000000 		.word	CDC_Control_FS
  43 000c 00000000 		.word	CDC_Receive_FS
  44              		.section	.text.CDC_Init_FS,"ax",%progbits
  45              		.align	1
  46              		.syntax unified
  47              		.code	16
  48              		.thumb_func
  50              	CDC_Init_FS:
  51              		@ args = 0, pretend = 0, frame = 0
  52              		@ frame_needed = 1, uses_anonymous_args = 0
  53 0000 80B5     		push	{r7, lr}
  54 0002 00AF     		add	r7, sp, #0
  55 0004 0749     		ldr	r1, .L3
  56 0006 084B     		ldr	r3, .L3+4
  57 0008 0022     		movs	r2, #0
ARM GAS  /tmp/cc27IUZK.s 			page 2


  58 000a 1800     		movs	r0, r3
  59 000c FFF7FEFF 		bl	USBD_CDC_SetTxBuffer
  60 0010 064A     		ldr	r2, .L3+8
  61 0012 054B     		ldr	r3, .L3+4
  62 0014 1100     		movs	r1, r2
  63 0016 1800     		movs	r0, r3
  64 0018 FFF7FEFF 		bl	USBD_CDC_SetRxBuffer
  65 001c 0023     		movs	r3, #0
  66 001e 1800     		movs	r0, r3
  67 0020 BD46     		mov	sp, r7
  68              		@ sp needed
  69 0022 80BD     		pop	{r7, pc}
  70              	.L4:
  71              		.align	2
  72              	.L3:
  73 0024 00000000 		.word	UserTxBufferFS
  74 0028 00000000 		.word	hUsbDeviceFS
  75 002c 00000000 		.word	UserRxBufferFS
  77              		.section	.text.CDC_DeInit_FS,"ax",%progbits
  78              		.align	1
  79              		.syntax unified
  80              		.code	16
  81              		.thumb_func
  83              	CDC_DeInit_FS:
  84              		@ args = 0, pretend = 0, frame = 0
  85              		@ frame_needed = 1, uses_anonymous_args = 0
  86 0000 80B5     		push	{r7, lr}
  87 0002 00AF     		add	r7, sp, #0
  88 0004 0023     		movs	r3, #0
  89 0006 1800     		movs	r0, r3
  90 0008 BD46     		mov	sp, r7
  91              		@ sp needed
  92 000a 80BD     		pop	{r7, pc}
  94              		.section	.text.CDC_Control_FS,"ax",%progbits
  95              		.align	1
  96              		.syntax unified
  97              		.code	16
  98              		.thumb_func
 100              	CDC_Control_FS:
 101              		@ args = 0, pretend = 0, frame = 8
 102              		@ frame_needed = 1, uses_anonymous_args = 0
 103 0000 80B5     		push	{r7, lr}
 104 0002 82B0     		sub	sp, sp, #8
 105 0004 00AF     		add	r7, sp, #0
 106 0006 3960     		str	r1, [r7]
 107 0008 1100     		movs	r1, r2
 108 000a FB1D     		adds	r3, r7, #7
 109 000c 021C     		adds	r2, r0, #0
 110 000e 1A70     		strb	r2, [r3]
 111 0010 3B1D     		adds	r3, r7, #4
 112 0012 0A1C     		adds	r2, r1, #0
 113 0014 1A80     		strh	r2, [r3]
 114 0016 FB1D     		adds	r3, r7, #7
 115 0018 1B78     		ldrb	r3, [r3]
 116 001a 232B     		cmp	r3, #35
 117 001c 17D0     		beq	.L20
 118 001e 18DC     		bgt	.L21
ARM GAS  /tmp/cc27IUZK.s 			page 3


 119 0020 222B     		cmp	r3, #34
 120 0022 18D0     		beq	.L22
 121 0024 15DC     		bgt	.L21
 122 0026 212B     		cmp	r3, #33
 123 0028 17D0     		beq	.L23
 124 002a 12DC     		bgt	.L21
 125 002c 202B     		cmp	r3, #32
 126 002e 16D0     		beq	.L24
 127 0030 0FDC     		bgt	.L21
 128 0032 042B     		cmp	r3, #4
 129 0034 15D0     		beq	.L25
 130 0036 0CDC     		bgt	.L21
 131 0038 032B     		cmp	r3, #3
 132 003a 14D0     		beq	.L26
 133 003c 09DC     		bgt	.L21
 134 003e 022B     		cmp	r3, #2
 135 0040 13D0     		beq	.L27
 136 0042 06DC     		bgt	.L21
 137 0044 002B     		cmp	r3, #0
 138 0046 12D0     		beq	.L28
 139 0048 012B     		cmp	r3, #1
 140 004a 12D0     		beq	.L29
 141 004c 01E0     		b	.L21
 142              	.L20:
 143 004e C046     		nop
 144 0050 10E0     		b	.L18
 145              	.L21:
 146 0052 C046     		nop
 147 0054 0EE0     		b	.L18
 148              	.L22:
 149 0056 C046     		nop
 150 0058 0CE0     		b	.L18
 151              	.L23:
 152 005a C046     		nop
 153 005c 0AE0     		b	.L18
 154              	.L24:
 155 005e C046     		nop
 156 0060 08E0     		b	.L18
 157              	.L25:
 158 0062 C046     		nop
 159 0064 06E0     		b	.L18
 160              	.L26:
 161 0066 C046     		nop
 162 0068 04E0     		b	.L18
 163              	.L27:
 164 006a C046     		nop
 165 006c 02E0     		b	.L18
 166              	.L28:
 167 006e C046     		nop
 168 0070 00E0     		b	.L18
 169              	.L29:
 170 0072 C046     		nop
 171              	.L18:
 172 0074 0023     		movs	r3, #0
 173 0076 1800     		movs	r0, r3
 174 0078 BD46     		mov	sp, r7
 175 007a 02B0     		add	sp, sp, #8
ARM GAS  /tmp/cc27IUZK.s 			page 4


 176              		@ sp needed
 177 007c 80BD     		pop	{r7, pc}
 179              		.section	.text.CDC_Receive_FS,"ax",%progbits
 180              		.align	1
 181              		.syntax unified
 182              		.code	16
 183              		.thumb_func
 185              	CDC_Receive_FS:
 186              		@ args = 0, pretend = 0, frame = 8
 187              		@ frame_needed = 1, uses_anonymous_args = 0
 188 0000 80B5     		push	{r7, lr}
 189 0002 82B0     		sub	sp, sp, #8
 190 0004 00AF     		add	r7, sp, #0
 191 0006 7860     		str	r0, [r7, #4]
 192 0008 3960     		str	r1, [r7]
 193 000a 7A68     		ldr	r2, [r7, #4]
 194 000c 084B     		ldr	r3, .L32
 195 000e 1100     		movs	r1, r2
 196 0010 1800     		movs	r0, r3
 197 0012 FFF7FEFF 		bl	USBD_CDC_SetRxBuffer
 198 0016 064B     		ldr	r3, .L32
 199 0018 1800     		movs	r0, r3
 200 001a FFF7FEFF 		bl	USBD_CDC_ReceivePacket
 201 001e 7B68     		ldr	r3, [r7, #4]
 202 0020 1A78     		ldrb	r2, [r3]
 203 0022 044B     		ldr	r3, .L32+4
 204 0024 1A70     		strb	r2, [r3]
 205 0026 0023     		movs	r3, #0
 206 0028 1800     		movs	r0, r3
 207 002a BD46     		mov	sp, r7
 208 002c 02B0     		add	sp, sp, #8
 209              		@ sp needed
 210 002e 80BD     		pop	{r7, pc}
 211              	.L33:
 212              		.align	2
 213              	.L32:
 214 0030 00000000 		.word	hUsbDeviceFS
 215 0034 00000000 		.word	axes
 217              		.section	.text.CDC_Transmit_FS,"ax",%progbits
 218              		.align	1
 219              		.global	CDC_Transmit_FS
 220              		.syntax unified
 221              		.code	16
 222              		.thumb_func
 224              	CDC_Transmit_FS:
 225              		@ args = 0, pretend = 0, frame = 16
 226              		@ frame_needed = 1, uses_anonymous_args = 0
 227 0000 B0B5     		push	{r4, r5, r7, lr}
 228 0002 84B0     		sub	sp, sp, #16
 229 0004 00AF     		add	r7, sp, #0
 230 0006 7860     		str	r0, [r7, #4]
 231 0008 0A00     		movs	r2, r1
 232 000a BB1C     		adds	r3, r7, #2
 233 000c 1A80     		strh	r2, [r3]
 234 000e 0F23     		movs	r3, #15
 235 0010 FB18     		adds	r3, r7, r3
 236 0012 0022     		movs	r2, #0
ARM GAS  /tmp/cc27IUZK.s 			page 5


 237 0014 1A70     		strb	r2, [r3]
 238 0016 114A     		ldr	r2, .L37
 239 0018 AE23     		movs	r3, #174
 240 001a 9B00     		lsls	r3, r3, #2
 241 001c D358     		ldr	r3, [r2, r3]
 242 001e BB60     		str	r3, [r7, #8]
 243 0020 BA68     		ldr	r2, [r7, #8]
 244 0022 8523     		movs	r3, #133
 245 0024 9B00     		lsls	r3, r3, #2
 246 0026 D358     		ldr	r3, [r2, r3]
 247 0028 002B     		cmp	r3, #0
 248 002a 01D0     		beq	.L35
 249 002c 0123     		movs	r3, #1
 250 002e 10E0     		b	.L36
 251              	.L35:
 252 0030 BB1C     		adds	r3, r7, #2
 253 0032 1A88     		ldrh	r2, [r3]
 254 0034 7968     		ldr	r1, [r7, #4]
 255 0036 094B     		ldr	r3, .L37
 256 0038 1800     		movs	r0, r3
 257 003a FFF7FEFF 		bl	USBD_CDC_SetTxBuffer
 258 003e 0F25     		movs	r5, #15
 259 0040 7C19     		adds	r4, r7, r5
 260 0042 064B     		ldr	r3, .L37
 261 0044 1800     		movs	r0, r3
 262 0046 FFF7FEFF 		bl	USBD_CDC_TransmitPacket
 263 004a 0300     		movs	r3, r0
 264 004c 2370     		strb	r3, [r4]
 265 004e 7B19     		adds	r3, r7, r5
 266 0050 1B78     		ldrb	r3, [r3]
 267              	.L36:
 268 0052 1800     		movs	r0, r3
 269 0054 BD46     		mov	sp, r7
 270 0056 04B0     		add	sp, sp, #16
 271              		@ sp needed
 272 0058 B0BD     		pop	{r4, r5, r7, pc}
 273              	.L38:
 274 005a C046     		.align	2
 275              	.L37:
 276 005c 00000000 		.word	hUsbDeviceFS
 278              		.ident	"GCC: (crosstool-NG 1.28.0 - arm-cortexm0-eabi) 15.2.0"
ARM GAS  /tmp/cc27IUZK.s 			page 6

